
types:     file format elf64-x86-64


Disassembly of section .init:

0000000000002000 <_init>:
    2000:	f3 0f 1e fa          	endbr64
    2004:	48 83 ec 08          	sub    $0x8,%rsp
    2008:	48 8b 05 e1 bf 00 00 	mov    0xbfe1(%rip),%rax        # dff0 <__gmon_start__@Base>
    200f:	48 85 c0             	test   %rax,%rax
    2012:	74 02                	je     2016 <_init+0x16>
    2014:	ff d0                	call   *%rax
    2016:	48 83 c4 08          	add    $0x8,%rsp
    201a:	c3                   	ret

Disassembly of section .plt:

0000000000002020 <.plt>:
    2020:	ff 35 ba be 00 00    	push   0xbeba(%rip)        # dee0 <_GLOBAL_OFFSET_TABLE_+0x8>
    2026:	ff 25 bc be 00 00    	jmp    *0xbebc(%rip)        # dee8 <_GLOBAL_OFFSET_TABLE_+0x10>
    202c:	0f 1f 40 00          	nopl   0x0(%rax)
    2030:	f3 0f 1e fa          	endbr64
    2034:	68 00 00 00 00       	push   $0x0
    2039:	e9 e2 ff ff ff       	jmp    2020 <_init+0x20>
    203e:	66 90                	xchg   %ax,%ax
    2040:	f3 0f 1e fa          	endbr64
    2044:	68 01 00 00 00       	push   $0x1
    2049:	e9 d2 ff ff ff       	jmp    2020 <_init+0x20>
    204e:	66 90                	xchg   %ax,%ax
    2050:	f3 0f 1e fa          	endbr64
    2054:	68 02 00 00 00       	push   $0x2
    2059:	e9 c2 ff ff ff       	jmp    2020 <_init+0x20>
    205e:	66 90                	xchg   %ax,%ax
    2060:	f3 0f 1e fa          	endbr64
    2064:	68 03 00 00 00       	push   $0x3
    2069:	e9 b2 ff ff ff       	jmp    2020 <_init+0x20>
    206e:	66 90                	xchg   %ax,%ax
    2070:	f3 0f 1e fa          	endbr64
    2074:	68 04 00 00 00       	push   $0x4
    2079:	e9 a2 ff ff ff       	jmp    2020 <_init+0x20>
    207e:	66 90                	xchg   %ax,%ax
    2080:	f3 0f 1e fa          	endbr64
    2084:	68 05 00 00 00       	push   $0x5
    2089:	e9 92 ff ff ff       	jmp    2020 <_init+0x20>
    208e:	66 90                	xchg   %ax,%ax
    2090:	f3 0f 1e fa          	endbr64
    2094:	68 06 00 00 00       	push   $0x6
    2099:	e9 82 ff ff ff       	jmp    2020 <_init+0x20>
    209e:	66 90                	xchg   %ax,%ax
    20a0:	f3 0f 1e fa          	endbr64
    20a4:	68 07 00 00 00       	push   $0x7
    20a9:	e9 72 ff ff ff       	jmp    2020 <_init+0x20>
    20ae:	66 90                	xchg   %ax,%ax
    20b0:	f3 0f 1e fa          	endbr64
    20b4:	68 08 00 00 00       	push   $0x8
    20b9:	e9 62 ff ff ff       	jmp    2020 <_init+0x20>
    20be:	66 90                	xchg   %ax,%ax
    20c0:	f3 0f 1e fa          	endbr64
    20c4:	68 09 00 00 00       	push   $0x9
    20c9:	e9 52 ff ff ff       	jmp    2020 <_init+0x20>
    20ce:	66 90                	xchg   %ax,%ax
    20d0:	f3 0f 1e fa          	endbr64
    20d4:	68 0a 00 00 00       	push   $0xa
    20d9:	e9 42 ff ff ff       	jmp    2020 <_init+0x20>
    20de:	66 90                	xchg   %ax,%ax
    20e0:	f3 0f 1e fa          	endbr64
    20e4:	68 0b 00 00 00       	push   $0xb
    20e9:	e9 32 ff ff ff       	jmp    2020 <_init+0x20>
    20ee:	66 90                	xchg   %ax,%ax
    20f0:	f3 0f 1e fa          	endbr64
    20f4:	68 0c 00 00 00       	push   $0xc
    20f9:	e9 22 ff ff ff       	jmp    2020 <_init+0x20>
    20fe:	66 90                	xchg   %ax,%ax
    2100:	f3 0f 1e fa          	endbr64
    2104:	68 0d 00 00 00       	push   $0xd
    2109:	e9 12 ff ff ff       	jmp    2020 <_init+0x20>
    210e:	66 90                	xchg   %ax,%ax
    2110:	f3 0f 1e fa          	endbr64
    2114:	68 0e 00 00 00       	push   $0xe
    2119:	e9 02 ff ff ff       	jmp    2020 <_init+0x20>
    211e:	66 90                	xchg   %ax,%ax
    2120:	f3 0f 1e fa          	endbr64
    2124:	68 0f 00 00 00       	push   $0xf
    2129:	e9 f2 fe ff ff       	jmp    2020 <_init+0x20>
    212e:	66 90                	xchg   %ax,%ax
    2130:	f3 0f 1e fa          	endbr64
    2134:	68 10 00 00 00       	push   $0x10
    2139:	e9 e2 fe ff ff       	jmp    2020 <_init+0x20>
    213e:	66 90                	xchg   %ax,%ax
    2140:	f3 0f 1e fa          	endbr64
    2144:	68 11 00 00 00       	push   $0x11
    2149:	e9 d2 fe ff ff       	jmp    2020 <_init+0x20>
    214e:	66 90                	xchg   %ax,%ax
    2150:	f3 0f 1e fa          	endbr64
    2154:	68 12 00 00 00       	push   $0x12
    2159:	e9 c2 fe ff ff       	jmp    2020 <_init+0x20>
    215e:	66 90                	xchg   %ax,%ax
    2160:	f3 0f 1e fa          	endbr64
    2164:	68 13 00 00 00       	push   $0x13
    2169:	e9 b2 fe ff ff       	jmp    2020 <_init+0x20>
    216e:	66 90                	xchg   %ax,%ax
    2170:	f3 0f 1e fa          	endbr64
    2174:	68 14 00 00 00       	push   $0x14
    2179:	e9 a2 fe ff ff       	jmp    2020 <_init+0x20>
    217e:	66 90                	xchg   %ax,%ax
    2180:	f3 0f 1e fa          	endbr64
    2184:	68 15 00 00 00       	push   $0x15
    2189:	e9 92 fe ff ff       	jmp    2020 <_init+0x20>
    218e:	66 90                	xchg   %ax,%ax
    2190:	f3 0f 1e fa          	endbr64
    2194:	68 16 00 00 00       	push   $0x16
    2199:	e9 82 fe ff ff       	jmp    2020 <_init+0x20>
    219e:	66 90                	xchg   %ax,%ax
    21a0:	f3 0f 1e fa          	endbr64
    21a4:	68 17 00 00 00       	push   $0x17
    21a9:	e9 72 fe ff ff       	jmp    2020 <_init+0x20>
    21ae:	66 90                	xchg   %ax,%ax
    21b0:	f3 0f 1e fa          	endbr64
    21b4:	68 18 00 00 00       	push   $0x18
    21b9:	e9 62 fe ff ff       	jmp    2020 <_init+0x20>
    21be:	66 90                	xchg   %ax,%ax
    21c0:	f3 0f 1e fa          	endbr64
    21c4:	68 19 00 00 00       	push   $0x19
    21c9:	e9 52 fe ff ff       	jmp    2020 <_init+0x20>
    21ce:	66 90                	xchg   %ax,%ax
    21d0:	f3 0f 1e fa          	endbr64
    21d4:	68 1a 00 00 00       	push   $0x1a
    21d9:	e9 42 fe ff ff       	jmp    2020 <_init+0x20>
    21de:	66 90                	xchg   %ax,%ax
    21e0:	f3 0f 1e fa          	endbr64
    21e4:	68 1b 00 00 00       	push   $0x1b
    21e9:	e9 32 fe ff ff       	jmp    2020 <_init+0x20>
    21ee:	66 90                	xchg   %ax,%ax

Disassembly of section .plt.got:

00000000000021f0 <__cxa_finalize@plt>:
    21f0:	f3 0f 1e fa          	endbr64
    21f4:	ff 25 d6 bd 00 00    	jmp    *0xbdd6(%rip)        # dfd0 <__cxa_finalize@GLIBC_2.2.5>
    21fa:	66 0f 1f 44 00 00    	nopw   0x0(%rax,%rax,1)

Disassembly of section .plt.sec:

0000000000002200 <_ZSt29_Rb_tree_insert_and_rebalancebPSt18_Rb_tree_node_baseS0_RS_@plt>:
    2200:	f3 0f 1e fa          	endbr64
    2204:	ff 25 e6 bc 00 00    	jmp    *0xbce6(%rip)        # def0 <_ZSt29_Rb_tree_insert_and_rebalancebPSt18_Rb_tree_node_baseS0_RS_@GLIBCXX_3.4>
    220a:	66 0f 1f 44 00 00    	nopw   0x0(%rax,%rax,1)

0000000000002210 <_ZNSirsERf@plt>:
    2210:	f3 0f 1e fa          	endbr64
    2214:	ff 25 de bc 00 00    	jmp    *0xbcde(%rip)        # def8 <_ZNSirsERf@GLIBCXX_3.4>
    221a:	66 0f 1f 44 00 00    	nopw   0x0(%rax,%rax,1)

0000000000002220 <_ZNSt7__cxx1112basic_stringIcSt11char_traitsIcESaIcEE6insertEmPKc@plt>:
    2220:	f3 0f 1e fa          	endbr64
    2224:	ff 25 d6 bc 00 00    	jmp    *0xbcd6(%rip)        # df00 <_ZNSt7__cxx1112basic_stringIcSt11char_traitsIcESaIcEE6insertEmPKc@GLIBCXX_3.4.21>
    222a:	66 0f 1f 44 00 00    	nopw   0x0(%rax,%rax,1)

0000000000002230 <_ZSt17__throw_bad_allocv@plt>:
    2230:	f3 0f 1e fa          	endbr64
    2234:	ff 25 ce bc 00 00    	jmp    *0xbcce(%rip)        # df08 <_ZSt17__throw_bad_allocv@GLIBCXX_3.4>
    223a:	66 0f 1f 44 00 00    	nopw   0x0(%rax,%rax,1)

0000000000002240 <__cxa_begin_catch@plt>:
    2240:	f3 0f 1e fa          	endbr64
    2244:	ff 25 c6 bc 00 00    	jmp    *0xbcc6(%rip)        # df10 <__cxa_begin_catch@CXXABI_1.3>
    224a:	66 0f 1f 44 00 00    	nopw   0x0(%rax,%rax,1)

0000000000002250 <_ZNSt7__cxx1112basic_stringIcSt11char_traitsIcESaIcEEC1ERKS4_@plt>:
    2250:	f3 0f 1e fa          	endbr64
    2254:	ff 25 be bc 00 00    	jmp    *0xbcbe(%rip)        # df18 <_ZNSt7__cxx1112basic_stringIcSt11char_traitsIcESaIcEEC1ERKS4_@GLIBCXX_3.4.21>
    225a:	66 0f 1f 44 00 00    	nopw   0x0(%rax,%rax,1)

0000000000002260 <_ZSt20__throw_length_errorPKc@plt>:
    2260:	f3 0f 1e fa          	endbr64
    2264:	ff 25 b6 bc 00 00    	jmp    *0xbcb6(%rip)        # df20 <_ZSt20__throw_length_errorPKc@GLIBCXX_3.4>
    226a:	66 0f 1f 44 00 00    	nopw   0x0(%rax,%rax,1)

0000000000002270 <_ZNSt7__cxx1112basic_stringIcSt11char_traitsIcESaIcEEC1EOS4_@plt>:
    2270:	f3 0f 1e fa          	endbr64
    2274:	ff 25 ae bc 00 00    	jmp    *0xbcae(%rip)        # df28 <_ZNSt7__cxx1112basic_stringIcSt11char_traitsIcESaIcEEC1EOS4_@GLIBCXX_3.4.21>
    227a:	66 0f 1f 44 00 00    	nopw   0x0(%rax,%rax,1)

0000000000002280 <_ZNSirsERi@plt>:
    2280:	f3 0f 1e fa          	endbr64
    2284:	ff 25 a6 bc 00 00    	jmp    *0xbca6(%rip)        # df30 <_ZNSirsERi@GLIBCXX_3.4>
    228a:	66 0f 1f 44 00 00    	nopw   0x0(%rax,%rax,1)

0000000000002290 <_ZNSt7__cxx1112basic_stringIcSt11char_traitsIcESaIcEED1Ev@plt>:
    2290:	f3 0f 1e fa          	endbr64
    2294:	ff 25 9e bc 00 00    	jmp    *0xbc9e(%rip)        # df38 <_ZNSt7__cxx1112basic_stringIcSt11char_traitsIcESaIcEED1Ev@GLIBCXX_3.4.21>
    229a:	66 0f 1f 44 00 00    	nopw   0x0(%rax,%rax,1)

00000000000022a0 <_ZNSolsEf@plt>:
    22a0:	f3 0f 1e fa          	endbr64
    22a4:	ff 25 96 bc 00 00    	jmp    *0xbc96(%rip)        # df40 <_ZNSolsEf@GLIBCXX_3.4>
    22aa:	66 0f 1f 44 00 00    	nopw   0x0(%rax,%rax,1)

00000000000022b0 <_ZSt28__throw_bad_array_new_lengthv@plt>:
    22b0:	f3 0f 1e fa          	endbr64
    22b4:	ff 25 8e bc 00 00    	jmp    *0xbc8e(%rip)        # df48 <_ZSt28__throw_bad_array_new_lengthv@GLIBCXX_3.4.29>
    22ba:	66 0f 1f 44 00 00    	nopw   0x0(%rax,%rax,1)

00000000000022c0 <_ZNSt7__cxx1112basic_stringIcSt11char_traitsIcESaIcEE13_M_local_dataEv@plt>:
    22c0:	f3 0f 1e fa          	endbr64
    22c4:	ff 25 86 bc 00 00    	jmp    *0xbc86(%rip)        # df50 <_ZNSt7__cxx1112basic_stringIcSt11char_traitsIcESaIcEE13_M_local_dataEv@GLIBCXX_3.4.21>
    22ca:	66 0f 1f 44 00 00    	nopw   0x0(%rax,%rax,1)

00000000000022d0 <_ZStlsISt11char_traitsIcEERSt13basic_ostreamIcT_ES5_PKc@plt>:
    22d0:	f3 0f 1e fa          	endbr64
    22d4:	ff 25 7e bc 00 00    	jmp    *0xbc7e(%rip)        # df58 <_ZStlsISt11char_traitsIcEERSt13basic_ostreamIcT_ES5_PKc@GLIBCXX_3.4>
    22da:	66 0f 1f 44 00 00    	nopw   0x0(%rax,%rax,1)

00000000000022e0 <_Znwm@plt>:
    22e0:	f3 0f 1e fa          	endbr64
    22e4:	ff 25 76 bc 00 00    	jmp    *0xbc76(%rip)        # df60 <_Znwm@GLIBCXX_3.4>
    22ea:	66 0f 1f 44 00 00    	nopw   0x0(%rax,%rax,1)

00000000000022f0 <_ZdlPvm@plt>:
    22f0:	f3 0f 1e fa          	endbr64
    22f4:	ff 25 6e bc 00 00    	jmp    *0xbc6e(%rip)        # df68 <_ZdlPvm@CXXABI_1.3.9>
    22fa:	66 0f 1f 44 00 00    	nopw   0x0(%rax,%rax,1)

0000000000002300 <_ZSt18_Rb_tree_decrementPSt18_Rb_tree_node_base@plt>:
    2300:	f3 0f 1e fa          	endbr64
    2304:	ff 25 66 bc 00 00    	jmp    *0xbc66(%rip)        # df70 <_ZSt18_Rb_tree_decrementPSt18_Rb_tree_node_base@GLIBCXX_3.4>
    230a:	66 0f 1f 44 00 00    	nopw   0x0(%rax,%rax,1)

0000000000002310 <_ZNSolsEPFRSoS_E@plt>:
    2310:	f3 0f 1e fa          	endbr64
    2314:	ff 25 5e bc 00 00    	jmp    *0xbc5e(%rip)        # df78 <_ZNSolsEPFRSoS_E@GLIBCXX_3.4>
    231a:	66 0f 1f 44 00 00    	nopw   0x0(%rax,%rax,1)

0000000000002320 <_ZNSt7__cxx1112basic_stringIcSt11char_traitsIcESaIcEE12_Alloc_hiderC1EPcRKS3_@plt>:
    2320:	f3 0f 1e fa          	endbr64
    2324:	ff 25 56 bc 00 00    	jmp    *0xbc56(%rip)        # df80 <_ZNSt7__cxx1112basic_stringIcSt11char_traitsIcESaIcEE12_Alloc_hiderC1EPcRKS3_@GLIBCXX_3.4.21>
    232a:	66 0f 1f 44 00 00    	nopw   0x0(%rax,%rax,1)

0000000000002330 <__stack_chk_fail@plt>:
    2330:	f3 0f 1e fa          	endbr64
    2334:	ff 25 4e bc 00 00    	jmp    *0xbc4e(%rip)        # df88 <__stack_chk_fail@GLIBC_2.4>
    233a:	66 0f 1f 44 00 00    	nopw   0x0(%rax,%rax,1)

0000000000002340 <_ZSt18_Rb_tree_incrementPKSt18_Rb_tree_node_base@plt>:
    2340:	f3 0f 1e fa          	endbr64
    2344:	ff 25 46 bc 00 00    	jmp    *0xbc46(%rip)        # df90 <_ZSt18_Rb_tree_incrementPKSt18_Rb_tree_node_base@GLIBCXX_3.4>
    234a:	66 0f 1f 44 00 00    	nopw   0x0(%rax,%rax,1)

0000000000002350 <_ZNSt7__cxx1112basic_stringIcSt11char_traitsIcESaIcEE12_M_constructEmc@plt>:
    2350:	f3 0f 1e fa          	endbr64
    2354:	ff 25 3e bc 00 00    	jmp    *0xbc3e(%rip)        # df98 <_ZNSt7__cxx1112basic_stringIcSt11char_traitsIcESaIcEE12_M_constructEmc@GLIBCXX_3.4.21>
    235a:	66 0f 1f 44 00 00    	nopw   0x0(%rax,%rax,1)

0000000000002360 <_ZStrsIcSt11char_traitsIcEERSt13basic_istreamIT_T0_ES6_RS3_@plt>:
    2360:	f3 0f 1e fa          	endbr64
    2364:	ff 25 36 bc 00 00    	jmp    *0xbc36(%rip)        # dfa0 <_ZStrsIcSt11char_traitsIcEERSt13basic_istreamIT_T0_ES6_RS3_@GLIBCXX_3.4>
    236a:	66 0f 1f 44 00 00    	nopw   0x0(%rax,%rax,1)

0000000000002370 <__cxa_rethrow@plt>:
    2370:	f3 0f 1e fa          	endbr64
    2374:	ff 25 2e bc 00 00    	jmp    *0xbc2e(%rip)        # dfa8 <__cxa_rethrow@CXXABI_1.3>
    237a:	66 0f 1f 44 00 00    	nopw   0x0(%rax,%rax,1)

0000000000002380 <__cxa_end_catch@plt>:
    2380:	f3 0f 1e fa          	endbr64
    2384:	ff 25 26 bc 00 00    	jmp    *0xbc26(%rip)        # dfb0 <__cxa_end_catch@CXXABI_1.3>
    238a:	66 0f 1f 44 00 00    	nopw   0x0(%rax,%rax,1)

0000000000002390 <_ZNSolsEi@plt>:
    2390:	f3 0f 1e fa          	endbr64
    2394:	ff 25 1e bc 00 00    	jmp    *0xbc1e(%rip)        # dfb8 <_ZNSolsEi@GLIBCXX_3.4>
    239a:	66 0f 1f 44 00 00    	nopw   0x0(%rax,%rax,1)

00000000000023a0 <_Unwind_Resume@plt>:
    23a0:	f3 0f 1e fa          	endbr64
    23a4:	ff 25 16 bc 00 00    	jmp    *0xbc16(%rip)        # dfc0 <_Unwind_Resume@GCC_3.0>
    23aa:	66 0f 1f 44 00 00    	nopw   0x0(%rax,%rax,1)

00000000000023b0 <_ZNSt7__cxx1112basic_stringIcSt11char_traitsIcESaIcEEixEm@plt>:
    23b0:	f3 0f 1e fa          	endbr64
    23b4:	ff 25 0e bc 00 00    	jmp    *0xbc0e(%rip)        # dfc8 <_ZNSt7__cxx1112basic_stringIcSt11char_traitsIcESaIcEEixEm@GLIBCXX_3.4.21>
    23ba:	66 0f 1f 44 00 00    	nopw   0x0(%rax,%rax,1)

Disassembly of section .text:

00000000000023c0 <_start>:
    23c0:	f3 0f 1e fa          	endbr64
    23c4:	31 ed                	xor    %ebp,%ebp
    23c6:	49 89 d1             	mov    %rdx,%r9
    23c9:	5e                   	pop    %rsi
    23ca:	48 89 e2             	mov    %rsp,%rdx
    23cd:	48 83 e4 f0          	and    $0xfffffffffffffff0,%rsp
    23d1:	50                   	push   %rax
    23d2:	54                   	push   %rsp
    23d3:	45 31 c0             	xor    %r8d,%r8d
    23d6:	31 c9                	xor    %ecx,%ecx
    23d8:	48 8d 3d dc 06 00 00 	lea    0x6dc(%rip),%rdi        # 2abb <main>
    23df:	ff 15 fb bb 00 00    	call   *0xbbfb(%rip)        # dfe0 <__libc_start_main@GLIBC_2.34>
    23e5:	f4                   	hlt
    23e6:	66 2e 0f 1f 84 00 00 	cs nopw 0x0(%rax,%rax,1)
    23ed:	00 00 00 

00000000000023f0 <deregister_tm_clones>:
    23f0:	48 8d 3d 21 bc 00 00 	lea    0xbc21(%rip),%rdi        # e018 <__TMC_END__>
    23f7:	48 8d 05 1a bc 00 00 	lea    0xbc1a(%rip),%rax        # e018 <__TMC_END__>
    23fe:	48 39 f8             	cmp    %rdi,%rax
    2401:	74 15                	je     2418 <deregister_tm_clones+0x28>
    2403:	48 8b 05 de bb 00 00 	mov    0xbbde(%rip),%rax        # dfe8 <_ITM_deregisterTMCloneTable@Base>
    240a:	48 85 c0             	test   %rax,%rax
    240d:	74 09                	je     2418 <deregister_tm_clones+0x28>
    240f:	ff e0                	jmp    *%rax
    2411:	0f 1f 80 00 00 00 00 	nopl   0x0(%rax)
    2418:	c3                   	ret
    2419:	0f 1f 80 00 00 00 00 	nopl   0x0(%rax)

0000000000002420 <register_tm_clones>:
    2420:	48 8d 3d f1 bb 00 00 	lea    0xbbf1(%rip),%rdi        # e018 <__TMC_END__>
    2427:	48 8d 35 ea bb 00 00 	lea    0xbbea(%rip),%rsi        # e018 <__TMC_END__>
    242e:	48 29 fe             	sub    %rdi,%rsi
    2431:	48 89 f0             	mov    %rsi,%rax
    2434:	48 c1 ee 3f          	shr    $0x3f,%rsi
    2438:	48 c1 f8 03          	sar    $0x3,%rax
    243c:	48 01 c6             	add    %rax,%rsi
    243f:	48 d1 fe             	sar    $1,%rsi
    2442:	74 14                	je     2458 <register_tm_clones+0x38>
    2444:	48 8b 05 ad bb 00 00 	mov    0xbbad(%rip),%rax        # dff8 <_ITM_registerTMCloneTable@Base>
    244b:	48 85 c0             	test   %rax,%rax
    244e:	74 08                	je     2458 <register_tm_clones+0x38>
    2450:	ff e0                	jmp    *%rax
    2452:	66 0f 1f 44 00 00    	nopw   0x0(%rax,%rax,1)
    2458:	c3                   	ret
    2459:	0f 1f 80 00 00 00 00 	nopl   0x0(%rax)

0000000000002460 <__do_global_dtors_aux>:
    2460:	f3 0f 1e fa          	endbr64
    2464:	80 3d 0d be 00 00 00 	cmpb   $0x0,0xbe0d(%rip)        # e278 <completed.0>
    246b:	75 2b                	jne    2498 <__do_global_dtors_aux+0x38>
    246d:	55                   	push   %rbp
    246e:	48 83 3d 5a bb 00 00 	cmpq   $0x0,0xbb5a(%rip)        # dfd0 <__cxa_finalize@GLIBC_2.2.5>
    2475:	00 
    2476:	48 89 e5             	mov    %rsp,%rbp
    2479:	74 0c                	je     2487 <__do_global_dtors_aux+0x27>
    247b:	48 8b 3d 86 bb 00 00 	mov    0xbb86(%rip),%rdi        # e008 <__dso_handle>
    2482:	e8 69 fd ff ff       	call   21f0 <__cxa_finalize@plt>
    2487:	e8 64 ff ff ff       	call   23f0 <deregister_tm_clones>
    248c:	c6 05 e5 bd 00 00 01 	movb   $0x1,0xbde5(%rip)        # e278 <completed.0>
    2493:	5d                   	pop    %rbp
    2494:	c3                   	ret
    2495:	0f 1f 00             	nopl   (%rax)
    2498:	c3                   	ret
    2499:	0f 1f 80 00 00 00 00 	nopl   0x0(%rax)

00000000000024a0 <frame_dummy>:
    24a0:	f3 0f 1e fa          	endbr64
    24a4:	e9 77 ff ff ff       	jmp    2420 <register_tm_clones>

00000000000024a9 <_Z19buildExpressionTreei>:
    24a9:	f3 0f 1e fa          	endbr64
    24ad:	55                   	push   %rbp
    24ae:	48 89 e5             	mov    %rsp,%rbp
    24b1:	41 55                	push   %r13
    24b3:	41 54                	push   %r12
    24b5:	53                   	push   %rbx
    24b6:	48 81 ec 38 01 00 00 	sub    $0x138,%rsp
    24bd:	48 89 bd b8 fe ff ff 	mov    %rdi,-0x148(%rbp)
    24c4:	89 b5 b4 fe ff ff    	mov    %esi,-0x14c(%rbp)
    24ca:	64 48 8b 04 25 28 00 	mov    %fs:0x28,%rax
    24d1:	00 00 
    24d3:	48 89 45 d8          	mov    %rax,-0x28(%rbp)
    24d7:	31 c0                	xor    %eax,%eax
    24d9:	48 8d 85 d0 fe ff ff 	lea    -0x130(%rbp),%rax
    24e0:	be 00 00 00 00       	mov    $0x0,%esi
    24e5:	48 89 c7             	mov    %rax,%rdi
    24e8:	e8 b9 1f 00 00       	call   44a6 <_ZNSt10unique_ptrI14ExpressionNodeSt14default_deleteIS0_EEC1IS2_vEEDn>
    24ed:	48 8d 85 00 ff ff ff 	lea    -0x100(%rbp),%rax
    24f4:	48 89 c7             	mov    %rax,%rdi
    24f7:	e8 da 10 00 00       	call   35d6 <_ZNSt3setI6bipoloSt4lessIS0_ESaIS0_EEC1Ev>
    24fc:	48 8d 85 30 ff ff ff 	lea    -0xd0(%rbp),%rax
    2503:	48 89 c7             	mov    %rax,%rdi
    2506:	e8 53 11 00 00       	call   365e <_ZNSt3setIiSt4lessIiESaIiEEC1Ev>
    250b:	8b 85 b4 fe ff ff    	mov    -0x14c(%rbp),%eax
    2511:	89 85 cc fe ff ff    	mov    %eax,-0x134(%rbp)
    2517:	e9 1b 03 00 00       	jmp    2837 <_Z19buildExpressionTreei+0x38e>
    251c:	48 8d 05 4d 6b 00 00 	lea    0x6b4d(%rip),%rax        # 9070 <_ZN5Eigen8internalL18defaultL3CacheSizeE+0x8>
    2523:	48 89 c6             	mov    %rax,%rsi
    2526:	48 8d 05 13 bb 00 00 	lea    0xbb13(%rip),%rax        # e040 <_ZSt4cout@GLIBCXX_3.4>
    252d:	48 89 c7             	mov    %rax,%rdi
    2530:	e8 9b fd ff ff       	call   22d0 <_ZStlsISt11char_traitsIcEERSt13basic_ostreamIcT_ES5_PKc@plt>
    2535:	48 89 c2             	mov    %rax,%rdx
    2538:	8b 85 cc fe ff ff    	mov    -0x134(%rbp),%eax
    253e:	89 c6                	mov    %eax,%esi
    2540:	48 89 d7             	mov    %rdx,%rdi
    2543:	e8 48 fe ff ff       	call   2390 <_ZNSolsEi@plt>
    2548:	48 89 c2             	mov    %rax,%rdx
    254b:	48 8d 05 3d 6b 00 00 	lea    0x6b3d(%rip),%rax        # 908f <_ZN5Eigen8internalL18defaultL3CacheSizeE+0x27>
    2552:	48 89 c6             	mov    %rax,%rsi
    2555:	48 89 d7             	mov    %rdx,%rdi
    2558:	e8 73 fd ff ff       	call   22d0 <_ZStlsISt11char_traitsIcEERSt13basic_ostreamIcT_ES5_PKc@plt>
    255d:	48 8d 85 c4 fe ff ff 	lea    -0x13c(%rbp),%rax
    2564:	48 89 c6             	mov    %rax,%rsi
    2567:	48 8d 05 f2 bb 00 00 	lea    0xbbf2(%rip),%rax        # e160 <_ZSt3cin@GLIBCXX_3.4>
    256e:	48 89 c7             	mov    %rax,%rdi
    2571:	e8 9a fc ff ff       	call   2210 <_ZNSirsERf@plt>
    2576:	48 8d 05 15 6b 00 00 	lea    0x6b15(%rip),%rax        # 9092 <_ZN5Eigen8internalL18defaultL3CacheSizeE+0x2a>
    257d:	48 89 c6             	mov    %rax,%rsi
    2580:	48 8d 05 b9 ba 00 00 	lea    0xbab9(%rip),%rax        # e040 <_ZSt4cout@GLIBCXX_3.4>
    2587:	48 89 c7             	mov    %rax,%rdi
    258a:	e8 41 fd ff ff       	call   22d0 <_ZStlsISt11char_traitsIcEERSt13basic_ostreamIcT_ES5_PKc@plt>
    258f:	48 89 c2             	mov    %rax,%rdx
    2592:	8b 85 cc fe ff ff    	mov    -0x134(%rbp),%eax
    2598:	89 c6                	mov    %eax,%esi
    259a:	48 89 d7             	mov    %rdx,%rdi
    259d:	e8 ee fd ff ff       	call   2390 <_ZNSolsEi@plt>
    25a2:	48 89 c2             	mov    %rax,%rdx
    25a5:	48 8d 05 e3 6a 00 00 	lea    0x6ae3(%rip),%rax        # 908f <_ZN5Eigen8internalL18defaultL3CacheSizeE+0x27>
    25ac:	48 89 c6             	mov    %rax,%rsi
    25af:	48 89 d7             	mov    %rdx,%rdi
    25b2:	e8 19 fd ff ff       	call   22d0 <_ZStlsISt11char_traitsIcEERSt13basic_ostreamIcT_ES5_PKc@plt>
    25b7:	48 8d 85 c8 fe ff ff 	lea    -0x138(%rbp),%rax
    25be:	48 89 c6             	mov    %rax,%rsi
    25c1:	48 8d 05 98 bb 00 00 	lea    0xbb98(%rip),%rax        # e160 <_ZSt3cin@GLIBCXX_3.4>
    25c8:	48 89 c7             	mov    %rax,%rdi
    25cb:	e8 b0 fc ff ff       	call   2280 <_ZNSirsERi@plt>
    25d0:	48 8d 05 d5 6a 00 00 	lea    0x6ad5(%rip),%rax        # 90ac <_ZN5Eigen8internalL18defaultL3CacheSizeE+0x44>
    25d7:	48 89 c6             	mov    %rax,%rsi
    25da:	48 8d 05 5f ba 00 00 	lea    0xba5f(%rip),%rax        # e040 <_ZSt4cout@GLIBCXX_3.4>
    25e1:	48 89 c7             	mov    %rax,%rdi
    25e4:	e8 e7 fc ff ff       	call   22d0 <_ZStlsISt11char_traitsIcEERSt13basic_ostreamIcT_ES5_PKc@plt>
    25e9:	48 89 c2             	mov    %rax,%rdx
    25ec:	8b 85 cc fe ff ff    	mov    -0x134(%rbp),%eax
    25f2:	89 c6                	mov    %eax,%esi
    25f4:	48 89 d7             	mov    %rdx,%rdi
    25f7:	e8 94 fd ff ff       	call   2390 <_ZNSolsEi@plt>
    25fc:	48 89 c2             	mov    %rax,%rdx
    25ff:	48 8d 05 89 6a 00 00 	lea    0x6a89(%rip),%rax        # 908f <_ZN5Eigen8internalL18defaultL3CacheSizeE+0x27>
    2606:	48 89 c6             	mov    %rax,%rsi
    2609:	48 89 d7             	mov    %rdx,%rdi
    260c:	e8 bf fc ff ff       	call   22d0 <_ZStlsISt11char_traitsIcEERSt13basic_ostreamIcT_ES5_PKc@plt>
    2611:	48 8d 85 d8 fe ff ff 	lea    -0x128(%rbp),%rax
    2618:	48 89 c6             	mov    %rax,%rsi
    261b:	48 8d 05 3e bb 00 00 	lea    0xbb3e(%rip),%rax        # e160 <_ZSt3cin@GLIBCXX_3.4>
    2622:	48 89 c7             	mov    %rax,%rdi
    2625:	e8 56 fc ff ff       	call   2280 <_ZNSirsERi@plt>
    262a:	44 8b ad d8 fe ff ff 	mov    -0x128(%rbp),%r13d
    2631:	44 8b a5 c8 fe ff ff 	mov    -0x138(%rbp),%r12d
    2638:	8b 9d c4 fe ff ff    	mov    -0x13c(%rbp),%ebx
    263e:	48 8d 85 60 ff ff ff 	lea    -0xa0(%rbp),%rax
    2645:	8b 95 cc fe ff ff    	mov    -0x134(%rbp),%edx
    264b:	89 d6                	mov    %edx,%esi
    264d:	48 89 c7             	mov    %rax,%rdi
    2650:	e8 fe 08 00 00       	call   2f53 <_ZNSt7__cxx119to_stringEi>
    2655:	48 8d 45 80          	lea    -0x80(%rbp),%rax
    2659:	48 8d 95 60 ff ff ff 	lea    -0xa0(%rbp),%rdx
    2660:	48 8d 0d 5f 6a 00 00 	lea    0x6a5f(%rip),%rcx        # 90c6 <_ZN5Eigen8internalL18defaultL3CacheSizeE+0x5e>
    2667:	48 89 ce             	mov    %rcx,%rsi
    266a:	48 89 c7             	mov    %rax,%rdi
    266d:	e8 d1 15 00 00       	call   3c43 <_ZStplIcSt11char_traitsIcESaIcEENSt7__cxx1112basic_stringIT_T0_T1_EEPKS5_OS8_>
    2672:	48 8d 55 80          	lea    -0x80(%rbp),%rdx
    2676:	8b b5 cc fe ff ff    	mov    -0x134(%rbp),%esi
    267c:	48 8d 45 a0          	lea    -0x60(%rbp),%rax
    2680:	45 89 e9             	mov    %r13d,%r9d
    2683:	45 89 e0             	mov    %r12d,%r8d
    2686:	66 0f 6e c3          	movd   %ebx,%xmm0
    268a:	b9 01 00 00 00       	mov    $0x1,%ecx
    268f:	48 89 c7             	mov    %rax,%rdi
    2692:	e8 53 0a 00 00       	call   30ea <_ZN6bipoloC1EiRKNSt7__cxx1112basic_stringIcSt11char_traitsIcESaIcEEE4Tipofii>
    2697:	48 8d 45 80          	lea    -0x80(%rbp),%rax
    269b:	48 89 c7             	mov    %rax,%rdi
    269e:	e8 ed fb ff ff       	call   2290 <_ZNSt7__cxx1112basic_stringIcSt11char_traitsIcESaIcEED1Ev@plt>
    26a3:	48 8d 85 60 ff ff ff 	lea    -0xa0(%rbp),%rax
    26aa:	48 89 c7             	mov    %rax,%rdi
    26ad:	e8 de fb ff ff       	call   2290 <_ZNSt7__cxx1112basic_stringIcSt11char_traitsIcESaIcEED1Ev@plt>
    26b2:	48 8d 45 a0          	lea    -0x60(%rbp),%rax
    26b6:	48 8d 50 30          	lea    0x30(%rax),%rdx
    26ba:	48 8d 85 30 ff ff ff 	lea    -0xd0(%rbp),%rax
    26c1:	48 89 d6             	mov    %rdx,%rsi
    26c4:	48 89 c7             	mov    %rax,%rdi
    26c7:	e8 08 1f 00 00       	call   45d4 <_ZNSt3setIiSt4lessIiESaIiEE6insertERKi>
    26cc:	48 8d 45 a0          	lea    -0x60(%rbp),%rax
    26d0:	48 8d 50 34          	lea    0x34(%rax),%rdx
    26d4:	48 8d 85 30 ff ff ff 	lea    -0xd0(%rbp),%rax
    26db:	48 89 d6             	mov    %rdx,%rsi
    26de:	48 89 c7             	mov    %rax,%rdi
    26e1:	e8 ee 1e 00 00       	call   45d4 <_ZNSt3setIiSt4lessIiESaIiEE6insertERKi>
    26e6:	48 8d 55 a0          	lea    -0x60(%rbp),%rdx
    26ea:	48 8d 85 00 ff ff ff 	lea    -0x100(%rbp),%rax
    26f1:	48 89 d6             	mov    %rdx,%rsi
    26f4:	48 89 c7             	mov    %rax,%rdi
    26f7:	e8 50 1f 00 00       	call   464c <_ZNSt3setI6bipoloSt4lessIS0_ESaIS0_EE6insertERKS0_>
    26fc:	48 8d 85 e8 fe ff ff 	lea    -0x118(%rbp),%rax
    2703:	48 8d 55 a0          	lea    -0x60(%rbp),%rdx
    2707:	48 89 d6             	mov    %rdx,%rsi
    270a:	48 89 c7             	mov    %rax,%rdi
    270d:	e8 b1 1f 00 00       	call   46c3 <_ZSt11make_uniqueI10BipoloNodeJR6bipoloEENSt8__detail9_MakeUniqIT_E15__single_objectEDpOT0_>
    2712:	48 8d 95 e8 fe ff ff 	lea    -0x118(%rbp),%rdx
    2719:	48 8d 85 e0 fe ff ff 	lea    -0x120(%rbp),%rax
    2720:	48 89 d6             	mov    %rdx,%rsi
    2723:	48 89 c7             	mov    %rax,%rdi
    2726:	e8 b9 20 00 00       	call   47e4 <_ZNSt10unique_ptrI14ExpressionNodeSt14default_deleteIS0_EEC1I10BipoloNodeS1_IS5_EvEEOS_IT_T0_E>
    272b:	48 8d 85 e8 fe ff ff 	lea    -0x118(%rbp),%rax
    2732:	48 89 c7             	mov    %rax,%rdi
    2735:	e8 10 20 00 00       	call   474a <_ZNSt10unique_ptrI10BipoloNodeSt14default_deleteIS0_EED1Ev>
    273a:	48 8d 85 d0 fe ff ff 	lea    -0x130(%rbp),%rax
    2741:	be 00 00 00 00       	mov    $0x0,%esi
    2746:	48 89 c7             	mov    %rax,%rdi
    2749:	e8 ec 20 00 00       	call   483a <_ZSteqI14ExpressionNodeSt14default_deleteIS0_EEbRKSt10unique_ptrIT_T0_EDn>
    274e:	84 c0                	test   %al,%al
    2750:	74 29                	je     277b <_Z19buildExpressionTreei+0x2d2>
    2752:	48 8d 85 e0 fe ff ff 	lea    -0x120(%rbp),%rax
    2759:	48 89 c7             	mov    %rax,%rdi
    275c:	e8 00 1c 00 00       	call   4361 <_ZSt4moveIRSt10unique_ptrI14ExpressionNodeSt14default_deleteIS1_EEEONSt16remove_referenceIT_E4typeEOS7_>
    2761:	48 89 c2             	mov    %rax,%rdx
    2764:	48 8d 85 d0 fe ff ff 	lea    -0x130(%rbp),%rax
    276b:	48 89 d6             	mov    %rdx,%rsi
    276e:	48 89 c7             	mov    %rax,%rdi
    2771:	e8 56 0f 00 00       	call   36cc <_ZNSt10unique_ptrI14ExpressionNodeSt14default_deleteIS0_EEaSEOS3_>
    2776:	e9 9a 00 00 00       	jmp    2815 <_Z19buildExpressionTreei+0x36c>
    277b:	48 8d 05 4e 69 00 00 	lea    0x694e(%rip),%rax        # 90d0 <_ZN5Eigen8internalL18defaultL3CacheSizeE+0x68>
    2782:	48 89 c6             	mov    %rax,%rsi
    2785:	48 8d 05 b4 b8 00 00 	lea    0xb8b4(%rip),%rax        # e040 <_ZSt4cout@GLIBCXX_3.4>
    278c:	48 89 c7             	mov    %rax,%rdi
    278f:	e8 3c fb ff ff       	call   22d0 <_ZStlsISt11char_traitsIcEERSt13basic_ostreamIcT_ES5_PKc@plt>
    2794:	48 8d 85 c3 fe ff ff 	lea    -0x13d(%rbp),%rax
    279b:	48 89 c6             	mov    %rax,%rsi
    279e:	48 8d 05 bb b9 00 00 	lea    0xb9bb(%rip),%rax        # e160 <_ZSt3cin@GLIBCXX_3.4>
    27a5:	48 89 c7             	mov    %rax,%rdi
    27a8:	e8 b3 fb ff ff       	call   2360 <_ZStrsIcSt11char_traitsIcEERSt13basic_istreamIT_T0_ES6_RS3_@plt>
    27ad:	48 8d 85 e0 fe ff ff 	lea    -0x120(%rbp),%rax
    27b4:	48 89 c7             	mov    %rax,%rdi
    27b7:	e8 a5 1b 00 00       	call   4361 <_ZSt4moveIRSt10unique_ptrI14ExpressionNodeSt14default_deleteIS1_EEEONSt16remove_referenceIT_E4typeEOS7_>
    27bc:	48 89 c3             	mov    %rax,%rbx
    27bf:	48 8d 85 d0 fe ff ff 	lea    -0x130(%rbp),%rax
    27c6:	48 89 c7             	mov    %rax,%rdi
    27c9:	e8 93 1b 00 00       	call   4361 <_ZSt4moveIRSt10unique_ptrI14ExpressionNodeSt14default_deleteIS1_EEEONSt16remove_referenceIT_E4typeEOS7_>
    27ce:	48 89 c6             	mov    %rax,%rsi
    27d1:	48 8d 85 e8 fe ff ff 	lea    -0x118(%rbp),%rax
    27d8:	48 8d 95 c3 fe ff ff 	lea    -0x13d(%rbp),%rdx
    27df:	48 89 d1             	mov    %rdx,%rcx
    27e2:	48 89 da             	mov    %rbx,%rdx
    27e5:	48 89 c7             	mov    %rax,%rdi
    27e8:	e8 cb 20 00 00       	call   48b8 <_ZSt11make_uniqueI13OperationNodeJSt10unique_ptrI14ExpressionNodeSt14default_deleteIS2_EES5_RcEENSt8__detail9_MakeUniqIT_E15__single_objectEDpOT0_>
    27ed:	48 8d 95 e8 fe ff ff 	lea    -0x118(%rbp),%rdx
    27f4:	48 8d 85 d0 fe ff ff 	lea    -0x130(%rbp),%rax
    27fb:	48 89 d6             	mov    %rdx,%rsi
    27fe:	48 89 c7             	mov    %rax,%rdi
    2801:	e8 02 22 00 00       	call   4a08 <_ZNSt10unique_ptrI14ExpressionNodeSt14default_deleteIS0_EEaSI13OperationNodeS1_IS5_EEENSt9enable_ifIXsrSt6__and_IJS8_IJSt14is_convertibleINS_IT_T0_E7pointerEPS0_ESt6__not_ISt8is_arrayISA_EEEESt13is_assignableIRS2_OSB_EEE5valueERS3_E4typeEOSC_>
    2806:	48 8d 85 e8 fe ff ff 	lea    -0x118(%rbp),%rax
    280d:	48 89 c7             	mov    %rax,%rdi
    2810:	e8 8b 21 00 00       	call   49a0 <_ZNSt10unique_ptrI13OperationNodeSt14default_deleteIS0_EED1Ev>
    2815:	48 8d 85 e0 fe ff ff 	lea    -0x120(%rbp),%rax
    281c:	48 89 c7             	mov    %rax,%rdi
    281f:	e8 fc 1b 00 00       	call   4420 <_ZNSt10unique_ptrI14ExpressionNodeSt14default_deleteIS0_EED1Ev>
    2824:	48 8d 45 a0          	lea    -0x60(%rbp),%rax
    2828:	48 89 c7             	mov    %rax,%rdi
    282b:	e8 2c 0b 00 00       	call   335c <_ZN6bipoloD1Ev>
    2830:	83 ad cc fe ff ff 01 	subl   $0x1,-0x134(%rbp)
    2837:	83 bd cc fe ff ff 00 	cmpl   $0x0,-0x134(%rbp)
    283e:	0f 8f d8 fc ff ff    	jg     251c <_Z19buildExpressionTreei+0x73>
    2844:	48 8d 85 30 ff ff ff 	lea    -0xd0(%rbp),%rax
    284b:	48 89 c7             	mov    %rax,%rdi
    284e:	e8 43 22 00 00       	call   4a96 <_ZNKSt3setIiSt4lessIiESaIiEE4sizeEv>
    2853:	48 89 85 e8 fe ff ff 	mov    %rax,-0x118(%rbp)
    285a:	48 8d 85 d8 fe ff ff 	lea    -0x128(%rbp),%rax
    2861:	48 8d 95 e8 fe ff ff 	lea    -0x118(%rbp),%rdx
    2868:	48 89 d6             	mov    %rdx,%rsi
    286b:	48 89 c7             	mov    %rax,%rdi
    286e:	e8 41 22 00 00       	call   4ab4 <_ZSt11make_uniqueI8CircuitoJmEENSt8__detail9_MakeUniqIT_E15__single_objectEDpOT0_>
    2873:	48 8d 85 00 ff ff ff 	lea    -0x100(%rbp),%rax
    287a:	48 89 85 f0 fe ff ff 	mov    %rax,-0x110(%rbp)
    2881:	48 8b 85 f0 fe ff ff 	mov    -0x110(%rbp),%rax
    2888:	48 89 c7             	mov    %rax,%rdi
    288b:	e8 e0 22 00 00       	call   4b70 <_ZNKSt3setI6bipoloSt4lessIS0_ESaIS0_EE5beginEv>
    2890:	48 89 85 e0 fe ff ff 	mov    %rax,-0x120(%rbp)
    2897:	48 8b 85 f0 fe ff ff 	mov    -0x110(%rbp),%rax
    289e:	48 89 c7             	mov    %rax,%rdi
    28a1:	e8 e8 22 00 00       	call   4b8e <_ZNKSt3setI6bipoloSt4lessIS0_ESaIS0_EE3endEv>
    28a6:	48 89 85 e8 fe ff ff 	mov    %rax,-0x118(%rbp)
    28ad:	eb 68                	jmp    2917 <_Z19buildExpressionTreei+0x46e>
    28af:	48 8d 85 e0 fe ff ff 	lea    -0x120(%rbp),%rax
    28b6:	48 89 c7             	mov    %rax,%rdi
    28b9:	e8 40 23 00 00       	call   4bfe <_ZNKSt23_Rb_tree_const_iteratorI6bipoloEdeEv>
    28be:	48 89 85 f8 fe ff ff 	mov    %rax,-0x108(%rbp)
    28c5:	48 8d 85 d8 fe ff ff 	lea    -0x128(%rbp),%rax
    28cc:	48 89 c7             	mov    %rax,%rdi
    28cf:	e8 4c 23 00 00       	call   4c20 <_ZNKSt10unique_ptrI8CircuitoSt14default_deleteIS0_EEptEv>
    28d4:	48 89 c3             	mov    %rax,%rbx
    28d7:	48 8b 95 f8 fe ff ff 	mov    -0x108(%rbp),%rdx
    28de:	48 8d 45 a0          	lea    -0x60(%rbp),%rax
    28e2:	48 89 d6             	mov    %rdx,%rsi
    28e5:	48 89 c7             	mov    %rax,%rdi
    28e8:	e8 f5 09 00 00       	call   32e2 <_ZN6bipoloC1ERKS_>
    28ed:	48 8d 45 a0          	lea    -0x60(%rbp),%rax
    28f1:	48 89 c6             	mov    %rax,%rsi
    28f4:	48 89 df             	mov    %rbx,%rdi
    28f7:	e8 50 09 00 00       	call   324c <_ZN8Circuito14aggiungiBipoloE6bipolo>
    28fc:	48 8d 45 a0          	lea    -0x60(%rbp),%rax
    2900:	48 89 c7             	mov    %rax,%rdi
    2903:	e8 54 0a 00 00       	call   335c <_ZN6bipoloD1Ev>
    2908:	48 8d 85 e0 fe ff ff 	lea    -0x120(%rbp),%rax
    290f:	48 89 c7             	mov    %rax,%rdi
    2912:	e8 bb 22 00 00       	call   4bd2 <_ZNSt23_Rb_tree_const_iteratorI6bipoloEppEv>
    2917:	48 8d 95 e8 fe ff ff 	lea    -0x118(%rbp),%rdx
    291e:	48 8d 85 e0 fe ff ff 	lea    -0x120(%rbp),%rax
    2925:	48 89 d6             	mov    %rdx,%rsi
    2928:	48 89 c7             	mov    %rax,%rdi
    292b:	e8 7c 22 00 00       	call   4bac <_ZStneRKSt23_Rb_tree_const_iteratorI6bipoloES3_>
    2930:	84 c0                	test   %al,%al
    2932:	0f 85 77 ff ff ff    	jne    28af <_Z19buildExpressionTreei+0x406>
    2938:	48 8d 85 d8 fe ff ff 	lea    -0x128(%rbp),%rax
    293f:	48 89 c7             	mov    %rax,%rdi
    2942:	e8 f7 22 00 00       	call   4c3e <_ZSt4moveIRSt10unique_ptrI8CircuitoSt14default_deleteIS1_EEEONSt16remove_referenceIT_E4typeEOS7_>
    2947:	48 89 c3             	mov    %rax,%rbx
    294a:	48 8d 85 d0 fe ff ff 	lea    -0x130(%rbp),%rax
    2951:	48 89 c7             	mov    %rax,%rdi
    2954:	e8 08 1a 00 00       	call   4361 <_ZSt4moveIRSt10unique_ptrI14ExpressionNodeSt14default_deleteIS1_EEEONSt16remove_referenceIT_E4typeEOS7_>
    2959:	48 89 c1             	mov    %rax,%rcx
    295c:	48 8b 85 b8 fe ff ff 	mov    -0x148(%rbp),%rax
    2963:	48 89 da             	mov    %rbx,%rdx
    2966:	48 89 ce             	mov    %rcx,%rsi
    2969:	48 89 c7             	mov    %rax,%rdi
    296c:	e8 df 22 00 00       	call   4c50 <_ZSt9make_pairISt10unique_ptrI14ExpressionNodeSt14default_deleteIS1_EES0_I8CircuitoS2_IS5_EEESt4pairINSt25__strip_reference_wrapperINSt5decayIT_E4typeEE6__typeENS9_INSA_IT0_E4typeEE6__typeEEOSB_OSG_>
    2971:	90                   	nop
    2972:	48 8d 85 d8 fe ff ff 	lea    -0x128(%rbp),%rax
    2979:	48 89 c7             	mov    %rax,%rdi
    297c:	e8 87 21 00 00       	call   4b08 <_ZNSt10unique_ptrI8CircuitoSt14default_deleteIS0_EED1Ev>
    2981:	48 8d 85 30 ff ff ff 	lea    -0xd0(%rbp),%rax
    2988:	48 89 c7             	mov    %rax,%rdi
    298b:	e8 ee 0c 00 00       	call   367e <_ZNSt3setIiSt4lessIiESaIiEED1Ev>
    2990:	48 8d 85 00 ff ff ff 	lea    -0x100(%rbp),%rax
    2997:	48 89 c7             	mov    %rax,%rdi
    299a:	e8 57 0c 00 00       	call   35f6 <_ZNSt3setI6bipoloSt4lessIS0_ESaIS0_EED1Ev>
    299f:	48 8d 85 d0 fe ff ff 	lea    -0x130(%rbp),%rax
    29a6:	48 89 c7             	mov    %rax,%rdi
    29a9:	e8 72 1a 00 00       	call   4420 <_ZNSt10unique_ptrI14ExpressionNodeSt14default_deleteIS0_EED1Ev>
    29ae:	90                   	nop
    29af:	48 8b 45 d8          	mov    -0x28(%rbp),%rax
    29b3:	64 48 2b 04 25 28 00 	sub    %fs:0x28,%rax
    29ba:	00 00 
    29bc:	0f 84 e4 00 00 00    	je     2aa6 <_Z19buildExpressionTreei+0x5fd>
    29c2:	e9 da 00 00 00       	jmp    2aa1 <_Z19buildExpressionTreei+0x5f8>
    29c7:	f3 0f 1e fa          	endbr64
    29cb:	48 89 c3             	mov    %rax,%rbx
    29ce:	48 8d 45 80          	lea    -0x80(%rbp),%rax
    29d2:	48 89 c7             	mov    %rax,%rdi
    29d5:	e8 b6 f8 ff ff       	call   2290 <_ZNSt7__cxx1112basic_stringIcSt11char_traitsIcESaIcEED1Ev@plt>
    29da:	eb 07                	jmp    29e3 <_Z19buildExpressionTreei+0x53a>
    29dc:	f3 0f 1e fa          	endbr64
    29e0:	48 89 c3             	mov    %rax,%rbx
    29e3:	48 8d 85 60 ff ff ff 	lea    -0xa0(%rbp),%rax
    29ea:	48 89 c7             	mov    %rax,%rdi
    29ed:	e8 9e f8 ff ff       	call   2290 <_ZNSt7__cxx1112basic_stringIcSt11char_traitsIcESaIcEED1Ev@plt>
    29f2:	eb 61                	jmp    2a55 <_Z19buildExpressionTreei+0x5ac>
    29f4:	f3 0f 1e fa          	endbr64
    29f8:	48 89 c3             	mov    %rax,%rbx
    29fb:	48 8d 85 e0 fe ff ff 	lea    -0x120(%rbp),%rax
    2a02:	48 89 c7             	mov    %rax,%rdi
    2a05:	e8 16 1a 00 00       	call   4420 <_ZNSt10unique_ptrI14ExpressionNodeSt14default_deleteIS0_EED1Ev>
    2a0a:	eb 07                	jmp    2a13 <_Z19buildExpressionTreei+0x56a>
    2a0c:	f3 0f 1e fa          	endbr64
    2a10:	48 89 c3             	mov    %rax,%rbx
    2a13:	48 8d 45 a0          	lea    -0x60(%rbp),%rax
    2a17:	48 89 c7             	mov    %rax,%rdi
    2a1a:	e8 3d 09 00 00       	call   335c <_ZN6bipoloD1Ev>
    2a1f:	eb 34                	jmp    2a55 <_Z19buildExpressionTreei+0x5ac>
    2a21:	f3 0f 1e fa          	endbr64
    2a25:	48 89 c3             	mov    %rax,%rbx
    2a28:	48 8d 45 a0          	lea    -0x60(%rbp),%rax
    2a2c:	48 89 c7             	mov    %rax,%rdi
    2a2f:	e8 28 09 00 00       	call   335c <_ZN6bipoloD1Ev>
    2a34:	eb 07                	jmp    2a3d <_Z19buildExpressionTreei+0x594>
    2a36:	f3 0f 1e fa          	endbr64
    2a3a:	48 89 c3             	mov    %rax,%rbx
    2a3d:	48 8d 85 d8 fe ff ff 	lea    -0x128(%rbp),%rax
    2a44:	48 89 c7             	mov    %rax,%rdi
    2a47:	e8 bc 20 00 00       	call   4b08 <_ZNSt10unique_ptrI8CircuitoSt14default_deleteIS0_EED1Ev>
    2a4c:	eb 07                	jmp    2a55 <_Z19buildExpressionTreei+0x5ac>
    2a4e:	f3 0f 1e fa          	endbr64
    2a52:	48 89 c3             	mov    %rax,%rbx
    2a55:	48 8d 85 30 ff ff ff 	lea    -0xd0(%rbp),%rax
    2a5c:	48 89 c7             	mov    %rax,%rdi
    2a5f:	e8 1a 0c 00 00       	call   367e <_ZNSt3setIiSt4lessIiESaIiEED1Ev>
    2a64:	48 8d 85 00 ff ff ff 	lea    -0x100(%rbp),%rax
    2a6b:	48 89 c7             	mov    %rax,%rdi
    2a6e:	e8 83 0b 00 00       	call   35f6 <_ZNSt3setI6bipoloSt4lessIS0_ESaIS0_EED1Ev>
    2a73:	48 8d 85 d0 fe ff ff 	lea    -0x130(%rbp),%rax
    2a7a:	48 89 c7             	mov    %rax,%rdi
    2a7d:	e8 9e 19 00 00       	call   4420 <_ZNSt10unique_ptrI14ExpressionNodeSt14default_deleteIS0_EED1Ev>
    2a82:	48 89 d8             	mov    %rbx,%rax
    2a85:	48 8b 55 d8          	mov    -0x28(%rbp),%rdx
    2a89:	64 48 2b 14 25 28 00 	sub    %fs:0x28,%rdx
    2a90:	00 00 
    2a92:	74 05                	je     2a99 <_Z19buildExpressionTreei+0x5f0>
    2a94:	e8 97 f8 ff ff       	call   2330 <__stack_chk_fail@plt>
    2a99:	48 89 c7             	mov    %rax,%rdi
    2a9c:	e8 ff f8 ff ff       	call   23a0 <_Unwind_Resume@plt>
    2aa1:	e8 8a f8 ff ff       	call   2330 <__stack_chk_fail@plt>
    2aa6:	48 8b 85 b8 fe ff ff 	mov    -0x148(%rbp),%rax
    2aad:	48 81 c4 38 01 00 00 	add    $0x138,%rsp
    2ab4:	5b                   	pop    %rbx
    2ab5:	41 5c                	pop    %r12
    2ab7:	41 5d                	pop    %r13
    2ab9:	5d                   	pop    %rbp
    2aba:	c3                   	ret

0000000000002abb <main>:
    2abb:	f3 0f 1e fa          	endbr64
    2abf:	55                   	push   %rbp
    2ac0:	48 89 e5             	mov    %rsp,%rbp
    2ac3:	41 55                	push   %r13
    2ac5:	41 54                	push   %r12
    2ac7:	53                   	push   %rbx
    2ac8:	48 81 ec b8 00 00 00 	sub    $0xb8,%rsp
    2acf:	64 48 8b 04 25 28 00 	mov    %fs:0x28,%rax
    2ad6:	00 00 
    2ad8:	48 89 45 d8          	mov    %rax,-0x28(%rbp)
    2adc:	31 c0                	xor    %eax,%eax
    2ade:	48 8d 05 53 66 00 00 	lea    0x6653(%rip),%rax        # 9138 <_ZN5Eigen8internalL18defaultL3CacheSizeE+0xd0>
    2ae5:	48 89 c6             	mov    %rax,%rsi
    2ae8:	48 8d 05 51 b5 00 00 	lea    0xb551(%rip),%rax        # e040 <_ZSt4cout@GLIBCXX_3.4>
    2aef:	48 89 c7             	mov    %rax,%rdi
    2af2:	e8 d9 f7 ff ff       	call   22d0 <_ZStlsISt11char_traitsIcEERSt13basic_ostreamIcT_ES5_PKc@plt>
    2af7:	48 8d 85 38 ff ff ff 	lea    -0xc8(%rbp),%rax
    2afe:	48 89 c6             	mov    %rax,%rsi
    2b01:	48 8d 05 58 b6 00 00 	lea    0xb658(%rip),%rax        # e160 <_ZSt3cin@GLIBCXX_3.4>
    2b08:	48 89 c7             	mov    %rax,%rdi
    2b0b:	e8 70 f7 ff ff       	call   2280 <_ZNSirsERi@plt>
    2b10:	48 8d 05 51 66 00 00 	lea    0x6651(%rip),%rax        # 9168 <_ZN5Eigen8internalL18defaultL3CacheSizeE+0x100>
    2b17:	48 89 c6             	mov    %rax,%rsi
    2b1a:	48 8d 05 1f b5 00 00 	lea    0xb51f(%rip),%rax        # e040 <_ZSt4cout@GLIBCXX_3.4>
    2b21:	48 89 c7             	mov    %rax,%rdi
    2b24:	e8 a7 f7 ff ff       	call   22d0 <_ZStlsISt11char_traitsIcEERSt13basic_ostreamIcT_ES5_PKc@plt>
    2b29:	48 8d 85 3c ff ff ff 	lea    -0xc4(%rbp),%rax
    2b30:	48 89 c6             	mov    %rax,%rsi
    2b33:	48 8d 05 26 b6 00 00 	lea    0xb626(%rip),%rax        # e160 <_ZSt3cin@GLIBCXX_3.4>
    2b3a:	48 89 c7             	mov    %rax,%rdi
    2b3d:	e8 3e f7 ff ff       	call   2280 <_ZNSirsERi@plt>
    2b42:	48 c7 85 58 ff ff ff 	movq   $0x0,-0xa8(%rbp)
    2b49:	00 00 00 00 
    2b4d:	8b 95 38 ff ff ff    	mov    -0xc8(%rbp),%edx
    2b53:	48 8d 85 70 ff ff ff 	lea    -0x90(%rbp),%rax
    2b5a:	89 d6                	mov    %edx,%esi
    2b5c:	48 89 c7             	mov    %rax,%rdi
    2b5f:	e8 64 06 00 00       	call   31c8 <_ZN8CircuitoC1Ei>
    2b64:	8b 95 3c ff ff ff    	mov    -0xc4(%rbp),%edx
    2b6a:	48 8d 85 60 ff ff ff 	lea    -0xa0(%rbp),%rax
    2b71:	89 d6                	mov    %edx,%esi
    2b73:	48 89 c7             	mov    %rax,%rdi
    2b76:	e8 2e f9 ff ff       	call   24a9 <_Z19buildExpressionTreei>
    2b7b:	48 8d 85 60 ff ff ff 	lea    -0xa0(%rbp),%rax
    2b82:	48 89 c7             	mov    %rax,%rdi
    2b85:	e8 d7 17 00 00       	call   4361 <_ZSt4moveIRSt10unique_ptrI14ExpressionNodeSt14default_deleteIS1_EEEONSt16remove_referenceIT_E4typeEOS7_>
    2b8a:	48 89 c2             	mov    %rax,%rdx
    2b8d:	48 8d 85 58 ff ff ff 	lea    -0xa8(%rbp),%rax
    2b94:	48 89 d6             	mov    %rdx,%rsi
    2b97:	48 89 c7             	mov    %rax,%rdi
    2b9a:	e8 2d 0b 00 00       	call   36cc <_ZNSt10unique_ptrI14ExpressionNodeSt14default_deleteIS0_EEaSEOS3_>
    2b9f:	48 8d 05 e2 65 00 00 	lea    0x65e2(%rip),%rax        # 9188 <_ZN5Eigen8internalL18defaultL3CacheSizeE+0x120>
    2ba6:	48 89 c6             	mov    %rax,%rsi
    2ba9:	48 8d 05 90 b4 00 00 	lea    0xb490(%rip),%rax        # e040 <_ZSt4cout@GLIBCXX_3.4>
    2bb0:	48 89 c7             	mov    %rax,%rdi
    2bb3:	e8 18 f7 ff ff       	call   22d0 <_ZStlsISt11char_traitsIcEERSt13basic_ostreamIcT_ES5_PKc@plt>
    2bb8:	48 8d 85 40 ff ff ff 	lea    -0xc0(%rbp),%rax
    2bbf:	48 89 c6             	mov    %rax,%rsi
    2bc2:	48 8d 05 97 b5 00 00 	lea    0xb597(%rip),%rax        # e160 <_ZSt3cin@GLIBCXX_3.4>
    2bc9:	48 89 c7             	mov    %rax,%rdi
    2bcc:	e8 af f6 ff ff       	call   2280 <_ZNSirsERi@plt>
    2bd1:	8b 85 40 ff ff ff    	mov    -0xc0(%rbp),%eax
    2bd7:	89 85 50 ff ff ff    	mov    %eax,-0xb0(%rbp)
    2bdd:	e9 33 01 00 00       	jmp    2d15 <main+0x25a>
    2be2:	48 8d 05 c7 65 00 00 	lea    0x65c7(%rip),%rax        # 91b0 <_ZN5Eigen8internalL18defaultL3CacheSizeE+0x148>
    2be9:	48 89 c6             	mov    %rax,%rsi
    2bec:	48 8d 05 4d b4 00 00 	lea    0xb44d(%rip),%rax        # e040 <_ZSt4cout@GLIBCXX_3.4>
    2bf3:	48 89 c7             	mov    %rax,%rdi
    2bf6:	e8 d5 f6 ff ff       	call   22d0 <_ZStlsISt11char_traitsIcEERSt13basic_ostreamIcT_ES5_PKc@plt>
    2bfb:	48 89 c2             	mov    %rax,%rdx
    2bfe:	8b 85 50 ff ff ff    	mov    -0xb0(%rbp),%eax
    2c04:	89 c6                	mov    %eax,%esi
    2c06:	48 89 d7             	mov    %rdx,%rdi
    2c09:	e8 82 f7 ff ff       	call   2390 <_ZNSolsEi@plt>
    2c0e:	48 89 c2             	mov    %rax,%rdx
    2c11:	48 8d 05 77 64 00 00 	lea    0x6477(%rip),%rax        # 908f <_ZN5Eigen8internalL18defaultL3CacheSizeE+0x27>
    2c18:	48 89 c6             	mov    %rax,%rsi
    2c1b:	48 89 d7             	mov    %rdx,%rdi
    2c1e:	e8 ad f6 ff ff       	call   22d0 <_ZStlsISt11char_traitsIcEERSt13basic_ostreamIcT_ES5_PKc@plt>
    2c23:	48 8d 85 44 ff ff ff 	lea    -0xbc(%rbp),%rax
    2c2a:	48 89 c6             	mov    %rax,%rsi
    2c2d:	48 8d 05 2c b5 00 00 	lea    0xb52c(%rip),%rax        # e160 <_ZSt3cin@GLIBCXX_3.4>
    2c34:	48 89 c7             	mov    %rax,%rdi
    2c37:	e8 d4 f5 ff ff       	call   2210 <_ZNSirsERf@plt>
    2c3c:	48 8d 05 9d 65 00 00 	lea    0x659d(%rip),%rax        # 91e0 <_ZN5Eigen8internalL18defaultL3CacheSizeE+0x178>
    2c43:	48 89 c6             	mov    %rax,%rsi
    2c46:	48 8d 05 f3 b3 00 00 	lea    0xb3f3(%rip),%rax        # e040 <_ZSt4cout@GLIBCXX_3.4>
    2c4d:	48 89 c7             	mov    %rax,%rdi
    2c50:	e8 7b f6 ff ff       	call   22d0 <_ZStlsISt11char_traitsIcEERSt13basic_ostreamIcT_ES5_PKc@plt>
    2c55:	48 8d 85 48 ff ff ff 	lea    -0xb8(%rbp),%rax
    2c5c:	48 89 c6             	mov    %rax,%rsi
    2c5f:	48 8d 05 fa b4 00 00 	lea    0xb4fa(%rip),%rax        # e160 <_ZSt3cin@GLIBCXX_3.4>
    2c66:	48 89 c7             	mov    %rax,%rdi
    2c69:	e8 12 f6 ff ff       	call   2280 <_ZNSirsERi@plt>
    2c6e:	48 89 c2             	mov    %rax,%rdx
    2c71:	48 8d 85 4c ff ff ff 	lea    -0xb4(%rbp),%rax
    2c78:	48 89 c6             	mov    %rax,%rsi
    2c7b:	48 89 d7             	mov    %rdx,%rdi
    2c7e:	e8 fd f5 ff ff       	call   2280 <_ZNSirsERi@plt>
    2c83:	44 8b ad 4c ff ff ff 	mov    -0xb4(%rbp),%r13d
    2c8a:	44 8b a5 48 ff ff ff 	mov    -0xb8(%rbp),%r12d
    2c91:	8b 9d 44 ff ff ff    	mov    -0xbc(%rbp),%ebx
    2c97:	48 8d 45 90          	lea    -0x70(%rbp),%rax
    2c9b:	8b 95 50 ff ff ff    	mov    -0xb0(%rbp),%edx
    2ca1:	89 d6                	mov    %edx,%esi
    2ca3:	48 89 c7             	mov    %rax,%rdi
    2ca6:	e8 a8 02 00 00       	call   2f53 <_ZNSt7__cxx119to_stringEi>
    2cab:	48 8d 45 b0          	lea    -0x50(%rbp),%rax
    2caf:	48 8d 55 90          	lea    -0x70(%rbp),%rdx
    2cb3:	48 8d 0d 56 65 00 00 	lea    0x6556(%rip),%rcx        # 9210 <_ZN5Eigen8internalL18defaultL3CacheSizeE+0x1a8>
    2cba:	48 89 ce             	mov    %rcx,%rsi
    2cbd:	48 89 c7             	mov    %rax,%rdi
    2cc0:	e8 7e 0f 00 00       	call   3c43 <_ZStplIcSt11char_traitsIcESaIcEENSt7__cxx1112basic_stringIT_T0_T1_EEPKS5_OS8_>
    2cc5:	8b 95 3c ff ff ff    	mov    -0xc4(%rbp),%edx
    2ccb:	8b 85 50 ff ff ff    	mov    -0xb0(%rbp),%eax
    2cd1:	8d 34 02             	lea    (%rdx,%rax,1),%esi
    2cd4:	48 8d 55 b0          	lea    -0x50(%rbp),%rdx
    2cd8:	48 8d 85 70 ff ff ff 	lea    -0x90(%rbp),%rax
    2cdf:	45 89 e9             	mov    %r13d,%r9d
    2ce2:	45 89 e0             	mov    %r12d,%r8d
    2ce5:	66 0f 6e c3          	movd   %ebx,%xmm0
    2ce9:	b9 02 00 00 00       	mov    $0x2,%ecx
    2cee:	48 89 c7             	mov    %rax,%rdi
    2cf1:	e8 fe 04 00 00       	call   31f4 <_ZN8Circuito14aggiungiBipoloEiRKNSt7__cxx1112basic_stringIcSt11char_traitsIcESaIcEEE4Tipofii>
    2cf6:	48 8d 45 b0          	lea    -0x50(%rbp),%rax
    2cfa:	48 89 c7             	mov    %rax,%rdi
    2cfd:	e8 8e f5 ff ff       	call   2290 <_ZNSt7__cxx1112basic_stringIcSt11char_traitsIcESaIcEED1Ev@plt>
    2d02:	48 8d 45 90          	lea    -0x70(%rbp),%rax
    2d06:	48 89 c7             	mov    %rax,%rdi
    2d09:	e8 82 f5 ff ff       	call   2290 <_ZNSt7__cxx1112basic_stringIcSt11char_traitsIcESaIcEED1Ev@plt>
    2d0e:	83 ad 50 ff ff ff 01 	subl   $0x1,-0xb0(%rbp)
    2d15:	83 bd 50 ff ff ff 00 	cmpl   $0x0,-0xb0(%rbp)
    2d1c:	0f 8f c0 fe ff ff    	jg     2be2 <main+0x127>
    2d22:	48 8d 85 58 ff ff ff 	lea    -0xa8(%rbp),%rax
    2d29:	be 00 00 00 00       	mov    $0x0,%esi
    2d2e:	48 89 c7             	mov    %rax,%rdi
    2d31:	e8 6d 1f 00 00       	call   4ca3 <_ZStneI14ExpressionNodeSt14default_deleteIS0_EEbRKSt10unique_ptrIT_T0_EDn>
    2d36:	84 c0                	test   %al,%al
    2d38:	74 7b                	je     2db5 <main+0x2fa>
    2d3a:	48 8d 85 58 ff ff ff 	lea    -0xa8(%rbp),%rax
    2d41:	48 89 c7             	mov    %rax,%rdi
    2d44:	e8 3f 17 00 00       	call   4488 <_ZNKSt10unique_ptrI14ExpressionNodeSt14default_deleteIS0_EEptEv>
    2d49:	48 8b 10             	mov    (%rax),%rdx
    2d4c:	48 8b 12             	mov    (%rdx),%rdx
    2d4f:	48 89 c7             	mov    %rax,%rdi
    2d52:	ff d2                	call   *%rdx
    2d54:	66 0f 7e c0          	movd   %xmm0,%eax
    2d58:	89 85 54 ff ff ff    	mov    %eax,-0xac(%rbp)
    2d5e:	48 8d 05 bb 64 00 00 	lea    0x64bb(%rip),%rax        # 9220 <_ZN5Eigen8internalL18defaultL3CacheSizeE+0x1b8>
    2d65:	48 89 c6             	mov    %rax,%rsi
    2d68:	48 8d 05 d1 b2 00 00 	lea    0xb2d1(%rip),%rax        # e040 <_ZSt4cout@GLIBCXX_3.4>
    2d6f:	48 89 c7             	mov    %rax,%rdi
    2d72:	e8 59 f5 ff ff       	call   22d0 <_ZStlsISt11char_traitsIcEERSt13basic_ostreamIcT_ES5_PKc@plt>
    2d77:	48 89 c2             	mov    %rax,%rdx
    2d7a:	8b 85 54 ff ff ff    	mov    -0xac(%rbp),%eax
    2d80:	66 0f 6e c0          	movd   %eax,%xmm0
    2d84:	48 89 d7             	mov    %rdx,%rdi
    2d87:	e8 14 f5 ff ff       	call   22a0 <_ZNSolsEf@plt>
    2d8c:	48 89 c2             	mov    %rax,%rdx
    2d8f:	48 8d 05 be 64 00 00 	lea    0x64be(%rip),%rax        # 9254 <_ZN5Eigen8internalL18defaultL3CacheSizeE+0x1ec>
    2d96:	48 89 c6             	mov    %rax,%rsi
    2d99:	48 89 d7             	mov    %rdx,%rdi
    2d9c:	e8 2f f5 ff ff       	call   22d0 <_ZStlsISt11char_traitsIcEERSt13basic_ostreamIcT_ES5_PKc@plt>
    2da1:	48 8b 15 30 b2 00 00 	mov    0xb230(%rip),%rdx        # dfd8 <_ZSt4endlIcSt11char_traitsIcEERSt13basic_ostreamIT_T0_ES6_@GLIBCXX_3.4>
    2da8:	48 89 d6             	mov    %rdx,%rsi
    2dab:	48 89 c7             	mov    %rax,%rdi
    2dae:	e8 5d f5 ff ff       	call   2310 <_ZNSolsEPFRSoS_E@plt>
    2db3:	eb 2b                	jmp    2de0 <main+0x325>
    2db5:	48 8d 05 a4 64 00 00 	lea    0x64a4(%rip),%rax        # 9260 <_ZN5Eigen8internalL18defaultL3CacheSizeE+0x1f8>
    2dbc:	48 89 c6             	mov    %rax,%rsi
    2dbf:	48 8d 05 7a b2 00 00 	lea    0xb27a(%rip),%rax        # e040 <_ZSt4cout@GLIBCXX_3.4>
    2dc6:	48 89 c7             	mov    %rax,%rdi
    2dc9:	e8 02 f5 ff ff       	call   22d0 <_ZStlsISt11char_traitsIcEERSt13basic_ostreamIcT_ES5_PKc@plt>
    2dce:	48 8b 15 03 b2 00 00 	mov    0xb203(%rip),%rdx        # dfd8 <_ZSt4endlIcSt11char_traitsIcEERSt13basic_ostreamIT_T0_ES6_@GLIBCXX_3.4>
    2dd5:	48 89 d6             	mov    %rdx,%rsi
    2dd8:	48 89 c7             	mov    %rax,%rdi
    2ddb:	e8 30 f5 ff ff       	call   2310 <_ZNSolsEPFRSoS_E@plt>
    2de0:	bb 00 00 00 00       	mov    $0x0,%ebx
    2de5:	48 8d 85 60 ff ff ff 	lea    -0xa0(%rbp),%rax
    2dec:	48 89 c7             	mov    %rax,%rdi
    2def:	e8 06 09 00 00       	call   36fa <_ZNSt4pairISt10unique_ptrI14ExpressionNodeSt14default_deleteIS1_EES0_I8CircuitoS2_IS5_EEED1Ev>
    2df4:	48 8d 85 70 ff ff ff 	lea    -0x90(%rbp),%rax
    2dfb:	48 89 c7             	mov    %rax,%rdi
    2dfe:	e8 fd 09 00 00       	call   3800 <_ZN8CircuitoD1Ev>
    2e03:	48 8d 85 58 ff ff ff 	lea    -0xa8(%rbp),%rax
    2e0a:	48 89 c7             	mov    %rax,%rdi
    2e0d:	e8 0e 16 00 00       	call   4420 <_ZNSt10unique_ptrI14ExpressionNodeSt14default_deleteIS0_EED1Ev>
    2e12:	89 d8                	mov    %ebx,%eax
    2e14:	48 8b 55 d8          	mov    -0x28(%rbp),%rdx
    2e18:	64 48 2b 14 25 28 00 	sub    %fs:0x28,%rdx
    2e1f:	00 00 
    2e21:	0f 84 90 00 00 00    	je     2eb7 <main+0x3fc>
    2e27:	e9 86 00 00 00       	jmp    2eb2 <main+0x3f7>
    2e2c:	f3 0f 1e fa          	endbr64
    2e30:	48 89 c3             	mov    %rax,%rbx
    2e33:	48 8d 45 b0          	lea    -0x50(%rbp),%rax
    2e37:	48 89 c7             	mov    %rax,%rdi
    2e3a:	e8 51 f4 ff ff       	call   2290 <_ZNSt7__cxx1112basic_stringIcSt11char_traitsIcESaIcEED1Ev@plt>
    2e3f:	eb 07                	jmp    2e48 <main+0x38d>
    2e41:	f3 0f 1e fa          	endbr64
    2e45:	48 89 c3             	mov    %rax,%rbx
    2e48:	48 8d 45 90          	lea    -0x70(%rbp),%rax
    2e4c:	48 89 c7             	mov    %rax,%rdi
    2e4f:	e8 3c f4 ff ff       	call   2290 <_ZNSt7__cxx1112basic_stringIcSt11char_traitsIcESaIcEED1Ev@plt>
    2e54:	eb 07                	jmp    2e5d <main+0x3a2>
    2e56:	f3 0f 1e fa          	endbr64
    2e5a:	48 89 c3             	mov    %rax,%rbx
    2e5d:	48 8d 85 60 ff ff ff 	lea    -0xa0(%rbp),%rax
    2e64:	48 89 c7             	mov    %rax,%rdi
    2e67:	e8 8e 08 00 00       	call   36fa <_ZNSt4pairISt10unique_ptrI14ExpressionNodeSt14default_deleteIS1_EES0_I8CircuitoS2_IS5_EEED1Ev>
    2e6c:	eb 07                	jmp    2e75 <main+0x3ba>
    2e6e:	f3 0f 1e fa          	endbr64
    2e72:	48 89 c3             	mov    %rax,%rbx
    2e75:	48 8d 85 70 ff ff ff 	lea    -0x90(%rbp),%rax
    2e7c:	48 89 c7             	mov    %rax,%rdi
    2e7f:	e8 7c 09 00 00       	call   3800 <_ZN8CircuitoD1Ev>
    2e84:	48 8d 85 58 ff ff ff 	lea    -0xa8(%rbp),%rax
    2e8b:	48 89 c7             	mov    %rax,%rdi
    2e8e:	e8 8d 15 00 00       	call   4420 <_ZNSt10unique_ptrI14ExpressionNodeSt14default_deleteIS0_EED1Ev>
    2e93:	48 89 d8             	mov    %rbx,%rax
    2e96:	48 8b 55 d8          	mov    -0x28(%rbp),%rdx
    2e9a:	64 48 2b 14 25 28 00 	sub    %fs:0x28,%rdx
    2ea1:	00 00 
    2ea3:	74 05                	je     2eaa <main+0x3ef>
    2ea5:	e8 86 f4 ff ff       	call   2330 <__stack_chk_fail@plt>
    2eaa:	48 89 c7             	mov    %rax,%rdi
    2ead:	e8 ee f4 ff ff       	call   23a0 <_Unwind_Resume@plt>
    2eb2:	e8 79 f4 ff ff       	call   2330 <__stack_chk_fail@plt>
    2eb7:	48 81 c4 b8 00 00 00 	add    $0xb8,%rsp
    2ebe:	5b                   	pop    %rbx
    2ebf:	41 5c                	pop    %r12
    2ec1:	41 5d                	pop    %r13
    2ec3:	5d                   	pop    %rbp
    2ec4:	c3                   	ret

0000000000002ec5 <_Z41__static_initialization_and_destruction_0v>:
    2ec5:	f3 0f 1e fa          	endbr64
    2ec9:	55                   	push   %rbp
    2eca:	48 89 e5             	mov    %rsp,%rbp
    2ecd:	48 8d 05 a5 b3 00 00 	lea    0xb3a5(%rip),%rax        # e279 <_ZN5EigenL4lastE>
    2ed4:	48 89 c7             	mov    %rax,%rdi
    2ed7:	e8 e4 0d 00 00       	call   3cc0 <_ZN5Eigen8symbolic10SymbolExprINS_8internal17symbolic_last_tagEEC1Ev>
    2edc:	48 8d 05 9a b3 00 00 	lea    0xb39a(%rip),%rax        # e27d <_ZN5EigenL3fixILi1EEE>
    2ee3:	48 89 c7             	mov    %rax,%rdi
    2ee6:	e8 e5 0d 00 00       	call   3cd0 <_ZN5Eigen8internal8FixedIntILi1EEC1Ev>
    2eeb:	48 8d 05 8b b3 00 00 	lea    0xb38b(%rip),%rax        # e27d <_ZN5EigenL3fixILi1EEE>
    2ef2:	48 89 c7             	mov    %rax,%rdi
    2ef5:	e8 e6 0d 00 00       	call   3ce0 <_ZNK5Eigen8internal8FixedIntILi1EEclEv>
    2efa:	48 8d 05 78 b3 00 00 	lea    0xb378(%rip),%rax        # e279 <_ZN5EigenL4lastE>
    2f01:	48 89 c7             	mov    %rax,%rdi
    2f04:	e8 e7 0d 00 00       	call   3cf0 <_ZNK5Eigen8symbolic8BaseExprINS0_10SymbolExprINS_8internal17symbolic_last_tagEEEEplILi1EEENS0_7AddExprIS5_NS0_9ValueExprINS3_8FixedIntIXT_EEEEEEESB_>
    2f09:	48 8d 05 6c b3 00 00 	lea    0xb36c(%rip),%rax        # e27c <_ZN5EigenL3allE>
    2f10:	48 89 c7             	mov    %rax,%rdi
    2f13:	e8 9e 01 00 00       	call   30b6 <_ZN5Eigen8internal5all_tC1Ev>
    2f18:	90                   	nop
    2f19:	5d                   	pop    %rbp
    2f1a:	c3                   	ret

0000000000002f1b <_GLOBAL__sub_I__Z19buildExpressionTreei>:
    2f1b:	f3 0f 1e fa          	endbr64
    2f1f:	55                   	push   %rbp
    2f20:	48 89 e5             	mov    %rsp,%rbp
    2f23:	e8 9d ff ff ff       	call   2ec5 <_Z41__static_initialization_and_destruction_0v>
    2f28:	5d                   	pop    %rbp
    2f29:	c3                   	ret

0000000000002f2a <_ZnwmPv>:
    2f2a:	f3 0f 1e fa          	endbr64
    2f2e:	55                   	push   %rbp
    2f2f:	48 89 e5             	mov    %rsp,%rbp
    2f32:	48 89 7d f8          	mov    %rdi,-0x8(%rbp)
    2f36:	48 89 75 f0          	mov    %rsi,-0x10(%rbp)
    2f3a:	48 8b 45 f0          	mov    -0x10(%rbp),%rax
    2f3e:	5d                   	pop    %rbp
    2f3f:	c3                   	ret

0000000000002f40 <_ZdlPvS_>:
    2f40:	f3 0f 1e fa          	endbr64
    2f44:	55                   	push   %rbp
    2f45:	48 89 e5             	mov    %rsp,%rbp
    2f48:	48 89 7d f8          	mov    %rdi,-0x8(%rbp)
    2f4c:	48 89 75 f0          	mov    %rsi,-0x10(%rbp)
    2f50:	90                   	nop
    2f51:	5d                   	pop    %rbp
    2f52:	c3                   	ret

0000000000002f53 <_ZNSt7__cxx119to_stringEi>:
    2f53:	f3 0f 1e fa          	endbr64
    2f57:	55                   	push   %rbp
    2f58:	48 89 e5             	mov    %rsp,%rbp
    2f5b:	48 83 ec 30          	sub    $0x30,%rsp
    2f5f:	48 89 7d d8          	mov    %rdi,-0x28(%rbp)
    2f63:	89 75 d4             	mov    %esi,-0x2c(%rbp)
    2f66:	64 48 8b 04 25 28 00 	mov    %fs:0x28,%rax
    2f6d:	00 00 
    2f6f:	48 89 45 f8          	mov    %rax,-0x8(%rbp)
    2f73:	31 c0                	xor    %eax,%eax
    2f75:	8b 45 d4             	mov    -0x2c(%rbp),%eax
    2f78:	c1 e8 1f             	shr    $0x1f,%eax
    2f7b:	88 45 e7             	mov    %al,-0x19(%rbp)
    2f7e:	80 7d e7 00          	cmpb   $0x0,-0x19(%rbp)
    2f82:	74 07                	je     2f8b <_ZNSt7__cxx119to_stringEi+0x38>
    2f84:	8b 45 d4             	mov    -0x2c(%rbp),%eax
    2f87:	f7 d8                	neg    %eax
    2f89:	eb 03                	jmp    2f8e <_ZNSt7__cxx119to_stringEi+0x3b>
    2f8b:	8b 45 d4             	mov    -0x2c(%rbp),%eax
    2f8e:	89 45 e8             	mov    %eax,-0x18(%rbp)
    2f91:	8b 45 e8             	mov    -0x18(%rbp),%eax
    2f94:	be 0a 00 00 00       	mov    $0xa,%esi
    2f99:	89 c7                	mov    %eax,%edi
    2f9b:	e8 7f 08 00 00       	call   381f <_ZNSt8__detail14__to_chars_lenIjEEjT_i>
    2fa0:	89 45 ec             	mov    %eax,-0x14(%rbp)
    2fa3:	48 8d 45 e6          	lea    -0x1a(%rbp),%rax
    2fa7:	48 89 45 f0          	mov    %rax,-0x10(%rbp)
    2fab:	90                   	nop
    2fac:	90                   	nop
    2fad:	0f b6 55 e7          	movzbl -0x19(%rbp),%edx
    2fb1:	8b 45 ec             	mov    -0x14(%rbp),%eax
    2fb4:	01 d0                	add    %edx,%eax
    2fb6:	89 c6                	mov    %eax,%esi
    2fb8:	48 8d 55 e6          	lea    -0x1a(%rbp),%rdx
    2fbc:	48 8b 45 d8          	mov    -0x28(%rbp),%rax
    2fc0:	48 89 d1             	mov    %rdx,%rcx
    2fc3:	ba 2d 00 00 00       	mov    $0x2d,%edx
    2fc8:	48 89 c7             	mov    %rax,%rdi
    2fcb:	e8 04 09 00 00       	call   38d4 <_ZNSt7__cxx1112basic_stringIcSt11char_traitsIcESaIcEEC1IS3_EEmcRKS3_>
    2fd0:	48 8d 45 e6          	lea    -0x1a(%rbp),%rax
    2fd4:	48 89 c7             	mov    %rax,%rdi
    2fd7:	e8 ea 1c 00 00       	call   4cc6 <_ZNSt15__new_allocatorIcED1Ev>
    2fdc:	90                   	nop
    2fdd:	0f b6 55 e7          	movzbl -0x19(%rbp),%edx
    2fe1:	48 8b 45 d8          	mov    -0x28(%rbp),%rax
    2fe5:	48 89 d6             	mov    %rdx,%rsi
    2fe8:	48 89 c7             	mov    %rax,%rdi
    2feb:	e8 c0 f3 ff ff       	call   23b0 <_ZNSt7__cxx1112basic_stringIcSt11char_traitsIcESaIcEEixEm@plt>
    2ff0:	48 89 c1             	mov    %rax,%rcx
    2ff3:	8b 55 e8             	mov    -0x18(%rbp),%edx
    2ff6:	8b 45 ec             	mov    -0x14(%rbp),%eax
    2ff9:	89 c6                	mov    %eax,%esi
    2ffb:	48 89 cf             	mov    %rcx,%rdi
    2ffe:	e8 51 09 00 00       	call   3954 <_ZNSt8__detail18__to_chars_10_implIjEEvPcjT_>
    3003:	90                   	nop
    3004:	48 8b 45 f8          	mov    -0x8(%rbp),%rax
    3008:	64 48 2b 04 25 28 00 	sub    %fs:0x28,%rax
    300f:	00 00 
    3011:	74 05                	je     3018 <_ZNSt7__cxx119to_stringEi+0xc5>
    3013:	e8 18 f3 ff ff       	call   2330 <__stack_chk_fail@plt>
    3018:	48 8b 45 d8          	mov    -0x28(%rbp),%rax
    301c:	c9                   	leave
    301d:	c3                   	ret

000000000000301e <_ZNSt15_Rb_tree_headerC1Ev>:
    301e:	f3 0f 1e fa          	endbr64
    3022:	55                   	push   %rbp
    3023:	48 89 e5             	mov    %rsp,%rbp
    3026:	48 83 ec 10          	sub    $0x10,%rsp
    302a:	48 89 7d f8          	mov    %rdi,-0x8(%rbp)
    302e:	48 8b 45 f8          	mov    -0x8(%rbp),%rax
    3032:	c7 00 00 00 00 00    	movl   $0x0,(%rax)
    3038:	48 8b 45 f8          	mov    -0x8(%rbp),%rax
    303c:	48 89 c7             	mov    %rax,%rdi
    303f:	e8 04 00 00 00       	call   3048 <_ZNSt15_Rb_tree_header8_M_resetEv>
    3044:	90                   	nop
    3045:	c9                   	leave
    3046:	c3                   	ret
    3047:	90                   	nop

0000000000003048 <_ZNSt15_Rb_tree_header8_M_resetEv>:
    3048:	f3 0f 1e fa          	endbr64
    304c:	55                   	push   %rbp
    304d:	48 89 e5             	mov    %rsp,%rbp
    3050:	48 89 7d f8          	mov    %rdi,-0x8(%rbp)
    3054:	48 8b 45 f8          	mov    -0x8(%rbp),%rax
    3058:	48 c7 40 08 00 00 00 	movq   $0x0,0x8(%rax)
    305f:	00 
    3060:	48 8b 55 f8          	mov    -0x8(%rbp),%rdx
    3064:	48 8b 45 f8          	mov    -0x8(%rbp),%rax
    3068:	48 89 50 10          	mov    %rdx,0x10(%rax)
    306c:	48 8b 55 f8          	mov    -0x8(%rbp),%rdx
    3070:	48 8b 45 f8          	mov    -0x8(%rbp),%rax
    3074:	48 89 50 18          	mov    %rdx,0x18(%rax)
    3078:	48 8b 45 f8          	mov    -0x8(%rbp),%rax
    307c:	48 c7 40 20 00 00 00 	movq   $0x0,0x20(%rax)
    3083:	00 
    3084:	90                   	nop
    3085:	5d                   	pop    %rbp
    3086:	c3                   	ret

0000000000003087 <_ZSt3minImERKT_S2_S2_>:
    3087:	f3 0f 1e fa          	endbr64
    308b:	55                   	push   %rbp
    308c:	48 89 e5             	mov    %rsp,%rbp
    308f:	48 89 7d f8          	mov    %rdi,-0x8(%rbp)
    3093:	48 89 75 f0          	mov    %rsi,-0x10(%rbp)
    3097:	48 8b 45 f0          	mov    -0x10(%rbp),%rax
    309b:	48 8b 10             	mov    (%rax),%rdx
    309e:	48 8b 45 f8          	mov    -0x8(%rbp),%rax
    30a2:	48 8b 00             	mov    (%rax),%rax
    30a5:	48 39 c2             	cmp    %rax,%rdx
    30a8:	73 06                	jae    30b0 <_ZSt3minImERKT_S2_S2_+0x29>
    30aa:	48 8b 45 f0          	mov    -0x10(%rbp),%rax
    30ae:	eb 04                	jmp    30b4 <_ZSt3minImERKT_S2_S2_+0x2d>
    30b0:	48 8b 45 f8          	mov    -0x8(%rbp),%rax
    30b4:	5d                   	pop    %rbp
    30b5:	c3                   	ret

00000000000030b6 <_ZN5Eigen8internal5all_tC1Ev>:
    30b6:	f3 0f 1e fa          	endbr64
    30ba:	55                   	push   %rbp
    30bb:	48 89 e5             	mov    %rsp,%rbp
    30be:	48 89 7d f8          	mov    %rdi,-0x8(%rbp)
    30c2:	90                   	nop
    30c3:	5d                   	pop    %rbp
    30c4:	c3                   	ret
    30c5:	90                   	nop

00000000000030c6 <_ZNK6bipololtERKS_>:
    30c6:	f3 0f 1e fa          	endbr64
    30ca:	55                   	push   %rbp
    30cb:	48 89 e5             	mov    %rsp,%rbp
    30ce:	48 89 7d f8          	mov    %rdi,-0x8(%rbp)
    30d2:	48 89 75 f0          	mov    %rsi,-0x10(%rbp)
    30d6:	48 8b 45 f8          	mov    -0x8(%rbp),%rax
    30da:	8b 10                	mov    (%rax),%edx
    30dc:	48 8b 45 f0          	mov    -0x10(%rbp),%rax
    30e0:	8b 00                	mov    (%rax),%eax
    30e2:	39 c2                	cmp    %eax,%edx
    30e4:	0f 9c c0             	setl   %al
    30e7:	5d                   	pop    %rbp
    30e8:	c3                   	ret
    30e9:	90                   	nop

00000000000030ea <_ZN6bipoloC1EiRKNSt7__cxx1112basic_stringIcSt11char_traitsIcESaIcEEE4Tipofii>:
    30ea:	f3 0f 1e fa          	endbr64
    30ee:	55                   	push   %rbp
    30ef:	48 89 e5             	mov    %rsp,%rbp
    30f2:	48 83 ec 30          	sub    $0x30,%rsp
    30f6:	48 89 7d f8          	mov    %rdi,-0x8(%rbp)
    30fa:	89 75 f4             	mov    %esi,-0xc(%rbp)
    30fd:	48 89 55 e8          	mov    %rdx,-0x18(%rbp)
    3101:	89 4d f0             	mov    %ecx,-0x10(%rbp)
    3104:	f3 0f 11 45 e4       	movss  %xmm0,-0x1c(%rbp)
    3109:	44 89 45 e0          	mov    %r8d,-0x20(%rbp)
    310d:	44 89 4d dc          	mov    %r9d,-0x24(%rbp)
    3111:	48 8b 45 f8          	mov    -0x8(%rbp),%rax
    3115:	8b 55 f4             	mov    -0xc(%rbp),%edx
    3118:	89 10                	mov    %edx,(%rax)
    311a:	48 8b 45 f8          	mov    -0x8(%rbp),%rax
    311e:	48 8d 50 08          	lea    0x8(%rax),%rdx
    3122:	48 8b 45 e8          	mov    -0x18(%rbp),%rax
    3126:	48 89 c6             	mov    %rax,%rsi
    3129:	48 89 d7             	mov    %rdx,%rdi
    312c:	e8 1f f1 ff ff       	call   2250 <_ZNSt7__cxx1112basic_stringIcSt11char_traitsIcESaIcEEC1ERKS4_@plt>
    3131:	48 8b 45 f8          	mov    -0x8(%rbp),%rax
    3135:	8b 55 f0             	mov    -0x10(%rbp),%edx
    3138:	89 50 28             	mov    %edx,0x28(%rax)
    313b:	48 8b 45 f8          	mov    -0x8(%rbp),%rax
    313f:	f3 0f 10 45 e4       	movss  -0x1c(%rbp),%xmm0
    3144:	f3 0f 11 40 2c       	movss  %xmm0,0x2c(%rax)
    3149:	48 8b 45 f8          	mov    -0x8(%rbp),%rax
    314d:	8b 55 e0             	mov    -0x20(%rbp),%edx
    3150:	89 50 30             	mov    %edx,0x30(%rax)
    3153:	48 8b 45 f8          	mov    -0x8(%rbp),%rax
    3157:	8b 55 dc             	mov    -0x24(%rbp),%edx
    315a:	89 50 34             	mov    %edx,0x34(%rax)
    315d:	90                   	nop
    315e:	c9                   	leave
    315f:	c3                   	ret

0000000000003160 <_ZNSt12_Vector_baseI6bipoloSaIS0_EE12_Vector_implD1Ev>:
    3160:	f3 0f 1e fa          	endbr64
    3164:	55                   	push   %rbp
    3165:	48 89 e5             	mov    %rsp,%rbp
    3168:	48 83 ec 20          	sub    $0x20,%rsp
    316c:	48 89 7d e8          	mov    %rdi,-0x18(%rbp)
    3170:	48 8b 45 e8          	mov    -0x18(%rbp),%rax
    3174:	48 89 45 f8          	mov    %rax,-0x8(%rbp)
    3178:	48 8b 45 f8          	mov    -0x8(%rbp),%rax
    317c:	48 89 c7             	mov    %rax,%rdi
    317f:	e8 f4 1b 00 00       	call   4d78 <_ZNSt15__new_allocatorI6bipoloED1Ev>
    3184:	90                   	nop
    3185:	90                   	nop
    3186:	c9                   	leave
    3187:	c3                   	ret

0000000000003188 <_ZNSt12_Vector_baseI6bipoloSaIS0_EEC1Ev>:
    3188:	f3 0f 1e fa          	endbr64
    318c:	55                   	push   %rbp
    318d:	48 89 e5             	mov    %rsp,%rbp
    3190:	48 83 ec 10          	sub    $0x10,%rsp
    3194:	48 89 7d f8          	mov    %rdi,-0x8(%rbp)
    3198:	48 8b 45 f8          	mov    -0x8(%rbp),%rax
    319c:	48 89 c7             	mov    %rax,%rdi
    319f:	e8 b0 0b 00 00       	call   3d54 <_ZNSt12_Vector_baseI6bipoloSaIS0_EE12_Vector_implC1Ev>
    31a4:	90                   	nop
    31a5:	c9                   	leave
    31a6:	c3                   	ret
    31a7:	90                   	nop

00000000000031a8 <_ZNSt6vectorI6bipoloSaIS0_EEC1Ev>:
    31a8:	f3 0f 1e fa          	endbr64
    31ac:	55                   	push   %rbp
    31ad:	48 89 e5             	mov    %rsp,%rbp
    31b0:	48 83 ec 10          	sub    $0x10,%rsp
    31b4:	48 89 7d f8          	mov    %rdi,-0x8(%rbp)
    31b8:	48 8b 45 f8          	mov    -0x8(%rbp),%rax
    31bc:	48 89 c7             	mov    %rax,%rdi
    31bf:	e8 c4 ff ff ff       	call   3188 <_ZNSt12_Vector_baseI6bipoloSaIS0_EEC1Ev>
    31c4:	90                   	nop
    31c5:	c9                   	leave
    31c6:	c3                   	ret
    31c7:	90                   	nop

00000000000031c8 <_ZN8CircuitoC1Ei>:
    31c8:	f3 0f 1e fa          	endbr64
    31cc:	55                   	push   %rbp
    31cd:	48 89 e5             	mov    %rsp,%rbp
    31d0:	48 83 ec 10          	sub    $0x10,%rsp
    31d4:	48 89 7d f8          	mov    %rdi,-0x8(%rbp)
    31d8:	89 75 f4             	mov    %esi,-0xc(%rbp)
    31db:	48 8b 45 f8          	mov    -0x8(%rbp),%rax
    31df:	48 89 c7             	mov    %rax,%rdi
    31e2:	e8 c1 ff ff ff       	call   31a8 <_ZNSt6vectorI6bipoloSaIS0_EEC1Ev>
    31e7:	48 8b 45 f8          	mov    -0x8(%rbp),%rax
    31eb:	8b 55 f4             	mov    -0xc(%rbp),%edx
    31ee:	89 50 18             	mov    %edx,0x18(%rax)
    31f1:	90                   	nop
    31f2:	c9                   	leave
    31f3:	c3                   	ret

00000000000031f4 <_ZN8Circuito14aggiungiBipoloEiRKNSt7__cxx1112basic_stringIcSt11char_traitsIcESaIcEEE4Tipofii>:
    31f4:	f3 0f 1e fa          	endbr64
    31f8:	55                   	push   %rbp
    31f9:	48 89 e5             	mov    %rsp,%rbp
    31fc:	48 83 ec 30          	sub    $0x30,%rsp
    3200:	48 89 7d f8          	mov    %rdi,-0x8(%rbp)
    3204:	89 75 f4             	mov    %esi,-0xc(%rbp)
    3207:	48 89 55 e8          	mov    %rdx,-0x18(%rbp)
    320b:	89 4d f0             	mov    %ecx,-0x10(%rbp)
    320e:	f3 0f 11 45 e4       	movss  %xmm0,-0x1c(%rbp)
    3213:	44 89 45 e0          	mov    %r8d,-0x20(%rbp)
    3217:	44 89 4d dc          	mov    %r9d,-0x24(%rbp)
    321b:	48 8b 45 f8          	mov    -0x8(%rbp),%rax
    321f:	4c 8d 4d e0          	lea    -0x20(%rbp),%r9
    3223:	4c 8d 45 e4          	lea    -0x1c(%rbp),%r8
    3227:	48 8d 4d f0          	lea    -0x10(%rbp),%rcx
    322b:	48 8b 55 e8          	mov    -0x18(%rbp),%rdx
    322f:	48 8d 75 f4          	lea    -0xc(%rbp),%rsi
    3233:	48 83 ec 08          	sub    $0x8,%rsp
    3237:	48 8d 7d dc          	lea    -0x24(%rbp),%rdi
    323b:	57                   	push   %rdi
    323c:	48 89 c7             	mov    %rax,%rdi
    323f:	e8 f8 0b 00 00       	call   3e3c <_ZNSt6vectorI6bipoloSaIS0_EE12emplace_backIJRiRKNSt7__cxx1112basic_stringIcSt11char_traitsIcESaIcEEER4TipoRfS4_S4_EEERS0_DpOT_>
    3244:	48 83 c4 10          	add    $0x10,%rsp
    3248:	90                   	nop
    3249:	c9                   	leave
    324a:	c3                   	ret
    324b:	90                   	nop

000000000000324c <_ZN8Circuito14aggiungiBipoloE6bipolo>:
    324c:	f3 0f 1e fa          	endbr64
    3250:	55                   	push   %rbp
    3251:	48 89 e5             	mov    %rsp,%rbp
    3254:	48 83 ec 10          	sub    $0x10,%rsp
    3258:	48 89 7d f8          	mov    %rdi,-0x8(%rbp)
    325c:	48 89 75 f0          	mov    %rsi,-0x10(%rbp)
    3260:	48 8b 45 f8          	mov    -0x8(%rbp),%rax
    3264:	48 8b 55 f0          	mov    -0x10(%rbp),%rdx
    3268:	48 89 d6             	mov    %rdx,%rsi
    326b:	48 89 c7             	mov    %rax,%rdi
    326e:	e8 11 0f 00 00       	call   4184 <_ZNSt6vectorI6bipoloSaIS0_EE12emplace_backIJRS0_EEES4_DpOT_>
    3273:	90                   	nop
    3274:	c9                   	leave
    3275:	c3                   	ret

0000000000003276 <_ZN14ExpressionNodeC1Ev>:
    3276:	f3 0f 1e fa          	endbr64
    327a:	55                   	push   %rbp
    327b:	48 89 e5             	mov    %rsp,%rbp
    327e:	48 89 7d f8          	mov    %rdi,-0x8(%rbp)
    3282:	48 8d 15 e7 a9 00 00 	lea    0xa9e7(%rip),%rdx        # dc70 <__cxa_pure_virtual@CXXABI_1.3>
    3289:	48 8b 45 f8          	mov    -0x8(%rbp),%rax
    328d:	48 89 10             	mov    %rdx,(%rax)
    3290:	90                   	nop
    3291:	5d                   	pop    %rbp
    3292:	c3                   	ret
    3293:	90                   	nop

0000000000003294 <_ZN14ExpressionNodeD1Ev>:
    3294:	f3 0f 1e fa          	endbr64
    3298:	55                   	push   %rbp
    3299:	48 89 e5             	mov    %rsp,%rbp
    329c:	48 89 7d f8          	mov    %rdi,-0x8(%rbp)
    32a0:	48 8d 15 c9 a9 00 00 	lea    0xa9c9(%rip),%rdx        # dc70 <__cxa_pure_virtual@CXXABI_1.3>
    32a7:	48 8b 45 f8          	mov    -0x8(%rbp),%rax
    32ab:	48 89 10             	mov    %rdx,(%rax)
    32ae:	90                   	nop
    32af:	5d                   	pop    %rbp
    32b0:	c3                   	ret
    32b1:	90                   	nop

00000000000032b2 <_ZN14ExpressionNodeD0Ev>:
    32b2:	f3 0f 1e fa          	endbr64
    32b6:	55                   	push   %rbp
    32b7:	48 89 e5             	mov    %rsp,%rbp
    32ba:	48 83 ec 10          	sub    $0x10,%rsp
    32be:	48 89 7d f8          	mov    %rdi,-0x8(%rbp)
    32c2:	48 8b 45 f8          	mov    -0x8(%rbp),%rax
    32c6:	48 89 c7             	mov    %rax,%rdi
    32c9:	e8 c6 ff ff ff       	call   3294 <_ZN14ExpressionNodeD1Ev>
    32ce:	48 8b 45 f8          	mov    -0x8(%rbp),%rax
    32d2:	be 08 00 00 00       	mov    $0x8,%esi
    32d7:	48 89 c7             	mov    %rax,%rdi
    32da:	e8 11 f0 ff ff       	call   22f0 <_ZdlPvm@plt>
    32df:	c9                   	leave
    32e0:	c3                   	ret
    32e1:	90                   	nop

00000000000032e2 <_ZN6bipoloC1ERKS_>:
    32e2:	f3 0f 1e fa          	endbr64
    32e6:	55                   	push   %rbp
    32e7:	48 89 e5             	mov    %rsp,%rbp
    32ea:	48 83 ec 10          	sub    $0x10,%rsp
    32ee:	48 89 7d f8          	mov    %rdi,-0x8(%rbp)
    32f2:	48 89 75 f0          	mov    %rsi,-0x10(%rbp)
    32f6:	48 8b 45 f0          	mov    -0x10(%rbp),%rax
    32fa:	8b 10                	mov    (%rax),%edx
    32fc:	48 8b 45 f8          	mov    -0x8(%rbp),%rax
    3300:	89 10                	mov    %edx,(%rax)
    3302:	48 8b 45 f8          	mov    -0x8(%rbp),%rax
    3306:	48 83 c0 08          	add    $0x8,%rax
    330a:	48 8b 55 f0          	mov    -0x10(%rbp),%rdx
    330e:	48 83 c2 08          	add    $0x8,%rdx
    3312:	48 89 d6             	mov    %rdx,%rsi
    3315:	48 89 c7             	mov    %rax,%rdi
    3318:	e8 33 ef ff ff       	call   2250 <_ZNSt7__cxx1112basic_stringIcSt11char_traitsIcESaIcEEC1ERKS4_@plt>
    331d:	48 8b 45 f0          	mov    -0x10(%rbp),%rax
    3321:	8b 50 28             	mov    0x28(%rax),%edx
    3324:	48 8b 45 f8          	mov    -0x8(%rbp),%rax
    3328:	89 50 28             	mov    %edx,0x28(%rax)
    332b:	48 8b 45 f0          	mov    -0x10(%rbp),%rax
    332f:	f3 0f 10 40 2c       	movss  0x2c(%rax),%xmm0
    3334:	48 8b 45 f8          	mov    -0x8(%rbp),%rax
    3338:	f3 0f 11 40 2c       	movss  %xmm0,0x2c(%rax)
    333d:	48 8b 45 f0          	mov    -0x10(%rbp),%rax
    3341:	8b 50 30             	mov    0x30(%rax),%edx
    3344:	48 8b 45 f8          	mov    -0x8(%rbp),%rax
    3348:	89 50 30             	mov    %edx,0x30(%rax)
    334b:	48 8b 45 f0          	mov    -0x10(%rbp),%rax
    334f:	8b 50 34             	mov    0x34(%rax),%edx
    3352:	48 8b 45 f8          	mov    -0x8(%rbp),%rax
    3356:	89 50 34             	mov    %edx,0x34(%rax)
    3359:	90                   	nop
    335a:	c9                   	leave
    335b:	c3                   	ret

000000000000335c <_ZN6bipoloD1Ev>:
    335c:	f3 0f 1e fa          	endbr64
    3360:	55                   	push   %rbp
    3361:	48 89 e5             	mov    %rsp,%rbp
    3364:	48 83 ec 10          	sub    $0x10,%rsp
    3368:	48 89 7d f8          	mov    %rdi,-0x8(%rbp)
    336c:	48 8b 45 f8          	mov    -0x8(%rbp),%rax
    3370:	48 83 c0 08          	add    $0x8,%rax
    3374:	48 89 c7             	mov    %rax,%rdi
    3377:	e8 14 ef ff ff       	call   2290 <_ZNSt7__cxx1112basic_stringIcSt11char_traitsIcESaIcEED1Ev@plt>
    337c:	90                   	nop
    337d:	c9                   	leave
    337e:	c3                   	ret
    337f:	90                   	nop

0000000000003380 <_ZN10BipoloNodeC1ERK6bipolo>:
    3380:	f3 0f 1e fa          	endbr64
    3384:	55                   	push   %rbp
    3385:	48 89 e5             	mov    %rsp,%rbp
    3388:	53                   	push   %rbx
    3389:	48 83 ec 18          	sub    $0x18,%rsp
    338d:	48 89 7d e8          	mov    %rdi,-0x18(%rbp)
    3391:	48 89 75 e0          	mov    %rsi,-0x20(%rbp)
    3395:	48 8b 45 e8          	mov    -0x18(%rbp),%rax
    3399:	48 89 c7             	mov    %rax,%rdi
    339c:	e8 d5 fe ff ff       	call   3276 <_ZN14ExpressionNodeC1Ev>
    33a1:	48 8d 15 a0 a8 00 00 	lea    0xa8a0(%rip),%rdx        # dc48 <_ZTV10BipoloNode+0x10>
    33a8:	48 8b 45 e8          	mov    -0x18(%rbp),%rax
    33ac:	48 89 10             	mov    %rdx,(%rax)
    33af:	48 8b 45 e8          	mov    -0x18(%rbp),%rax
    33b3:	48 8d 50 08          	lea    0x8(%rax),%rdx
    33b7:	48 8b 45 e0          	mov    -0x20(%rbp),%rax
    33bb:	48 89 c6             	mov    %rax,%rsi
    33be:	48 89 d7             	mov    %rdx,%rdi
    33c1:	e8 1c ff ff ff       	call   32e2 <_ZN6bipoloC1ERKS_>
    33c6:	eb 1e                	jmp    33e6 <_ZN10BipoloNodeC1ERK6bipolo+0x66>
    33c8:	f3 0f 1e fa          	endbr64
    33cc:	48 89 c3             	mov    %rax,%rbx
    33cf:	48 8b 45 e8          	mov    -0x18(%rbp),%rax
    33d3:	48 89 c7             	mov    %rax,%rdi
    33d6:	e8 b9 fe ff ff       	call   3294 <_ZN14ExpressionNodeD1Ev>
    33db:	48 89 d8             	mov    %rbx,%rax
    33de:	48 89 c7             	mov    %rax,%rdi
    33e1:	e8 ba ef ff ff       	call   23a0 <_Unwind_Resume@plt>
    33e6:	48 8b 5d f8          	mov    -0x8(%rbp),%rbx
    33ea:	c9                   	leave
    33eb:	c3                   	ret

00000000000033ec <_ZNK10BipoloNode8evaluateEv>:
    33ec:	f3 0f 1e fa          	endbr64
    33f0:	55                   	push   %rbp
    33f1:	48 89 e5             	mov    %rsp,%rbp
    33f4:	48 89 7d f8          	mov    %rdi,-0x8(%rbp)
    33f8:	48 8b 45 f8          	mov    -0x8(%rbp),%rax
    33fc:	f3 0f 10 40 34       	movss  0x34(%rax),%xmm0
    3401:	5d                   	pop    %rbp
    3402:	c3                   	ret
    3403:	90                   	nop

0000000000003404 <_ZNSt15__uniq_ptr_dataI14ExpressionNodeSt14default_deleteIS0_ELb1ELb1EEC1EOS3_>:
    3404:	f3 0f 1e fa          	endbr64
    3408:	55                   	push   %rbp
    3409:	48 89 e5             	mov    %rsp,%rbp
    340c:	48 83 ec 10          	sub    $0x10,%rsp
    3410:	48 89 7d f8          	mov    %rdi,-0x8(%rbp)
    3414:	48 89 75 f0          	mov    %rsi,-0x10(%rbp)
    3418:	48 8b 45 f8          	mov    -0x8(%rbp),%rax
    341c:	48 8b 55 f0          	mov    -0x10(%rbp),%rdx
    3420:	48 89 d6             	mov    %rdx,%rsi
    3423:	48 89 c7             	mov    %rax,%rdi
    3426:	e8 ab 0f 00 00       	call   43d6 <_ZNSt15__uniq_ptr_implI14ExpressionNodeSt14default_deleteIS0_EEC1EOS3_>
    342b:	90                   	nop
    342c:	c9                   	leave
    342d:	c3                   	ret

000000000000342e <_ZNSt10unique_ptrI14ExpressionNodeSt14default_deleteIS0_EEC1EOS3_>:
    342e:	f3 0f 1e fa          	endbr64
    3432:	55                   	push   %rbp
    3433:	48 89 e5             	mov    %rsp,%rbp
    3436:	48 83 ec 10          	sub    $0x10,%rsp
    343a:	48 89 7d f8          	mov    %rdi,-0x8(%rbp)
    343e:	48 89 75 f0          	mov    %rsi,-0x10(%rbp)
    3442:	48 8b 45 f8          	mov    -0x8(%rbp),%rax
    3446:	48 8b 55 f0          	mov    -0x10(%rbp),%rdx
    344a:	48 89 d6             	mov    %rdx,%rsi
    344d:	48 89 c7             	mov    %rax,%rdi
    3450:	e8 af ff ff ff       	call   3404 <_ZNSt15__uniq_ptr_dataI14ExpressionNodeSt14default_deleteIS0_ELb1ELb1EEC1EOS3_>
    3455:	90                   	nop
    3456:	c9                   	leave
    3457:	c3                   	ret

0000000000003458 <_ZN13OperationNodeC1ESt10unique_ptrI14ExpressionNodeSt14default_deleteIS1_EES4_c>:
    3458:	f3 0f 1e fa          	endbr64
    345c:	55                   	push   %rbp
    345d:	48 89 e5             	mov    %rsp,%rbp
    3460:	53                   	push   %rbx
    3461:	48 83 ec 28          	sub    $0x28,%rsp
    3465:	48 89 7d e8          	mov    %rdi,-0x18(%rbp)
    3469:	48 89 75 e0          	mov    %rsi,-0x20(%rbp)
    346d:	48 89 55 d8          	mov    %rdx,-0x28(%rbp)
    3471:	89 c8                	mov    %ecx,%eax
    3473:	88 45 d4             	mov    %al,-0x2c(%rbp)
    3476:	48 8b 45 e8          	mov    -0x18(%rbp),%rax
    347a:	48 89 c7             	mov    %rax,%rdi
    347d:	e8 f4 fd ff ff       	call   3276 <_ZN14ExpressionNodeC1Ev>
    3482:	48 8d 15 97 a7 00 00 	lea    0xa797(%rip),%rdx        # dc20 <_ZTV13OperationNode+0x10>
    3489:	48 8b 45 e8          	mov    -0x18(%rbp),%rax
    348d:	48 89 10             	mov    %rdx,(%rax)
    3490:	48 8b 45 e8          	mov    -0x18(%rbp),%rax
    3494:	48 8d 58 08          	lea    0x8(%rax),%rbx
    3498:	48 8b 45 e0          	mov    -0x20(%rbp),%rax
    349c:	48 89 c7             	mov    %rax,%rdi
    349f:	e8 bd 0e 00 00       	call   4361 <_ZSt4moveIRSt10unique_ptrI14ExpressionNodeSt14default_deleteIS1_EEEONSt16remove_referenceIT_E4typeEOS7_>
    34a4:	48 89 c6             	mov    %rax,%rsi
    34a7:	48 89 df             	mov    %rbx,%rdi
    34aa:	e8 7f ff ff ff       	call   342e <_ZNSt10unique_ptrI14ExpressionNodeSt14default_deleteIS0_EEC1EOS3_>
    34af:	48 8b 45 e8          	mov    -0x18(%rbp),%rax
    34b3:	48 8d 58 10          	lea    0x10(%rax),%rbx
    34b7:	48 8b 45 d8          	mov    -0x28(%rbp),%rax
    34bb:	48 89 c7             	mov    %rax,%rdi
    34be:	e8 9e 0e 00 00       	call   4361 <_ZSt4moveIRSt10unique_ptrI14ExpressionNodeSt14default_deleteIS1_EEEONSt16remove_referenceIT_E4typeEOS7_>
    34c3:	48 89 c6             	mov    %rax,%rsi
    34c6:	48 89 df             	mov    %rbx,%rdi
    34c9:	e8 60 ff ff ff       	call   342e <_ZNSt10unique_ptrI14ExpressionNodeSt14default_deleteIS0_EEC1EOS3_>
    34ce:	48 8b 45 e8          	mov    -0x18(%rbp),%rax
    34d2:	0f b6 55 d4          	movzbl -0x2c(%rbp),%edx
    34d6:	88 50 18             	mov    %dl,0x18(%rax)
    34d9:	90                   	nop
    34da:	48 8b 5d f8          	mov    -0x8(%rbp),%rbx
    34de:	c9                   	leave
    34df:	c3                   	ret

00000000000034e0 <_ZNK13OperationNode8evaluateEv>:
    34e0:	f3 0f 1e fa          	endbr64
    34e4:	55                   	push   %rbp
    34e5:	48 89 e5             	mov    %rsp,%rbp
    34e8:	48 83 ec 20          	sub    $0x20,%rsp
    34ec:	48 89 7d e8          	mov    %rdi,-0x18(%rbp)
    34f0:	48 8b 45 e8          	mov    -0x18(%rbp),%rax
    34f4:	48 83 c0 08          	add    $0x8,%rax
    34f8:	48 89 c7             	mov    %rax,%rdi
    34fb:	e8 88 0f 00 00       	call   4488 <_ZNKSt10unique_ptrI14ExpressionNodeSt14default_deleteIS0_EEptEv>
    3500:	48 8b 10             	mov    (%rax),%rdx
    3503:	48 8b 12             	mov    (%rdx),%rdx
    3506:	48 89 c7             	mov    %rax,%rdi
    3509:	ff d2                	call   *%rdx
    350b:	66 0f 7e c0          	movd   %xmm0,%eax
    350f:	89 45 f8             	mov    %eax,-0x8(%rbp)
    3512:	48 8b 45 e8          	mov    -0x18(%rbp),%rax
    3516:	48 83 c0 10          	add    $0x10,%rax
    351a:	48 89 c7             	mov    %rax,%rdi
    351d:	e8 66 0f 00 00       	call   4488 <_ZNKSt10unique_ptrI14ExpressionNodeSt14default_deleteIS0_EEptEv>
    3522:	48 8b 10             	mov    (%rax),%rdx
    3525:	48 8b 12             	mov    (%rdx),%rdx
    3528:	48 89 c7             	mov    %rax,%rdi
    352b:	ff d2                	call   *%rdx
    352d:	66 0f 7e c0          	movd   %xmm0,%eax
    3531:	89 45 fc             	mov    %eax,-0x4(%rbp)
    3534:	48 8b 45 e8          	mov    -0x18(%rbp),%rax
    3538:	0f b6 40 18          	movzbl 0x18(%rax),%eax
    353c:	3c 2b                	cmp    $0x2b,%al
    353e:	75 0c                	jne    354c <_ZNK13OperationNode8evaluateEv+0x6c>
    3540:	f3 0f 10 45 f8       	movss  -0x8(%rbp),%xmm0
    3545:	f3 0f 58 45 fc       	addss  -0x4(%rbp),%xmm0
    354a:	eb 3f                	jmp    358b <_ZNK13OperationNode8evaluateEv+0xab>
    354c:	48 8b 45 e8          	mov    -0x18(%rbp),%rax
    3550:	0f b6 40 18          	movzbl 0x18(%rax),%eax
    3554:	3c 7c                	cmp    $0x7c,%al
    3556:	75 2f                	jne    3587 <_ZNK13OperationNode8evaluateEv+0xa7>
    3558:	f3 0f 10 05 40 5d 00 	movss  0x5d40(%rip),%xmm0        # 92a0 <_ZNSt8__detail30__integer_to_chars_is_unsignedIyEE+0x4>
    355f:	00 
    3560:	0f 28 c8             	movaps %xmm0,%xmm1
    3563:	f3 0f 5e 4d f8       	divss  -0x8(%rbp),%xmm1
    3568:	f3 0f 10 05 30 5d 00 	movss  0x5d30(%rip),%xmm0        # 92a0 <_ZNSt8__detail30__integer_to_chars_is_unsignedIyEE+0x4>
    356f:	00 
    3570:	f3 0f 5e 45 fc       	divss  -0x4(%rbp),%xmm0
    3575:	f3 0f 58 c8          	addss  %xmm0,%xmm1
    3579:	f3 0f 10 05 1f 5d 00 	movss  0x5d1f(%rip),%xmm0        # 92a0 <_ZNSt8__detail30__integer_to_chars_is_unsignedIyEE+0x4>
    3580:	00 
    3581:	f3 0f 5e c1          	divss  %xmm1,%xmm0
    3585:	eb 04                	jmp    358b <_ZNK13OperationNode8evaluateEv+0xab>
    3587:	66 0f ef c0          	pxor   %xmm0,%xmm0
    358b:	c9                   	leave
    358c:	c3                   	ret
    358d:	90                   	nop

000000000000358e <_ZNSt8_Rb_treeI6bipoloS0_St9_IdentityIS0_ESt4lessIS0_ESaIS0_EE13_Rb_tree_implIS4_Lb1EED1Ev>:
    358e:	f3 0f 1e fa          	endbr64
    3592:	55                   	push   %rbp
    3593:	48 89 e5             	mov    %rsp,%rbp
    3596:	48 83 ec 20          	sub    $0x20,%rsp
    359a:	48 89 7d e8          	mov    %rdi,-0x18(%rbp)
    359e:	48 8b 45 e8          	mov    -0x18(%rbp),%rax
    35a2:	48 89 45 f8          	mov    %rax,-0x8(%rbp)
    35a6:	48 8b 45 f8          	mov    -0x8(%rbp),%rax
    35aa:	48 89 c7             	mov    %rax,%rdi
    35ad:	e8 ec 23 00 00       	call   599e <_ZNSt15__new_allocatorISt13_Rb_tree_nodeI6bipoloEED1Ev>
    35b2:	90                   	nop
    35b3:	90                   	nop
    35b4:	c9                   	leave
    35b5:	c3                   	ret

00000000000035b6 <_ZNSt8_Rb_treeI6bipoloS0_St9_IdentityIS0_ESt4lessIS0_ESaIS0_EEC1Ev>:
    35b6:	f3 0f 1e fa          	endbr64
    35ba:	55                   	push   %rbp
    35bb:	48 89 e5             	mov    %rsp,%rbp
    35be:	48 83 ec 10          	sub    $0x10,%rsp
    35c2:	48 89 7d f8          	mov    %rdi,-0x8(%rbp)
    35c6:	48 8b 45 f8          	mov    -0x8(%rbp),%rax
    35ca:	48 89 c7             	mov    %rax,%rdi
    35cd:	e8 02 0f 00 00       	call   44d4 <_ZNSt8_Rb_treeI6bipoloS0_St9_IdentityIS0_ESt4lessIS0_ESaIS0_EE13_Rb_tree_implIS4_Lb1EEC1Ev>
    35d2:	90                   	nop
    35d3:	c9                   	leave
    35d4:	c3                   	ret
    35d5:	90                   	nop

00000000000035d6 <_ZNSt3setI6bipoloSt4lessIS0_ESaIS0_EEC1Ev>:
    35d6:	f3 0f 1e fa          	endbr64
    35da:	55                   	push   %rbp
    35db:	48 89 e5             	mov    %rsp,%rbp
    35de:	48 83 ec 10          	sub    $0x10,%rsp
    35e2:	48 89 7d f8          	mov    %rdi,-0x8(%rbp)
    35e6:	48 8b 45 f8          	mov    -0x8(%rbp),%rax
    35ea:	48 89 c7             	mov    %rax,%rdi
    35ed:	e8 c4 ff ff ff       	call   35b6 <_ZNSt8_Rb_treeI6bipoloS0_St9_IdentityIS0_ESt4lessIS0_ESaIS0_EEC1Ev>
    35f2:	90                   	nop
    35f3:	c9                   	leave
    35f4:	c3                   	ret
    35f5:	90                   	nop

00000000000035f6 <_ZNSt3setI6bipoloSt4lessIS0_ESaIS0_EED1Ev>:
    35f6:	f3 0f 1e fa          	endbr64
    35fa:	55                   	push   %rbp
    35fb:	48 89 e5             	mov    %rsp,%rbp
    35fe:	48 83 ec 10          	sub    $0x10,%rsp
    3602:	48 89 7d f8          	mov    %rdi,-0x8(%rbp)
    3606:	48 8b 45 f8          	mov    -0x8(%rbp),%rax
    360a:	48 89 c7             	mov    %rax,%rdi
    360d:	e8 04 0f 00 00       	call   4516 <_ZNSt8_Rb_treeI6bipoloS0_St9_IdentityIS0_ESt4lessIS0_ESaIS0_EED1Ev>
    3612:	90                   	nop
    3613:	c9                   	leave
    3614:	c3                   	ret
    3615:	90                   	nop

0000000000003616 <_ZNSt8_Rb_treeIiiSt9_IdentityIiESt4lessIiESaIiEE13_Rb_tree_implIS3_Lb1EED1Ev>:
    3616:	f3 0f 1e fa          	endbr64
    361a:	55                   	push   %rbp
    361b:	48 89 e5             	mov    %rsp,%rbp
    361e:	48 83 ec 20          	sub    $0x20,%rsp
    3622:	48 89 7d e8          	mov    %rdi,-0x18(%rbp)
    3626:	48 8b 45 e8          	mov    -0x18(%rbp),%rax
    362a:	48 89 45 f8          	mov    %rax,-0x8(%rbp)
    362e:	48 8b 45 f8          	mov    -0x8(%rbp),%rax
    3632:	48 89 c7             	mov    %rax,%rdi
    3635:	e8 fc 23 00 00       	call   5a36 <_ZNSt15__new_allocatorISt13_Rb_tree_nodeIiEED1Ev>
    363a:	90                   	nop
    363b:	90                   	nop
    363c:	c9                   	leave
    363d:	c3                   	ret

000000000000363e <_ZNSt8_Rb_treeIiiSt9_IdentityIiESt4lessIiESaIiEEC1Ev>:
    363e:	f3 0f 1e fa          	endbr64
    3642:	55                   	push   %rbp
    3643:	48 89 e5             	mov    %rsp,%rbp
    3646:	48 83 ec 10          	sub    $0x10,%rsp
    364a:	48 89 7d f8          	mov    %rdi,-0x8(%rbp)
    364e:	48 8b 45 f8          	mov    -0x8(%rbp),%rax
    3652:	48 89 c7             	mov    %rax,%rdi
    3655:	e8 fa 0e 00 00       	call   4554 <_ZNSt8_Rb_treeIiiSt9_IdentityIiESt4lessIiESaIiEE13_Rb_tree_implIS3_Lb1EEC1Ev>
    365a:	90                   	nop
    365b:	c9                   	leave
    365c:	c3                   	ret
    365d:	90                   	nop

000000000000365e <_ZNSt3setIiSt4lessIiESaIiEEC1Ev>:
    365e:	f3 0f 1e fa          	endbr64
    3662:	55                   	push   %rbp
    3663:	48 89 e5             	mov    %rsp,%rbp
    3666:	48 83 ec 10          	sub    $0x10,%rsp
    366a:	48 89 7d f8          	mov    %rdi,-0x8(%rbp)
    366e:	48 8b 45 f8          	mov    -0x8(%rbp),%rax
    3672:	48 89 c7             	mov    %rax,%rdi
    3675:	e8 c4 ff ff ff       	call   363e <_ZNSt8_Rb_treeIiiSt9_IdentityIiESt4lessIiESaIiEEC1Ev>
    367a:	90                   	nop
    367b:	c9                   	leave
    367c:	c3                   	ret
    367d:	90                   	nop

000000000000367e <_ZNSt3setIiSt4lessIiESaIiEED1Ev>:
    367e:	f3 0f 1e fa          	endbr64
    3682:	55                   	push   %rbp
    3683:	48 89 e5             	mov    %rsp,%rbp
    3686:	48 83 ec 10          	sub    $0x10,%rsp
    368a:	48 89 7d f8          	mov    %rdi,-0x8(%rbp)
    368e:	48 8b 45 f8          	mov    -0x8(%rbp),%rax
    3692:	48 89 c7             	mov    %rax,%rdi
    3695:	e8 fc 0e 00 00       	call   4596 <_ZNSt8_Rb_treeIiiSt9_IdentityIiESt4lessIiESaIiEED1Ev>
    369a:	90                   	nop
    369b:	c9                   	leave
    369c:	c3                   	ret
    369d:	90                   	nop

000000000000369e <_ZNSt15__uniq_ptr_dataI14ExpressionNodeSt14default_deleteIS0_ELb1ELb1EEaSEOS3_>:
    369e:	f3 0f 1e fa          	endbr64
    36a2:	55                   	push   %rbp
    36a3:	48 89 e5             	mov    %rsp,%rbp
    36a6:	48 83 ec 10          	sub    $0x10,%rsp
    36aa:	48 89 7d f8          	mov    %rdi,-0x8(%rbp)
    36ae:	48 89 75 f0          	mov    %rsi,-0x10(%rbp)
    36b2:	48 8b 45 f8          	mov    -0x8(%rbp),%rax
    36b6:	48 8b 55 f0          	mov    -0x10(%rbp),%rdx
    36ba:	48 89 d6             	mov    %rdx,%rsi
    36bd:	48 89 c7             	mov    %rax,%rdi
    36c0:	e8 9b 11 00 00       	call   4860 <_ZNSt15__uniq_ptr_implI14ExpressionNodeSt14default_deleteIS0_EEaSEOS3_>
    36c5:	48 8b 45 f8          	mov    -0x8(%rbp),%rax
    36c9:	c9                   	leave
    36ca:	c3                   	ret
    36cb:	90                   	nop

00000000000036cc <_ZNSt10unique_ptrI14ExpressionNodeSt14default_deleteIS0_EEaSEOS3_>:
    36cc:	f3 0f 1e fa          	endbr64
    36d0:	55                   	push   %rbp
    36d1:	48 89 e5             	mov    %rsp,%rbp
    36d4:	48 83 ec 10          	sub    $0x10,%rsp
    36d8:	48 89 7d f8          	mov    %rdi,-0x8(%rbp)
    36dc:	48 89 75 f0          	mov    %rsi,-0x10(%rbp)
    36e0:	48 8b 55 f0          	mov    -0x10(%rbp),%rdx
    36e4:	48 8b 45 f8          	mov    -0x8(%rbp),%rax
    36e8:	48 89 d6             	mov    %rdx,%rsi
    36eb:	48 89 c7             	mov    %rax,%rdi
    36ee:	e8 ab ff ff ff       	call   369e <_ZNSt15__uniq_ptr_dataI14ExpressionNodeSt14default_deleteIS0_ELb1ELb1EEaSEOS3_>
    36f3:	48 8b 45 f8          	mov    -0x8(%rbp),%rax
    36f7:	c9                   	leave
    36f8:	c3                   	ret
    36f9:	90                   	nop

00000000000036fa <_ZNSt4pairISt10unique_ptrI14ExpressionNodeSt14default_deleteIS1_EES0_I8CircuitoS2_IS5_EEED1Ev>:
    36fa:	f3 0f 1e fa          	endbr64
    36fe:	55                   	push   %rbp
    36ff:	48 89 e5             	mov    %rsp,%rbp
    3702:	48 83 ec 10          	sub    $0x10,%rsp
    3706:	48 89 7d f8          	mov    %rdi,-0x8(%rbp)
    370a:	48 8b 45 f8          	mov    -0x8(%rbp),%rax
    370e:	48 83 c0 08          	add    $0x8,%rax
    3712:	48 89 c7             	mov    %rax,%rdi
    3715:	e8 ee 13 00 00       	call   4b08 <_ZNSt10unique_ptrI8CircuitoSt14default_deleteIS0_EED1Ev>
    371a:	48 8b 45 f8          	mov    -0x8(%rbp),%rax
    371e:	48 89 c7             	mov    %rax,%rdi
    3721:	e8 fa 0c 00 00       	call   4420 <_ZNSt10unique_ptrI14ExpressionNodeSt14default_deleteIS0_EED1Ev>
    3726:	90                   	nop
    3727:	c9                   	leave
    3728:	c3                   	ret
    3729:	90                   	nop

000000000000372a <_ZNSt15__uniq_ptr_implI14ExpressionNodeSt14default_deleteIS0_EEC1Ev>:
    372a:	f3 0f 1e fa          	endbr64
    372e:	55                   	push   %rbp
    372f:	48 89 e5             	mov    %rsp,%rbp
    3732:	48 83 ec 10          	sub    $0x10,%rsp
    3736:	48 89 7d f8          	mov    %rdi,-0x8(%rbp)
    373a:	48 8b 45 f8          	mov    -0x8(%rbp),%rax
    373e:	48 89 c7             	mov    %rax,%rdi
    3741:	e8 24 00 00 00       	call   376a <_ZNSt5tupleIJP14ExpressionNodeSt14default_deleteIS0_EEEC1ILb1ELb1EEEv>
    3746:	90                   	nop
    3747:	c9                   	leave
    3748:	c3                   	ret
    3749:	90                   	nop

000000000000374a <_ZNSt15__uniq_ptr_dataI14ExpressionNodeSt14default_deleteIS0_ELb1ELb1EECI1St15__uniq_ptr_implIS0_S2_EEv>:
    374a:	f3 0f 1e fa          	endbr64
    374e:	55                   	push   %rbp
    374f:	48 89 e5             	mov    %rsp,%rbp
    3752:	48 83 ec 10          	sub    $0x10,%rsp
    3756:	48 89 7d f8          	mov    %rdi,-0x8(%rbp)
    375a:	48 8b 45 f8          	mov    -0x8(%rbp),%rax
    375e:	48 89 c7             	mov    %rax,%rdi
    3761:	e8 c4 ff ff ff       	call   372a <_ZNSt15__uniq_ptr_implI14ExpressionNodeSt14default_deleteIS0_EEC1Ev>
    3766:	90                   	nop
    3767:	c9                   	leave
    3768:	c3                   	ret
    3769:	90                   	nop

000000000000376a <_ZNSt5tupleIJP14ExpressionNodeSt14default_deleteIS0_EEEC1ILb1ELb1EEEv>:
    376a:	f3 0f 1e fa          	endbr64
    376e:	55                   	push   %rbp
    376f:	48 89 e5             	mov    %rsp,%rbp
    3772:	48 83 ec 10          	sub    $0x10,%rsp
    3776:	48 89 7d f8          	mov    %rdi,-0x8(%rbp)
    377a:	48 8b 45 f8          	mov    -0x8(%rbp),%rax
    377e:	48 89 c7             	mov    %rax,%rdi
    3781:	e8 04 00 00 00       	call   378a <_ZNSt11_Tuple_implILm0EJP14ExpressionNodeSt14default_deleteIS0_EEEC2Ev>
    3786:	90                   	nop
    3787:	c9                   	leave
    3788:	c3                   	ret
    3789:	90                   	nop

000000000000378a <_ZNSt11_Tuple_implILm0EJP14ExpressionNodeSt14default_deleteIS0_EEEC2Ev>:
    378a:	f3 0f 1e fa          	endbr64
    378e:	55                   	push   %rbp
    378f:	48 89 e5             	mov    %rsp,%rbp
    3792:	48 83 ec 10          	sub    $0x10,%rsp
    3796:	48 89 7d f8          	mov    %rdi,-0x8(%rbp)
    379a:	48 8b 45 f8          	mov    -0x8(%rbp),%rax
    379e:	48 89 c7             	mov    %rax,%rdi
    37a1:	e8 10 00 00 00       	call   37b6 <_ZNSt11_Tuple_implILm1EJSt14default_deleteI14ExpressionNodeEEEC2Ev>
    37a6:	48 8b 45 f8          	mov    -0x8(%rbp),%rax
    37aa:	48 89 c7             	mov    %rax,%rdi
    37ad:	e8 34 00 00 00       	call   37e6 <_ZNSt10_Head_baseILm0EP14ExpressionNodeLb0EEC2Ev>
    37b2:	90                   	nop
    37b3:	c9                   	leave
    37b4:	c3                   	ret
    37b5:	90                   	nop

00000000000037b6 <_ZNSt11_Tuple_implILm1EJSt14default_deleteI14ExpressionNodeEEEC2Ev>:
    37b6:	f3 0f 1e fa          	endbr64
    37ba:	55                   	push   %rbp
    37bb:	48 89 e5             	mov    %rsp,%rbp
    37be:	48 83 ec 10          	sub    $0x10,%rsp
    37c2:	48 89 7d f8          	mov    %rdi,-0x8(%rbp)
    37c6:	48 8b 45 f8          	mov    -0x8(%rbp),%rax
    37ca:	48 89 c7             	mov    %rax,%rdi
    37cd:	e8 04 00 00 00       	call   37d6 <_ZNSt10_Head_baseILm1ESt14default_deleteI14ExpressionNodeELb1EEC2Ev>
    37d2:	90                   	nop
    37d3:	c9                   	leave
    37d4:	c3                   	ret
    37d5:	90                   	nop

00000000000037d6 <_ZNSt10_Head_baseILm1ESt14default_deleteI14ExpressionNodeELb1EEC2Ev>:
    37d6:	f3 0f 1e fa          	endbr64
    37da:	55                   	push   %rbp
    37db:	48 89 e5             	mov    %rsp,%rbp
    37de:	48 89 7d f8          	mov    %rdi,-0x8(%rbp)
    37e2:	90                   	nop
    37e3:	5d                   	pop    %rbp
    37e4:	c3                   	ret
    37e5:	90                   	nop

00000000000037e6 <_ZNSt10_Head_baseILm0EP14ExpressionNodeLb0EEC2Ev>:
    37e6:	f3 0f 1e fa          	endbr64
    37ea:	55                   	push   %rbp
    37eb:	48 89 e5             	mov    %rsp,%rbp
    37ee:	48 89 7d f8          	mov    %rdi,-0x8(%rbp)
    37f2:	48 8b 45 f8          	mov    -0x8(%rbp),%rax
    37f6:	48 c7 00 00 00 00 00 	movq   $0x0,(%rax)
    37fd:	90                   	nop
    37fe:	5d                   	pop    %rbp
    37ff:	c3                   	ret

0000000000003800 <_ZN8CircuitoD1Ev>:
    3800:	f3 0f 1e fa          	endbr64
    3804:	55                   	push   %rbp
    3805:	48 89 e5             	mov    %rsp,%rbp
    3808:	48 83 ec 10          	sub    $0x10,%rsp
    380c:	48 89 7d f8          	mov    %rdi,-0x8(%rbp)
    3810:	48 8b 45 f8          	mov    -0x8(%rbp),%rax
    3814:	48 89 c7             	mov    %rax,%rdi
    3817:	e8 c6 05 00 00       	call   3de2 <_ZNSt6vectorI6bipoloSaIS0_EED1Ev>
    381c:	90                   	nop
    381d:	c9                   	leave
    381e:	c3                   	ret

000000000000381f <_ZNSt8__detail14__to_chars_lenIjEEjT_i>:
    381f:	f3 0f 1e fa          	endbr64
    3823:	55                   	push   %rbp
    3824:	48 89 e5             	mov    %rsp,%rbp
    3827:	89 7d dc             	mov    %edi,-0x24(%rbp)
    382a:	89 75 d8             	mov    %esi,-0x28(%rbp)
    382d:	c7 45 ec 01 00 00 00 	movl   $0x1,-0x14(%rbp)
    3834:	8b 45 d8             	mov    -0x28(%rbp),%eax
    3837:	0f af c0             	imul   %eax,%eax
    383a:	89 45 f0             	mov    %eax,-0x10(%rbp)
    383d:	8b 45 d8             	mov    -0x28(%rbp),%eax
    3840:	8b 55 f0             	mov    -0x10(%rbp),%edx
    3843:	0f af c2             	imul   %edx,%eax
    3846:	89 45 f4             	mov    %eax,-0xc(%rbp)
    3849:	8b 45 d8             	mov    -0x28(%rbp),%eax
    384c:	0f af 45 f4          	imul   -0xc(%rbp),%eax
    3850:	89 c0                	mov    %eax,%eax
    3852:	48 89 45 f8          	mov    %rax,-0x8(%rbp)
    3856:	8b 45 d8             	mov    -0x28(%rbp),%eax
    3859:	39 45 dc             	cmp    %eax,-0x24(%rbp)
    385c:	73 05                	jae    3863 <_ZNSt8__detail14__to_chars_lenIjEEjT_i+0x44>
    385e:	8b 45 ec             	mov    -0x14(%rbp),%eax
    3861:	eb 46                	jmp    38a9 <_ZNSt8__detail14__to_chars_lenIjEEjT_i+0x8a>
    3863:	8b 45 dc             	mov    -0x24(%rbp),%eax
    3866:	3b 45 f0             	cmp    -0x10(%rbp),%eax
    3869:	73 08                	jae    3873 <_ZNSt8__detail14__to_chars_lenIjEEjT_i+0x54>
    386b:	8b 45 ec             	mov    -0x14(%rbp),%eax
    386e:	83 c0 01             	add    $0x1,%eax
    3871:	eb 36                	jmp    38a9 <_ZNSt8__detail14__to_chars_lenIjEEjT_i+0x8a>
    3873:	8b 45 dc             	mov    -0x24(%rbp),%eax
    3876:	3b 45 f4             	cmp    -0xc(%rbp),%eax
    3879:	73 08                	jae    3883 <_ZNSt8__detail14__to_chars_lenIjEEjT_i+0x64>
    387b:	8b 45 ec             	mov    -0x14(%rbp),%eax
    387e:	83 c0 02             	add    $0x2,%eax
    3881:	eb 26                	jmp    38a9 <_ZNSt8__detail14__to_chars_lenIjEEjT_i+0x8a>
    3883:	8b 45 dc             	mov    -0x24(%rbp),%eax
    3886:	48 3b 45 f8          	cmp    -0x8(%rbp),%rax
    388a:	73 08                	jae    3894 <_ZNSt8__detail14__to_chars_lenIjEEjT_i+0x75>
    388c:	8b 45 ec             	mov    -0x14(%rbp),%eax
    388f:	83 c0 03             	add    $0x3,%eax
    3892:	eb 15                	jmp    38a9 <_ZNSt8__detail14__to_chars_lenIjEEjT_i+0x8a>
    3894:	8b 45 dc             	mov    -0x24(%rbp),%eax
    3897:	ba 00 00 00 00       	mov    $0x0,%edx
    389c:	48 f7 75 f8          	divq   -0x8(%rbp)
    38a0:	89 45 dc             	mov    %eax,-0x24(%rbp)
    38a3:	83 45 ec 04          	addl   $0x4,-0x14(%rbp)
    38a7:	eb ad                	jmp    3856 <_ZNSt8__detail14__to_chars_lenIjEEjT_i+0x37>
    38a9:	5d                   	pop    %rbp
    38aa:	c3                   	ret
    38ab:	90                   	nop

00000000000038ac <_ZNSt7__cxx1112basic_stringIcSt11char_traitsIcESaIcEE12_Alloc_hiderD1Ev>:
    38ac:	f3 0f 1e fa          	endbr64
    38b0:	55                   	push   %rbp
    38b1:	48 89 e5             	mov    %rsp,%rbp
    38b4:	48 83 ec 20          	sub    $0x20,%rsp
    38b8:	48 89 7d e8          	mov    %rdi,-0x18(%rbp)
    38bc:	48 8b 45 e8          	mov    -0x18(%rbp),%rax
    38c0:	48 89 45 f8          	mov    %rax,-0x8(%rbp)
    38c4:	48 8b 45 f8          	mov    -0x8(%rbp),%rax
    38c8:	48 89 c7             	mov    %rax,%rdi
    38cb:	e8 f6 13 00 00       	call   4cc6 <_ZNSt15__new_allocatorIcED1Ev>
    38d0:	90                   	nop
    38d1:	90                   	nop
    38d2:	c9                   	leave
    38d3:	c3                   	ret

00000000000038d4 <_ZNSt7__cxx1112basic_stringIcSt11char_traitsIcESaIcEEC1IS3_EEmcRKS3_>:
    38d4:	f3 0f 1e fa          	endbr64
    38d8:	55                   	push   %rbp
    38d9:	48 89 e5             	mov    %rsp,%rbp
    38dc:	53                   	push   %rbx
    38dd:	48 83 ec 28          	sub    $0x28,%rsp
    38e1:	48 89 7d e8          	mov    %rdi,-0x18(%rbp)
    38e5:	48 89 75 e0          	mov    %rsi,-0x20(%rbp)
    38e9:	89 d0                	mov    %edx,%eax
    38eb:	48 89 4d d0          	mov    %rcx,-0x30(%rbp)
    38ef:	88 45 dc             	mov    %al,-0x24(%rbp)
    38f2:	48 8b 5d e8          	mov    -0x18(%rbp),%rbx
    38f6:	48 8b 45 e8          	mov    -0x18(%rbp),%rax
    38fa:	48 89 c7             	mov    %rax,%rdi
    38fd:	e8 be e9 ff ff       	call   22c0 <_ZNSt7__cxx1112basic_stringIcSt11char_traitsIcESaIcEE13_M_local_dataEv@plt>
    3902:	48 89 c1             	mov    %rax,%rcx
    3905:	48 8b 45 d0          	mov    -0x30(%rbp),%rax
    3909:	48 89 c2             	mov    %rax,%rdx
    390c:	48 89 ce             	mov    %rcx,%rsi
    390f:	48 89 df             	mov    %rbx,%rdi
    3912:	e8 09 ea ff ff       	call   2320 <_ZNSt7__cxx1112basic_stringIcSt11char_traitsIcESaIcEE12_Alloc_hiderC1EPcRKS3_@plt>
    3917:	0f be 55 dc          	movsbl -0x24(%rbp),%edx
    391b:	48 8b 4d e0          	mov    -0x20(%rbp),%rcx
    391f:	48 8b 45 e8          	mov    -0x18(%rbp),%rax
    3923:	48 89 ce             	mov    %rcx,%rsi
    3926:	48 89 c7             	mov    %rax,%rdi
    3929:	e8 22 ea ff ff       	call   2350 <_ZNSt7__cxx1112basic_stringIcSt11char_traitsIcESaIcEE12_M_constructEmc@plt>
    392e:	eb 1e                	jmp    394e <_ZNSt7__cxx1112basic_stringIcSt11char_traitsIcESaIcEEC1IS3_EEmcRKS3_+0x7a>
    3930:	f3 0f 1e fa          	endbr64
    3934:	48 89 c3             	mov    %rax,%rbx
    3937:	48 8b 45 e8          	mov    -0x18(%rbp),%rax
    393b:	48 89 c7             	mov    %rax,%rdi
    393e:	e8 69 ff ff ff       	call   38ac <_ZNSt7__cxx1112basic_stringIcSt11char_traitsIcESaIcEE12_Alloc_hiderD1Ev>
    3943:	48 89 d8             	mov    %rbx,%rax
    3946:	48 89 c7             	mov    %rax,%rdi
    3949:	e8 52 ea ff ff       	call   23a0 <_Unwind_Resume@plt>
    394e:	48 8b 5d f8          	mov    -0x8(%rbp),%rbx
    3952:	c9                   	leave
    3953:	c3                   	ret

0000000000003954 <_ZNSt8__detail18__to_chars_10_implIjEEvPcjT_>:
    3954:	f3 0f 1e fa          	endbr64
    3958:	55                   	push   %rbp
    3959:	48 89 e5             	mov    %rsp,%rbp
    395c:	48 81 ec 00 01 00 00 	sub    $0x100,%rsp
    3963:	48 89 bd 08 ff ff ff 	mov    %rdi,-0xf8(%rbp)
    396a:	89 b5 04 ff ff ff    	mov    %esi,-0xfc(%rbp)
    3970:	89 95 00 ff ff ff    	mov    %edx,-0x100(%rbp)
    3976:	64 48 8b 04 25 28 00 	mov    %fs:0x28,%rax
    397d:	00 00 
    397f:	48 89 45 f8          	mov    %rax,-0x8(%rbp)
    3983:	31 c0                	xor    %eax,%eax
    3985:	48 b8 30 30 30 31 30 	movabs $0x3330323031303030,%rax
    398c:	32 30 33 
    398f:	48 ba 30 34 30 35 30 	movabs $0x3730363035303430,%rdx
    3996:	36 30 37 
    3999:	48 89 85 20 ff ff ff 	mov    %rax,-0xe0(%rbp)
    39a0:	48 89 95 28 ff ff ff 	mov    %rdx,-0xd8(%rbp)
    39a7:	48 b8 30 38 30 39 31 	movabs $0x3131303139303830,%rax
    39ae:	30 31 31 
    39b1:	48 ba 31 32 31 33 31 	movabs $0x3531343133313231,%rdx
    39b8:	34 31 35 
    39bb:	48 89 85 30 ff ff ff 	mov    %rax,-0xd0(%rbp)
    39c2:	48 89 95 38 ff ff ff 	mov    %rdx,-0xc8(%rbp)
    39c9:	48 b8 31 36 31 37 31 	movabs $0x3931383137313631,%rax
    39d0:	38 31 39 
    39d3:	48 ba 32 30 32 31 32 	movabs $0x3332323231323032,%rdx
    39da:	32 32 33 
    39dd:	48 89 85 40 ff ff ff 	mov    %rax,-0xc0(%rbp)
    39e4:	48 89 95 48 ff ff ff 	mov    %rdx,-0xb8(%rbp)
    39eb:	48 b8 32 34 32 35 32 	movabs $0x3732363235323432,%rax
    39f2:	36 32 37 
    39f5:	48 ba 32 38 32 39 33 	movabs $0x3133303339323832,%rdx
    39fc:	30 33 31 
    39ff:	48 89 85 50 ff ff ff 	mov    %rax,-0xb0(%rbp)
    3a06:	48 89 95 58 ff ff ff 	mov    %rdx,-0xa8(%rbp)
    3a0d:	48 b8 33 32 33 33 33 	movabs $0x3533343333333233,%rax
    3a14:	34 33 35 
    3a17:	48 ba 33 36 33 37 33 	movabs $0x3933383337333633,%rdx
    3a1e:	38 33 39 
    3a21:	48 89 85 60 ff ff ff 	mov    %rax,-0xa0(%rbp)
    3a28:	48 89 95 68 ff ff ff 	mov    %rdx,-0x98(%rbp)
    3a2f:	48 b8 34 30 34 31 34 	movabs $0x3334323431343034,%rax
    3a36:	32 34 33 
    3a39:	48 ba 34 34 34 35 34 	movabs $0x3734363435343434,%rdx
    3a40:	36 34 37 
    3a43:	48 89 85 70 ff ff ff 	mov    %rax,-0x90(%rbp)
    3a4a:	48 89 95 78 ff ff ff 	mov    %rdx,-0x88(%rbp)
    3a51:	48 b8 34 38 34 39 35 	movabs $0x3135303539343834,%rax
    3a58:	30 35 31 
    3a5b:	48 ba 35 32 35 33 35 	movabs $0x3535343533353235,%rdx
    3a62:	34 35 35 
    3a65:	48 89 45 80          	mov    %rax,-0x80(%rbp)
    3a69:	48 89 55 88          	mov    %rdx,-0x78(%rbp)
    3a6d:	48 b8 35 36 35 37 35 	movabs $0x3935383537353635,%rax
    3a74:	38 35 39 
    3a77:	48 ba 36 30 36 31 36 	movabs $0x3336323631363036,%rdx
    3a7e:	32 36 33 
    3a81:	48 89 45 90          	mov    %rax,-0x70(%rbp)
    3a85:	48 89 55 98          	mov    %rdx,-0x68(%rbp)
    3a89:	48 b8 36 34 36 35 36 	movabs $0x3736363635363436,%rax
    3a90:	36 36 37 
    3a93:	48 ba 36 38 36 39 37 	movabs $0x3137303739363836,%rdx
    3a9a:	30 37 31 
    3a9d:	48 89 45 a0          	mov    %rax,-0x60(%rbp)
    3aa1:	48 89 55 a8          	mov    %rdx,-0x58(%rbp)
    3aa5:	48 b8 37 32 37 33 37 	movabs $0x3537343733373237,%rax
    3aac:	34 37 35 
    3aaf:	48 ba 37 36 37 37 37 	movabs $0x3937383737373637,%rdx
    3ab6:	38 37 39 
    3ab9:	48 89 45 b0          	mov    %rax,-0x50(%rbp)
    3abd:	48 89 55 b8          	mov    %rdx,-0x48(%rbp)
    3ac1:	48 b8 38 30 38 31 38 	movabs $0x3338323831383038,%rax
    3ac8:	32 38 33 
    3acb:	48 ba 38 34 38 35 38 	movabs $0x3738363835383438,%rdx
    3ad2:	36 38 37 
    3ad5:	48 89 45 c0          	mov    %rax,-0x40(%rbp)
    3ad9:	48 89 55 c8          	mov    %rdx,-0x38(%rbp)
    3add:	48 b8 38 38 38 39 39 	movabs $0x3139303939383838,%rax
    3ae4:	30 39 31 
    3ae7:	48 ba 39 32 39 33 39 	movabs $0x3539343933393239,%rdx
    3aee:	34 39 35 
    3af1:	48 89 45 d0          	mov    %rax,-0x30(%rbp)
    3af5:	48 89 55 d8          	mov    %rdx,-0x28(%rbp)
    3af9:	48 b8 32 39 33 39 34 	movabs $0x3935393439333932,%rax
    3b00:	39 35 39 
    3b03:	48 ba 36 39 37 39 38 	movabs $0x39393839373936,%rdx
    3b0a:	39 39 00 
    3b0d:	48 89 45 d9          	mov    %rax,-0x27(%rbp)
    3b11:	48 89 55 e1          	mov    %rdx,-0x1f(%rbp)
    3b15:	8b 85 04 ff ff ff    	mov    -0xfc(%rbp),%eax
    3b1b:	83 e8 01             	sub    $0x1,%eax
    3b1e:	89 85 14 ff ff ff    	mov    %eax,-0xec(%rbp)
    3b24:	e9 92 00 00 00       	jmp    3bbb <_ZNSt8__detail18__to_chars_10_implIjEEvPcjT_+0x267>
    3b29:	8b 8d 00 ff ff ff    	mov    -0x100(%rbp),%ecx
    3b2f:	89 c8                	mov    %ecx,%eax
    3b31:	48 69 c0 1f 85 eb 51 	imul   $0x51eb851f,%rax,%rax
    3b38:	48 c1 e8 20          	shr    $0x20,%rax
    3b3c:	c1 e8 05             	shr    $0x5,%eax
    3b3f:	6b d0 64             	imul   $0x64,%eax,%edx
    3b42:	89 c8                	mov    %ecx,%eax
    3b44:	29 d0                	sub    %edx,%eax
    3b46:	01 c0                	add    %eax,%eax
    3b48:	89 85 1c ff ff ff    	mov    %eax,-0xe4(%rbp)
    3b4e:	8b 85 00 ff ff ff    	mov    -0x100(%rbp),%eax
    3b54:	89 c0                	mov    %eax,%eax
    3b56:	48 69 c0 1f 85 eb 51 	imul   $0x51eb851f,%rax,%rax
    3b5d:	48 c1 e8 20          	shr    $0x20,%rax
    3b61:	c1 e8 05             	shr    $0x5,%eax
    3b64:	89 85 00 ff ff ff    	mov    %eax,-0x100(%rbp)
    3b6a:	8b 85 1c ff ff ff    	mov    -0xe4(%rbp),%eax
    3b70:	8d 48 01             	lea    0x1(%rax),%ecx
    3b73:	8b 95 14 ff ff ff    	mov    -0xec(%rbp),%edx
    3b79:	48 8b 85 08 ff ff ff 	mov    -0xf8(%rbp),%rax
    3b80:	48 01 c2             	add    %rax,%rdx
    3b83:	89 c8                	mov    %ecx,%eax
    3b85:	0f b6 84 05 20 ff ff 	movzbl -0xe0(%rbp,%rax,1),%eax
    3b8c:	ff 
    3b8d:	88 02                	mov    %al,(%rdx)
    3b8f:	8b 85 14 ff ff ff    	mov    -0xec(%rbp),%eax
    3b95:	83 e8 01             	sub    $0x1,%eax
    3b98:	89 c2                	mov    %eax,%edx
    3b9a:	48 8b 85 08 ff ff ff 	mov    -0xf8(%rbp),%rax
    3ba1:	48 01 c2             	add    %rax,%rdx
    3ba4:	8b 85 1c ff ff ff    	mov    -0xe4(%rbp),%eax
    3baa:	0f b6 84 05 20 ff ff 	movzbl -0xe0(%rbp,%rax,1),%eax
    3bb1:	ff 
    3bb2:	88 02                	mov    %al,(%rdx)
    3bb4:	83 ad 14 ff ff ff 02 	subl   $0x2,-0xec(%rbp)
    3bbb:	83 bd 00 ff ff ff 63 	cmpl   $0x63,-0x100(%rbp)
    3bc2:	0f 87 61 ff ff ff    	ja     3b29 <_ZNSt8__detail18__to_chars_10_implIjEEvPcjT_+0x1d5>
    3bc8:	83 bd 00 ff ff ff 09 	cmpl   $0x9,-0x100(%rbp)
    3bcf:	76 47                	jbe    3c18 <_ZNSt8__detail18__to_chars_10_implIjEEvPcjT_+0x2c4>
    3bd1:	8b 85 00 ff ff ff    	mov    -0x100(%rbp),%eax
    3bd7:	01 c0                	add    %eax,%eax
    3bd9:	89 85 18 ff ff ff    	mov    %eax,-0xe8(%rbp)
    3bdf:	8b 85 18 ff ff ff    	mov    -0xe8(%rbp),%eax
    3be5:	8d 48 01             	lea    0x1(%rax),%ecx
    3be8:	48 8b 85 08 ff ff ff 	mov    -0xf8(%rbp),%rax
    3bef:	48 8d 50 01          	lea    0x1(%rax),%rdx
    3bf3:	89 c8                	mov    %ecx,%eax
    3bf5:	0f b6 84 05 20 ff ff 	movzbl -0xe0(%rbp,%rax,1),%eax
    3bfc:	ff 
    3bfd:	88 02                	mov    %al,(%rdx)
    3bff:	8b 85 18 ff ff ff    	mov    -0xe8(%rbp),%eax
    3c05:	0f b6 94 05 20 ff ff 	movzbl -0xe0(%rbp,%rax,1),%edx
    3c0c:	ff 
    3c0d:	48 8b 85 08 ff ff ff 	mov    -0xf8(%rbp),%rax
    3c14:	88 10                	mov    %dl,(%rax)
    3c16:	eb 14                	jmp    3c2c <_ZNSt8__detail18__to_chars_10_implIjEEvPcjT_+0x2d8>
    3c18:	8b 85 00 ff ff ff    	mov    -0x100(%rbp),%eax
    3c1e:	83 c0 30             	add    $0x30,%eax
    3c21:	89 c2                	mov    %eax,%edx
    3c23:	48 8b 85 08 ff ff ff 	mov    -0xf8(%rbp),%rax
    3c2a:	88 10                	mov    %dl,(%rax)
    3c2c:	90                   	nop
    3c2d:	48 8b 45 f8          	mov    -0x8(%rbp),%rax
    3c31:	64 48 2b 04 25 28 00 	sub    %fs:0x28,%rax
    3c38:	00 00 
    3c3a:	74 05                	je     3c41 <_ZNSt8__detail18__to_chars_10_implIjEEvPcjT_+0x2ed>
    3c3c:	e8 ef e6 ff ff       	call   2330 <__stack_chk_fail@plt>
    3c41:	c9                   	leave
    3c42:	c3                   	ret

0000000000003c43 <_ZStplIcSt11char_traitsIcESaIcEENSt7__cxx1112basic_stringIT_T0_T1_EEPKS5_OS8_>:
    3c43:	f3 0f 1e fa          	endbr64
    3c47:	55                   	push   %rbp
    3c48:	48 89 e5             	mov    %rsp,%rbp
    3c4b:	48 83 ec 20          	sub    $0x20,%rsp
    3c4f:	48 89 7d f8          	mov    %rdi,-0x8(%rbp)
    3c53:	48 89 75 f0          	mov    %rsi,-0x10(%rbp)
    3c57:	48 89 55 e8          	mov    %rdx,-0x18(%rbp)
    3c5b:	48 8b 55 f0          	mov    -0x10(%rbp),%rdx
    3c5f:	48 8b 45 e8          	mov    -0x18(%rbp),%rax
    3c63:	be 00 00 00 00       	mov    $0x0,%esi
    3c68:	48 89 c7             	mov    %rax,%rdi
    3c6b:	e8 b0 e5 ff ff       	call   2220 <_ZNSt7__cxx1112basic_stringIcSt11char_traitsIcESaIcEE6insertEmPKc@plt>
    3c70:	48 89 c7             	mov    %rax,%rdi
    3c73:	e8 5d 10 00 00       	call   4cd5 <_ZSt4moveIRNSt7__cxx1112basic_stringIcSt11char_traitsIcESaIcEEEEONSt16remove_referenceIT_E4typeEOS8_>
    3c78:	48 89 c2             	mov    %rax,%rdx
    3c7b:	48 8b 45 f8          	mov    -0x8(%rbp),%rax
    3c7f:	48 89 d6             	mov    %rdx,%rsi
    3c82:	48 89 c7             	mov    %rax,%rdi
    3c85:	e8 e6 e5 ff ff       	call   2270 <_ZNSt7__cxx1112basic_stringIcSt11char_traitsIcESaIcEEC1EOS4_@plt>
    3c8a:	48 8b 45 f8          	mov    -0x8(%rbp),%rax
    3c8e:	c9                   	leave
    3c8f:	c3                   	ret

0000000000003c90 <_ZSt3maxImERKT_S2_S2_>:
    3c90:	f3 0f 1e fa          	endbr64
    3c94:	55                   	push   %rbp
    3c95:	48 89 e5             	mov    %rsp,%rbp
    3c98:	48 89 7d f8          	mov    %rdi,-0x8(%rbp)
    3c9c:	48 89 75 f0          	mov    %rsi,-0x10(%rbp)
    3ca0:	48 8b 45 f8          	mov    -0x8(%rbp),%rax
    3ca4:	48 8b 10             	mov    (%rax),%rdx
    3ca7:	48 8b 45 f0          	mov    -0x10(%rbp),%rax
    3cab:	48 8b 00             	mov    (%rax),%rax
    3cae:	48 39 c2             	cmp    %rax,%rdx
    3cb1:	73 06                	jae    3cb9 <_ZSt3maxImERKT_S2_S2_+0x29>
    3cb3:	48 8b 45 f0          	mov    -0x10(%rbp),%rax
    3cb7:	eb 04                	jmp    3cbd <_ZSt3maxImERKT_S2_S2_+0x2d>
    3cb9:	48 8b 45 f8          	mov    -0x8(%rbp),%rax
    3cbd:	5d                   	pop    %rbp
    3cbe:	c3                   	ret
    3cbf:	90                   	nop

0000000000003cc0 <_ZN5Eigen8symbolic10SymbolExprINS_8internal17symbolic_last_tagEEC1Ev>:
    3cc0:	f3 0f 1e fa          	endbr64
    3cc4:	55                   	push   %rbp
    3cc5:	48 89 e5             	mov    %rsp,%rbp
    3cc8:	48 89 7d f8          	mov    %rdi,-0x8(%rbp)
    3ccc:	90                   	nop
    3ccd:	5d                   	pop    %rbp
    3cce:	c3                   	ret
    3ccf:	90                   	nop

0000000000003cd0 <_ZN5Eigen8internal8FixedIntILi1EEC1Ev>:
    3cd0:	f3 0f 1e fa          	endbr64
    3cd4:	55                   	push   %rbp
    3cd5:	48 89 e5             	mov    %rsp,%rbp
    3cd8:	48 89 7d f8          	mov    %rdi,-0x8(%rbp)
    3cdc:	90                   	nop
    3cdd:	5d                   	pop    %rbp
    3cde:	c3                   	ret
    3cdf:	90                   	nop

0000000000003ce0 <_ZNK5Eigen8internal8FixedIntILi1EEclEv>:
    3ce0:	f3 0f 1e fa          	endbr64
    3ce4:	55                   	push   %rbp
    3ce5:	48 89 e5             	mov    %rsp,%rbp
    3ce8:	48 89 7d f8          	mov    %rdi,-0x8(%rbp)
    3cec:	90                   	nop
    3ced:	5d                   	pop    %rbp
    3cee:	c3                   	ret
    3cef:	90                   	nop

0000000000003cf0 <_ZNK5Eigen8symbolic8BaseExprINS0_10SymbolExprINS_8internal17symbolic_last_tagEEEEplILi1EEENS0_7AddExprIS5_NS0_9ValueExprINS3_8FixedIntIXT_EEEEEEESB_>:
    3cf0:	f3 0f 1e fa          	endbr64
    3cf4:	55                   	push   %rbp
    3cf5:	48 89 e5             	mov    %rsp,%rbp
    3cf8:	48 83 ec 20          	sub    $0x20,%rsp
    3cfc:	48 89 7d e8          	mov    %rdi,-0x18(%rbp)
    3d00:	64 48 8b 04 25 28 00 	mov    %fs:0x28,%rax
    3d07:	00 00 
    3d09:	48 89 45 f8          	mov    %rax,-0x8(%rbp)
    3d0d:	31 c0                	xor    %eax,%eax
    3d0f:	48 8d 45 f5          	lea    -0xb(%rbp),%rax
    3d13:	48 89 c7             	mov    %rax,%rdi
    3d16:	e8 03 10 00 00       	call   4d1e <_ZN5Eigen8symbolic9ValueExprINS_8internal8FixedIntILi1EEEEC1Ev>
    3d1b:	48 8b 45 e8          	mov    -0x18(%rbp),%rax
    3d1f:	48 89 c7             	mov    %rax,%rdi
    3d22:	e8 e5 0f 00 00       	call   4d0c <_ZNK5Eigen8symbolic8BaseExprINS0_10SymbolExprINS_8internal17symbolic_last_tagEEEE7derivedEv>
    3d27:	48 89 c1             	mov    %rax,%rcx
    3d2a:	48 8d 55 f5          	lea    -0xb(%rbp),%rdx
    3d2e:	48 8d 45 f6          	lea    -0xa(%rbp),%rax
    3d32:	48 89 ce             	mov    %rcx,%rsi
    3d35:	48 89 c7             	mov    %rax,%rdi
    3d38:	e8 f1 0f 00 00       	call   4d2e <_ZN5Eigen8symbolic7AddExprINS0_10SymbolExprINS_8internal17symbolic_last_tagEEENS0_9ValueExprINS3_8FixedIntILi1EEEEEEC1ERKS5_RKS9_>
    3d3d:	90                   	nop
    3d3e:	48 8b 45 f8          	mov    -0x8(%rbp),%rax
    3d42:	64 48 2b 04 25 28 00 	sub    %fs:0x28,%rax
    3d49:	00 00 
    3d4b:	74 05                	je     3d52 <_ZNK5Eigen8symbolic8BaseExprINS0_10SymbolExprINS_8internal17symbolic_last_tagEEEEplILi1EEENS0_7AddExprIS5_NS0_9ValueExprINS3_8FixedIntIXT_EEEEEEESB_+0x62>
    3d4d:	e8 de e5 ff ff       	call   2330 <__stack_chk_fail@plt>
    3d52:	c9                   	leave
    3d53:	c3                   	ret

0000000000003d54 <_ZNSt12_Vector_baseI6bipoloSaIS0_EE12_Vector_implC1Ev>:
    3d54:	f3 0f 1e fa          	endbr64
    3d58:	55                   	push   %rbp
    3d59:	48 89 e5             	mov    %rsp,%rbp
    3d5c:	48 83 ec 20          	sub    $0x20,%rsp
    3d60:	48 89 7d e8          	mov    %rdi,-0x18(%rbp)
    3d64:	48 8b 45 e8          	mov    -0x18(%rbp),%rax
    3d68:	48 89 45 f0          	mov    %rax,-0x10(%rbp)
    3d6c:	48 8b 45 f0          	mov    -0x10(%rbp),%rax
    3d70:	48 89 45 f8          	mov    %rax,-0x8(%rbp)
    3d74:	90                   	nop
    3d75:	90                   	nop
    3d76:	48 8b 45 e8          	mov    -0x18(%rbp),%rax
    3d7a:	48 89 c7             	mov    %rax,%rdi
    3d7d:	e8 c4 0f 00 00       	call   4d46 <_ZNSt12_Vector_baseI6bipoloSaIS0_EE17_Vector_impl_dataC1Ev>
    3d82:	90                   	nop
    3d83:	c9                   	leave
    3d84:	c3                   	ret
    3d85:	90                   	nop

0000000000003d86 <_ZNSt12_Vector_baseI6bipoloSaIS0_EED1Ev>:
    3d86:	f3 0f 1e fa          	endbr64
    3d8a:	55                   	push   %rbp
    3d8b:	48 89 e5             	mov    %rsp,%rbp
    3d8e:	48 83 ec 10          	sub    $0x10,%rsp
    3d92:	48 89 7d f8          	mov    %rdi,-0x8(%rbp)
    3d96:	48 8b 45 f8          	mov    -0x8(%rbp),%rax
    3d9a:	48 8b 50 10          	mov    0x10(%rax),%rdx
    3d9e:	48 8b 45 f8          	mov    -0x8(%rbp),%rax
    3da2:	48 8b 00             	mov    (%rax),%rax
    3da5:	48 29 c2             	sub    %rax,%rdx
    3da8:	48 c1 fa 03          	sar    $0x3,%rdx
    3dac:	48 b8 b7 6d db b6 6d 	movabs $0x6db6db6db6db6db7,%rax
    3db3:	db b6 6d 
    3db6:	48 0f af c2          	imul   %rdx,%rax
    3dba:	48 89 c2             	mov    %rax,%rdx
    3dbd:	48 8b 45 f8          	mov    -0x8(%rbp),%rax
    3dc1:	48 8b 08             	mov    (%rax),%rcx
    3dc4:	48 8b 45 f8          	mov    -0x8(%rbp),%rax
    3dc8:	48 89 ce             	mov    %rcx,%rsi
    3dcb:	48 89 c7             	mov    %rax,%rdi
    3dce:	e8 b5 0f 00 00       	call   4d88 <_ZNSt12_Vector_baseI6bipoloSaIS0_EE13_M_deallocateEPS0_m>
    3dd3:	48 8b 45 f8          	mov    -0x8(%rbp),%rax
    3dd7:	48 89 c7             	mov    %rax,%rdi
    3dda:	e8 81 f3 ff ff       	call   3160 <_ZNSt12_Vector_baseI6bipoloSaIS0_EE12_Vector_implD1Ev>
    3ddf:	90                   	nop
    3de0:	c9                   	leave
    3de1:	c3                   	ret

0000000000003de2 <_ZNSt6vectorI6bipoloSaIS0_EED1Ev>:
    3de2:	f3 0f 1e fa          	endbr64
    3de6:	55                   	push   %rbp
    3de7:	48 89 e5             	mov    %rsp,%rbp
    3dea:	48 83 ec 30          	sub    $0x30,%rsp
    3dee:	48 89 7d d8          	mov    %rdi,-0x28(%rbp)
    3df2:	48 8b 45 d8          	mov    -0x28(%rbp),%rax
    3df6:	48 89 c7             	mov    %rax,%rdi
    3df9:	e8 dc 0f 00 00       	call   4dda <_ZNSt12_Vector_baseI6bipoloSaIS0_EE19_M_get_Tp_allocatorEv>
    3dfe:	48 8b 55 d8          	mov    -0x28(%rbp),%rdx
    3e02:	48 8b 52 08          	mov    0x8(%rdx),%rdx
    3e06:	48 8b 4d d8          	mov    -0x28(%rbp),%rcx
    3e0a:	48 8b 09             	mov    (%rcx),%rcx
    3e0d:	48 89 4d e8          	mov    %rcx,-0x18(%rbp)
    3e11:	48 89 55 f0          	mov    %rdx,-0x10(%rbp)
    3e15:	48 89 45 f8          	mov    %rax,-0x8(%rbp)
    3e19:	48 8b 55 f0          	mov    -0x10(%rbp),%rdx
    3e1d:	48 8b 45 e8          	mov    -0x18(%rbp),%rax
    3e21:	48 89 d6             	mov    %rdx,%rsi
    3e24:	48 89 c7             	mov    %rax,%rdi
    3e27:	e8 8c 26 00 00       	call   64b8 <_ZSt8_DestroyIP6bipoloEvT_S2_>
    3e2c:	90                   	nop
    3e2d:	48 8b 45 d8          	mov    -0x28(%rbp),%rax
    3e31:	48 89 c7             	mov    %rax,%rdi
    3e34:	e8 4d ff ff ff       	call   3d86 <_ZNSt12_Vector_baseI6bipoloSaIS0_EED1Ev>
    3e39:	90                   	nop
    3e3a:	c9                   	leave
    3e3b:	c3                   	ret

0000000000003e3c <_ZNSt6vectorI6bipoloSaIS0_EE12emplace_backIJRiRKNSt7__cxx1112basic_stringIcSt11char_traitsIcESaIcEEER4TipoRfS4_S4_EEERS0_DpOT_>:
    3e3c:	f3 0f 1e fa          	endbr64
    3e40:	55                   	push   %rbp
    3e41:	48 89 e5             	mov    %rsp,%rbp
    3e44:	41 57                	push   %r15
    3e46:	41 56                	push   %r14
    3e48:	41 55                	push   %r13
    3e4a:	41 54                	push   %r12
    3e4c:	53                   	push   %rbx
    3e4d:	48 81 ec c8 00 00 00 	sub    $0xc8,%rsp
    3e54:	48 89 bd 48 ff ff ff 	mov    %rdi,-0xb8(%rbp)
    3e5b:	48 89 b5 40 ff ff ff 	mov    %rsi,-0xc0(%rbp)
    3e62:	48 89 95 38 ff ff ff 	mov    %rdx,-0xc8(%rbp)
    3e69:	48 89 8d 30 ff ff ff 	mov    %rcx,-0xd0(%rbp)
    3e70:	4c 89 85 28 ff ff ff 	mov    %r8,-0xd8(%rbp)
    3e77:	4c 89 8d 20 ff ff ff 	mov    %r9,-0xe0(%rbp)
    3e7e:	48 8b 85 48 ff ff ff 	mov    -0xb8(%rbp),%rax
    3e85:	48 8b 50 08          	mov    0x8(%rax),%rdx
    3e89:	48 8b 85 48 ff ff ff 	mov    -0xb8(%rbp),%rax
    3e90:	48 8b 40 10          	mov    0x10(%rax),%rax
    3e94:	48 39 c2             	cmp    %rax,%rdx
    3e97:	0f 84 23 02 00 00    	je     40c0 <_ZNSt6vectorI6bipoloSaIS0_EE12emplace_backIJRiRKNSt7__cxx1112basic_stringIcSt11char_traitsIcESaIcEEER4TipoRfS4_S4_EEERS0_DpOT_+0x284>
    3e9d:	48 8b 45 10          	mov    0x10(%rbp),%rax
    3ea1:	48 89 c7             	mov    %rax,%rdi
    3ea4:	e8 43 0f 00 00       	call   4dec <_ZSt7forwardIRiEOT_RNSt16remove_referenceIS1_E4typeE>
    3ea9:	48 89 c3             	mov    %rax,%rbx
    3eac:	48 8b 85 20 ff ff ff 	mov    -0xe0(%rbp),%rax
    3eb3:	48 89 c7             	mov    %rax,%rdi
    3eb6:	e8 31 0f 00 00       	call   4dec <_ZSt7forwardIRiEOT_RNSt16remove_referenceIS1_E4typeE>
    3ebb:	49 89 c4             	mov    %rax,%r12
    3ebe:	48 8b 85 28 ff ff ff 	mov    -0xd8(%rbp),%rax
    3ec5:	48 89 c7             	mov    %rax,%rdi
    3ec8:	e8 55 0f 00 00       	call   4e22 <_ZSt7forwardIRfEOT_RNSt16remove_referenceIS1_E4typeE>
    3ecd:	49 89 c5             	mov    %rax,%r13
    3ed0:	48 8b 85 30 ff ff ff 	mov    -0xd0(%rbp),%rax
    3ed7:	48 89 c7             	mov    %rax,%rdi
    3eda:	e8 31 0f 00 00       	call   4e10 <_ZSt7forwardIR4TipoEOT_RNSt16remove_referenceIS2_E4typeE>
    3edf:	49 89 c6             	mov    %rax,%r14
    3ee2:	48 8b 85 38 ff ff ff 	mov    -0xc8(%rbp),%rax
    3ee9:	48 89 c7             	mov    %rax,%rdi
    3eec:	e8 0d 0f 00 00       	call   4dfe <_ZSt7forwardIRKNSt7__cxx1112basic_stringIcSt11char_traitsIcESaIcEEEEOT_RNSt16remove_referenceIS8_E4typeE>
    3ef1:	49 89 c7             	mov    %rax,%r15
    3ef4:	48 8b 85 40 ff ff ff 	mov    -0xc0(%rbp),%rax
    3efb:	48 89 c7             	mov    %rax,%rdi
    3efe:	e8 e9 0e 00 00       	call   4dec <_ZSt7forwardIRiEOT_RNSt16remove_referenceIS1_E4typeE>
    3f03:	48 8b 95 48 ff ff ff 	mov    -0xb8(%rbp),%rdx
    3f0a:	48 8b 52 08          	mov    0x8(%rdx),%rdx
    3f0e:	48 8b 8d 48 ff ff ff 	mov    -0xb8(%rbp),%rcx
    3f15:	48 89 8d 50 ff ff ff 	mov    %rcx,-0xb0(%rbp)
    3f1c:	48 89 95 58 ff ff ff 	mov    %rdx,-0xa8(%rbp)
    3f23:	48 89 85 60 ff ff ff 	mov    %rax,-0xa0(%rbp)
    3f2a:	4c 89 bd 68 ff ff ff 	mov    %r15,-0x98(%rbp)
    3f31:	4c 89 b5 70 ff ff ff 	mov    %r14,-0x90(%rbp)
    3f38:	4c 89 ad 78 ff ff ff 	mov    %r13,-0x88(%rbp)
    3f3f:	4c 89 65 80          	mov    %r12,-0x80(%rbp)
    3f43:	48 89 5d 88          	mov    %rbx,-0x78(%rbp)
    3f47:	48 8b 45 88          	mov    -0x78(%rbp),%rax
    3f4b:	48 89 c7             	mov    %rax,%rdi
    3f4e:	e8 99 0e 00 00       	call   4dec <_ZSt7forwardIRiEOT_RNSt16remove_referenceIS1_E4typeE>
    3f53:	48 89 c3             	mov    %rax,%rbx
    3f56:	48 8b 45 80          	mov    -0x80(%rbp),%rax
    3f5a:	48 89 c7             	mov    %rax,%rdi
    3f5d:	e8 8a 0e 00 00       	call   4dec <_ZSt7forwardIRiEOT_RNSt16remove_referenceIS1_E4typeE>
    3f62:	49 89 c4             	mov    %rax,%r12
    3f65:	48 8b 85 78 ff ff ff 	mov    -0x88(%rbp),%rax
    3f6c:	48 89 c7             	mov    %rax,%rdi
    3f6f:	e8 ae 0e 00 00       	call   4e22 <_ZSt7forwardIRfEOT_RNSt16remove_referenceIS1_E4typeE>
    3f74:	49 89 c5             	mov    %rax,%r13
    3f77:	48 8b 85 70 ff ff ff 	mov    -0x90(%rbp),%rax
    3f7e:	48 89 c7             	mov    %rax,%rdi
    3f81:	e8 8a 0e 00 00       	call   4e10 <_ZSt7forwardIR4TipoEOT_RNSt16remove_referenceIS2_E4typeE>
    3f86:	49 89 c6             	mov    %rax,%r14
    3f89:	48 8b 85 68 ff ff ff 	mov    -0x98(%rbp),%rax
    3f90:	48 89 c7             	mov    %rax,%rdi
    3f93:	e8 66 0e 00 00       	call   4dfe <_ZSt7forwardIRKNSt7__cxx1112basic_stringIcSt11char_traitsIcESaIcEEEEOT_RNSt16remove_referenceIS8_E4typeE>
    3f98:	49 89 c7             	mov    %rax,%r15
    3f9b:	48 8b 85 60 ff ff ff 	mov    -0xa0(%rbp),%rax
    3fa2:	48 89 c7             	mov    %rax,%rdi
    3fa5:	e8 42 0e 00 00       	call   4dec <_ZSt7forwardIRiEOT_RNSt16remove_referenceIS1_E4typeE>
    3faa:	48 8b 95 50 ff ff ff 	mov    -0xb0(%rbp),%rdx
    3fb1:	48 89 55 90          	mov    %rdx,-0x70(%rbp)
    3fb5:	48 8b 95 58 ff ff ff 	mov    -0xa8(%rbp),%rdx
    3fbc:	48 89 55 98          	mov    %rdx,-0x68(%rbp)
    3fc0:	48 89 45 a0          	mov    %rax,-0x60(%rbp)
    3fc4:	4c 89 7d a8          	mov    %r15,-0x58(%rbp)
    3fc8:	4c 89 75 b0          	mov    %r14,-0x50(%rbp)
    3fcc:	4c 89 6d b8          	mov    %r13,-0x48(%rbp)
    3fd0:	4c 89 65 c0          	mov    %r12,-0x40(%rbp)
    3fd4:	48 89 5d c8          	mov    %rbx,-0x38(%rbp)
    3fd8:	48 8b 5d 98          	mov    -0x68(%rbp),%rbx
    3fdc:	48 89 de             	mov    %rbx,%rsi
    3fdf:	bf 38 00 00 00       	mov    $0x38,%edi
    3fe4:	e8 41 ef ff ff       	call   2f2a <_ZnwmPv>
    3fe9:	49 89 c4             	mov    %rax,%r12
    3fec:	c6 85 18 ff ff ff 01 	movb   $0x1,-0xe8(%rbp)
    3ff3:	48 8b 45 c8          	mov    -0x38(%rbp),%rax
    3ff7:	48 89 c7             	mov    %rax,%rdi
    3ffa:	e8 ed 0d 00 00       	call   4dec <_ZSt7forwardIRiEOT_RNSt16remove_referenceIS1_E4typeE>
    3fff:	8b 00                	mov    (%rax),%eax
    4001:	89 85 14 ff ff ff    	mov    %eax,-0xec(%rbp)
    4007:	48 8b 45 c0          	mov    -0x40(%rbp),%rax
    400b:	48 89 c7             	mov    %rax,%rdi
    400e:	e8 d9 0d 00 00       	call   4dec <_ZSt7forwardIRiEOT_RNSt16remove_referenceIS1_E4typeE>
    4013:	8b 08                	mov    (%rax),%ecx
    4015:	89 8d 10 ff ff ff    	mov    %ecx,-0xf0(%rbp)
    401b:	48 8b 45 b8          	mov    -0x48(%rbp),%rax
    401f:	48 89 c7             	mov    %rax,%rdi
    4022:	e8 fb 0d 00 00       	call   4e22 <_ZSt7forwardIRfEOT_RNSt16remove_referenceIS1_E4typeE>
    4027:	44 8b 30             	mov    (%rax),%r14d
    402a:	48 8b 45 b0          	mov    -0x50(%rbp),%rax
    402e:	48 89 c7             	mov    %rax,%rdi
    4031:	e8 da 0d 00 00       	call   4e10 <_ZSt7forwardIR4TipoEOT_RNSt16remove_referenceIS2_E4typeE>
    4036:	44 8b 28             	mov    (%rax),%r13d
    4039:	48 8b 45 a8          	mov    -0x58(%rbp),%rax
    403d:	48 89 c7             	mov    %rax,%rdi
    4040:	e8 b9 0d 00 00       	call   4dfe <_ZSt7forwardIRKNSt7__cxx1112basic_stringIcSt11char_traitsIcESaIcEEEEOT_RNSt16remove_referenceIS8_E4typeE>
    4045:	49 89 c7             	mov    %rax,%r15
    4048:	48 8b 45 a0          	mov    -0x60(%rbp),%rax
    404c:	48 89 c7             	mov    %rax,%rdi
    404f:	e8 98 0d 00 00       	call   4dec <_ZSt7forwardIRiEOT_RNSt16remove_referenceIS1_E4typeE>
    4054:	8b 00                	mov    (%rax),%eax
    4056:	44 8b 8d 14 ff ff ff 	mov    -0xec(%rbp),%r9d
    405d:	44 8b 85 10 ff ff ff 	mov    -0xf0(%rbp),%r8d
    4064:	66 41 0f 6e c6       	movd   %r14d,%xmm0
    4069:	44 89 e9             	mov    %r13d,%ecx
    406c:	4c 89 fa             	mov    %r15,%rdx
    406f:	89 c6                	mov    %eax,%esi
    4071:	4c 89 e7             	mov    %r12,%rdi
    4074:	e8 71 f0 ff ff       	call   30ea <_ZN6bipoloC1EiRKNSt7__cxx1112basic_stringIcSt11char_traitsIcESaIcEEE4Tipofii>
    4079:	90                   	nop
    407a:	90                   	nop
    407b:	48 8b 85 48 ff ff ff 	mov    -0xb8(%rbp),%rax
    4082:	48 8b 40 08          	mov    0x8(%rax),%rax
    4086:	48 8d 50 38          	lea    0x38(%rax),%rdx
    408a:	48 8b 85 48 ff ff ff 	mov    -0xb8(%rbp),%rax
    4091:	48 89 50 08          	mov    %rdx,0x8(%rax)
    4095:	e9 cb 00 00 00       	jmp    4165 <_ZNSt6vectorI6bipoloSaIS0_EE12emplace_backIJRiRKNSt7__cxx1112basic_stringIcSt11char_traitsIcESaIcEEER4TipoRfS4_S4_EEERS0_DpOT_+0x329>
    409a:	f3 0f 1e fa          	endbr64
    409e:	49 89 c5             	mov    %rax,%r13
    40a1:	80 bd 18 ff ff ff 00 	cmpb   $0x0,-0xe8(%rbp)
    40a8:	74 0b                	je     40b5 <_ZNSt6vectorI6bipoloSaIS0_EE12emplace_backIJRiRKNSt7__cxx1112basic_stringIcSt11char_traitsIcESaIcEEER4TipoRfS4_S4_EEERS0_DpOT_+0x279>
    40aa:	48 89 de             	mov    %rbx,%rsi
    40ad:	4c 89 e7             	mov    %r12,%rdi
    40b0:	e8 8b ee ff ff       	call   2f40 <_ZdlPvS_>
    40b5:	4c 89 e8             	mov    %r13,%rax
    40b8:	48 89 c7             	mov    %rax,%rdi
    40bb:	e8 e0 e2 ff ff       	call   23a0 <_Unwind_Resume@plt>
    40c0:	48 8b 45 10          	mov    0x10(%rbp),%rax
    40c4:	48 89 c7             	mov    %rax,%rdi
    40c7:	e8 20 0d 00 00       	call   4dec <_ZSt7forwardIRiEOT_RNSt16remove_referenceIS1_E4typeE>
    40cc:	49 89 c4             	mov    %rax,%r12
    40cf:	48 8b 85 20 ff ff ff 	mov    -0xe0(%rbp),%rax
    40d6:	48 89 c7             	mov    %rax,%rdi
    40d9:	e8 0e 0d 00 00       	call   4dec <_ZSt7forwardIRiEOT_RNSt16remove_referenceIS1_E4typeE>
    40de:	48 89 c3             	mov    %rax,%rbx
    40e1:	48 8b 85 28 ff ff ff 	mov    -0xd8(%rbp),%rax
    40e8:	48 89 c7             	mov    %rax,%rdi
    40eb:	e8 32 0d 00 00       	call   4e22 <_ZSt7forwardIRfEOT_RNSt16remove_referenceIS1_E4typeE>
    40f0:	48 89 85 18 ff ff ff 	mov    %rax,-0xe8(%rbp)
    40f7:	48 8b 85 30 ff ff ff 	mov    -0xd0(%rbp),%rax
    40fe:	48 89 c7             	mov    %rax,%rdi
    4101:	e8 0a 0d 00 00       	call   4e10 <_ZSt7forwardIR4TipoEOT_RNSt16remove_referenceIS2_E4typeE>
    4106:	49 89 c7             	mov    %rax,%r15
    4109:	48 8b 85 38 ff ff ff 	mov    -0xc8(%rbp),%rax
    4110:	48 89 c7             	mov    %rax,%rdi
    4113:	e8 e6 0c 00 00       	call   4dfe <_ZSt7forwardIRKNSt7__cxx1112basic_stringIcSt11char_traitsIcESaIcEEEEOT_RNSt16remove_referenceIS8_E4typeE>
    4118:	49 89 c6             	mov    %rax,%r14
    411b:	48 8b 85 40 ff ff ff 	mov    -0xc0(%rbp),%rax
    4122:	48 89 c7             	mov    %rax,%rdi
    4125:	e8 c2 0c 00 00       	call   4dec <_ZSt7forwardIRiEOT_RNSt16remove_referenceIS1_E4typeE>
    412a:	49 89 c5             	mov    %rax,%r13
    412d:	48 8b 85 48 ff ff ff 	mov    -0xb8(%rbp),%rax
    4134:	48 89 c7             	mov    %rax,%rdi
    4137:	e8 c0 01 00 00       	call   42fc <_ZNSt6vectorI6bipoloSaIS0_EE3endEv>
    413c:	48 89 c6             	mov    %rax,%rsi
    413f:	48 8b 85 48 ff ff ff 	mov    -0xb8(%rbp),%rax
    4146:	41 54                	push   %r12
    4148:	53                   	push   %rbx
    4149:	4c 8b 8d 18 ff ff ff 	mov    -0xe8(%rbp),%r9
    4150:	4d 89 f8             	mov    %r15,%r8
    4153:	4c 89 f1             	mov    %r14,%rcx
    4156:	4c 89 ea             	mov    %r13,%rdx
    4159:	48 89 c7             	mov    %rax,%rdi
    415c:	e8 d3 0c 00 00       	call   4e34 <_ZNSt6vectorI6bipoloSaIS0_EE17_M_realloc_insertIJRiRKNSt7__cxx1112basic_stringIcSt11char_traitsIcESaIcEEER4TipoRfS4_S4_EEEvN9__gnu_cxx17__normal_iteratorIPS0_S2_EEDpOT_>
    4161:	48 83 c4 10          	add    $0x10,%rsp
    4165:	48 8b 85 48 ff ff ff 	mov    -0xb8(%rbp),%rax
    416c:	48 89 c7             	mov    %rax,%rdi
    416f:	e8 74 12 00 00       	call   53e8 <_ZNSt6vectorI6bipoloSaIS0_EE4backEv>
    4174:	48 8d 65 d8          	lea    -0x28(%rbp),%rsp
    4178:	5b                   	pop    %rbx
    4179:	41 5c                	pop    %r12
    417b:	41 5d                	pop    %r13
    417d:	41 5e                	pop    %r14
    417f:	41 5f                	pop    %r15
    4181:	5d                   	pop    %rbp
    4182:	c3                   	ret
    4183:	90                   	nop

0000000000004184 <_ZNSt6vectorI6bipoloSaIS0_EE12emplace_backIJRS0_EEES4_DpOT_>:
    4184:	f3 0f 1e fa          	endbr64
    4188:	55                   	push   %rbp
    4189:	48 89 e5             	mov    %rsp,%rbp
    418c:	41 56                	push   %r14
    418e:	41 55                	push   %r13
    4190:	41 54                	push   %r12
    4192:	53                   	push   %rbx
    4193:	48 83 ec 40          	sub    $0x40,%rsp
    4197:	48 89 7d a8          	mov    %rdi,-0x58(%rbp)
    419b:	48 89 75 a0          	mov    %rsi,-0x60(%rbp)
    419f:	48 8b 45 a8          	mov    -0x58(%rbp),%rax
    41a3:	48 8b 50 08          	mov    0x8(%rax),%rdx
    41a7:	48 8b 45 a8          	mov    -0x58(%rbp),%rax
    41ab:	48 8b 40 10          	mov    0x10(%rax),%rax
    41af:	48 39 c2             	cmp    %rax,%rdx
    41b2:	0f 84 af 00 00 00    	je     4267 <_ZNSt6vectorI6bipoloSaIS0_EE12emplace_backIJRS0_EEES4_DpOT_+0xe3>
    41b8:	48 8b 45 a0          	mov    -0x60(%rbp),%rax
    41bc:	48 89 c7             	mov    %rax,%rdi
    41bf:	e8 8a 12 00 00       	call   544e <_ZSt7forwardIR6bipoloEOT_RNSt16remove_referenceIS2_E4typeE>
    41c4:	48 8b 55 a8          	mov    -0x58(%rbp),%rdx
    41c8:	48 8b 52 08          	mov    0x8(%rdx),%rdx
    41cc:	48 8b 4d a8          	mov    -0x58(%rbp),%rcx
    41d0:	48 89 4d b0          	mov    %rcx,-0x50(%rbp)
    41d4:	48 89 55 b8          	mov    %rdx,-0x48(%rbp)
    41d8:	48 89 45 c0          	mov    %rax,-0x40(%rbp)
    41dc:	48 8b 45 c0          	mov    -0x40(%rbp),%rax
    41e0:	48 89 c7             	mov    %rax,%rdi
    41e3:	e8 66 12 00 00       	call   544e <_ZSt7forwardIR6bipoloEOT_RNSt16remove_referenceIS2_E4typeE>
    41e8:	48 8b 55 b0          	mov    -0x50(%rbp),%rdx
    41ec:	48 89 55 c8          	mov    %rdx,-0x38(%rbp)
    41f0:	48 8b 55 b8          	mov    -0x48(%rbp),%rdx
    41f4:	48 89 55 d0          	mov    %rdx,-0x30(%rbp)
    41f8:	48 89 45 d8          	mov    %rax,-0x28(%rbp)
    41fc:	48 8b 5d d0          	mov    -0x30(%rbp),%rbx
    4200:	48 89 de             	mov    %rbx,%rsi
    4203:	bf 38 00 00 00       	mov    $0x38,%edi
    4208:	e8 1d ed ff ff       	call   2f2a <_ZnwmPv>
    420d:	49 89 c4             	mov    %rax,%r12
    4210:	41 be 01 00 00 00    	mov    $0x1,%r14d
    4216:	48 8b 45 d8          	mov    -0x28(%rbp),%rax
    421a:	48 89 c7             	mov    %rax,%rdi
    421d:	e8 2c 12 00 00       	call   544e <_ZSt7forwardIR6bipoloEOT_RNSt16remove_referenceIS2_E4typeE>
    4222:	48 89 c6             	mov    %rax,%rsi
    4225:	4c 89 e7             	mov    %r12,%rdi
    4228:	e8 b5 f0 ff ff       	call   32e2 <_ZN6bipoloC1ERKS_>
    422d:	90                   	nop
    422e:	90                   	nop
    422f:	48 8b 45 a8          	mov    -0x58(%rbp),%rax
    4233:	48 8b 40 08          	mov    0x8(%rax),%rax
    4237:	48 8d 50 38          	lea    0x38(%rax),%rdx
    423b:	48 8b 45 a8          	mov    -0x58(%rbp),%rax
    423f:	48 89 50 08          	mov    %rdx,0x8(%rax)
    4243:	eb 52                	jmp    4297 <_ZNSt6vectorI6bipoloSaIS0_EE12emplace_backIJRS0_EEES4_DpOT_+0x113>
    4245:	f3 0f 1e fa          	endbr64
    4249:	49 89 c5             	mov    %rax,%r13
    424c:	45 84 f6             	test   %r14b,%r14b
    424f:	74 0b                	je     425c <_ZNSt6vectorI6bipoloSaIS0_EE12emplace_backIJRS0_EEES4_DpOT_+0xd8>
    4251:	48 89 de             	mov    %rbx,%rsi
    4254:	4c 89 e7             	mov    %r12,%rdi
    4257:	e8 e4 ec ff ff       	call   2f40 <_ZdlPvS_>
    425c:	4c 89 e8             	mov    %r13,%rax
    425f:	48 89 c7             	mov    %rax,%rdi
    4262:	e8 39 e1 ff ff       	call   23a0 <_Unwind_Resume@plt>
    4267:	48 8b 45 a0          	mov    -0x60(%rbp),%rax
    426b:	48 89 c7             	mov    %rax,%rdi
    426e:	e8 db 11 00 00       	call   544e <_ZSt7forwardIR6bipoloEOT_RNSt16remove_referenceIS2_E4typeE>
    4273:	48 89 c3             	mov    %rax,%rbx
    4276:	48 8b 45 a8          	mov    -0x58(%rbp),%rax
    427a:	48 89 c7             	mov    %rax,%rdi
    427d:	e8 7a 00 00 00       	call   42fc <_ZNSt6vectorI6bipoloSaIS0_EE3endEv>
    4282:	48 89 c1             	mov    %rax,%rcx
    4285:	48 8b 45 a8          	mov    -0x58(%rbp),%rax
    4289:	48 89 da             	mov    %rbx,%rdx
    428c:	48 89 ce             	mov    %rcx,%rsi
    428f:	48 89 c7             	mov    %rax,%rdi
    4292:	e8 c9 11 00 00       	call   5460 <_ZNSt6vectorI6bipoloSaIS0_EE17_M_realloc_insertIJRS0_EEEvN9__gnu_cxx17__normal_iteratorIPS0_S2_EEDpOT_>
    4297:	48 8b 45 a8          	mov    -0x58(%rbp),%rax
    429b:	48 89 c7             	mov    %rax,%rdi
    429e:	e8 45 11 00 00       	call   53e8 <_ZNSt6vectorI6bipoloSaIS0_EE4backEv>
    42a3:	48 83 c4 40          	add    $0x40,%rsp
    42a7:	5b                   	pop    %rbx
    42a8:	41 5c                	pop    %r12
    42aa:	41 5d                	pop    %r13
    42ac:	41 5e                	pop    %r14
    42ae:	5d                   	pop    %rbp
    42af:	c3                   	ret

00000000000042b0 <_ZNSt6vectorI6bipoloSaIS0_EE5beginEv>:
    42b0:	f3 0f 1e fa          	endbr64
    42b4:	55                   	push   %rbp
    42b5:	48 89 e5             	mov    %rsp,%rbp
    42b8:	48 83 ec 20          	sub    $0x20,%rsp
    42bc:	48 89 7d e8          	mov    %rdi,-0x18(%rbp)
    42c0:	64 48 8b 04 25 28 00 	mov    %fs:0x28,%rax
    42c7:	00 00 
    42c9:	48 89 45 f8          	mov    %rax,-0x8(%rbp)
    42cd:	31 c0                	xor    %eax,%eax
    42cf:	48 8b 55 e8          	mov    -0x18(%rbp),%rdx
    42d3:	48 8d 45 f0          	lea    -0x10(%rbp),%rax
    42d7:	48 89 d6             	mov    %rdx,%rsi
    42da:	48 89 c7             	mov    %rax,%rdi
    42dd:	e8 8e 15 00 00       	call   5870 <_ZN9__gnu_cxx17__normal_iteratorIP6bipoloSt6vectorIS1_SaIS1_EEEC1ERKS2_>
    42e2:	48 8b 45 f0          	mov    -0x10(%rbp),%rax
    42e6:	48 8b 55 f8          	mov    -0x8(%rbp),%rdx
    42ea:	64 48 2b 14 25 28 00 	sub    %fs:0x28,%rdx
    42f1:	00 00 
    42f3:	74 05                	je     42fa <_ZNSt6vectorI6bipoloSaIS0_EE5beginEv+0x4a>
    42f5:	e8 36 e0 ff ff       	call   2330 <__stack_chk_fail@plt>
    42fa:	c9                   	leave
    42fb:	c3                   	ret

00000000000042fc <_ZNSt6vectorI6bipoloSaIS0_EE3endEv>:
    42fc:	f3 0f 1e fa          	endbr64
    4300:	55                   	push   %rbp
    4301:	48 89 e5             	mov    %rsp,%rbp
    4304:	48 83 ec 20          	sub    $0x20,%rsp
    4308:	48 89 7d e8          	mov    %rdi,-0x18(%rbp)
    430c:	64 48 8b 04 25 28 00 	mov    %fs:0x28,%rax
    4313:	00 00 
    4315:	48 89 45 f8          	mov    %rax,-0x8(%rbp)
    4319:	31 c0                	xor    %eax,%eax
    431b:	48 8b 45 e8          	mov    -0x18(%rbp),%rax
    431f:	48 8d 50 08          	lea    0x8(%rax),%rdx
    4323:	48 8d 45 f0          	lea    -0x10(%rbp),%rax
    4327:	48 89 d6             	mov    %rdx,%rsi
    432a:	48 89 c7             	mov    %rax,%rdi
    432d:	e8 3e 15 00 00       	call   5870 <_ZN9__gnu_cxx17__normal_iteratorIP6bipoloSt6vectorIS1_SaIS1_EEEC1ERKS2_>
    4332:	48 8b 45 f0          	mov    -0x10(%rbp),%rax
    4336:	48 8b 55 f8          	mov    -0x8(%rbp),%rdx
    433a:	64 48 2b 14 25 28 00 	sub    %fs:0x28,%rdx
    4341:	00 00 
    4343:	74 05                	je     434a <_ZNSt6vectorI6bipoloSaIS0_EE3endEv+0x4e>
    4345:	e8 e6 df ff ff       	call   2330 <__stack_chk_fail@plt>
    434a:	c9                   	leave
    434b:	c3                   	ret

000000000000434c <_ZNK9__gnu_cxx17__normal_iteratorIP6bipoloSt6vectorIS1_SaIS1_EEEdeEv>:
    434c:	f3 0f 1e fa          	endbr64
    4350:	55                   	push   %rbp
    4351:	48 89 e5             	mov    %rsp,%rbp
    4354:	48 89 7d f8          	mov    %rdi,-0x8(%rbp)
    4358:	48 8b 45 f8          	mov    -0x8(%rbp),%rax
    435c:	48 8b 00             	mov    (%rax),%rax
    435f:	5d                   	pop    %rbp
    4360:	c3                   	ret

0000000000004361 <_ZSt4moveIRSt10unique_ptrI14ExpressionNodeSt14default_deleteIS1_EEEONSt16remove_referenceIT_E4typeEOS7_>:
    4361:	f3 0f 1e fa          	endbr64
    4365:	55                   	push   %rbp
    4366:	48 89 e5             	mov    %rsp,%rbp
    4369:	48 89 7d f8          	mov    %rdi,-0x8(%rbp)
    436d:	48 8b 45 f8          	mov    -0x8(%rbp),%rax
    4371:	5d                   	pop    %rbp
    4372:	c3                   	ret
    4373:	90                   	nop

0000000000004374 <_ZNSt11_Tuple_implILm0EJP14ExpressionNodeSt14default_deleteIS0_EEEC1EOS4_>:
    4374:	f3 0f 1e fa          	endbr64
    4378:	55                   	push   %rbp
    4379:	48 89 e5             	mov    %rsp,%rbp
    437c:	48 83 ec 10          	sub    $0x10,%rsp
    4380:	48 89 7d f8          	mov    %rdi,-0x8(%rbp)
    4384:	48 89 75 f0          	mov    %rsi,-0x10(%rbp)
    4388:	48 8b 55 f0          	mov    -0x10(%rbp),%rdx
    438c:	48 8b 45 f8          	mov    -0x8(%rbp),%rax
    4390:	48 89 d6             	mov    %rdx,%rsi
    4393:	48 89 c7             	mov    %rax,%rdi
    4396:	e8 43 15 00 00       	call   58de <_ZNSt11_Tuple_implILm1EJSt14default_deleteI14ExpressionNodeEEEC1EOS3_>
    439b:	48 8b 45 f8          	mov    -0x8(%rbp),%rax
    439f:	48 8b 55 f0          	mov    -0x10(%rbp),%rdx
    43a3:	48 8b 12             	mov    (%rdx),%rdx
    43a6:	48 89 10             	mov    %rdx,(%rax)
    43a9:	90                   	nop
    43aa:	c9                   	leave
    43ab:	c3                   	ret

00000000000043ac <_ZNSt5tupleIJP14ExpressionNodeSt14default_deleteIS0_EEEC1EOS4_>:
    43ac:	f3 0f 1e fa          	endbr64
    43b0:	55                   	push   %rbp
    43b1:	48 89 e5             	mov    %rsp,%rbp
    43b4:	48 83 ec 10          	sub    $0x10,%rsp
    43b8:	48 89 7d f8          	mov    %rdi,-0x8(%rbp)
    43bc:	48 89 75 f0          	mov    %rsi,-0x10(%rbp)
    43c0:	48 8b 45 f8          	mov    -0x8(%rbp),%rax
    43c4:	48 8b 55 f0          	mov    -0x10(%rbp),%rdx
    43c8:	48 89 d6             	mov    %rdx,%rsi
    43cb:	48 89 c7             	mov    %rax,%rdi
    43ce:	e8 a1 ff ff ff       	call   4374 <_ZNSt11_Tuple_implILm0EJP14ExpressionNodeSt14default_deleteIS0_EEEC1EOS4_>
    43d3:	90                   	nop
    43d4:	c9                   	leave
    43d5:	c3                   	ret

00000000000043d6 <_ZNSt15__uniq_ptr_implI14ExpressionNodeSt14default_deleteIS0_EEC1EOS3_>:
    43d6:	f3 0f 1e fa          	endbr64
    43da:	55                   	push   %rbp
    43db:	48 89 e5             	mov    %rsp,%rbp
    43de:	53                   	push   %rbx
    43df:	48 83 ec 18          	sub    $0x18,%rsp
    43e3:	48 89 7d e8          	mov    %rdi,-0x18(%rbp)
    43e7:	48 89 75 e0          	mov    %rsi,-0x20(%rbp)
    43eb:	48 8b 5d e8          	mov    -0x18(%rbp),%rbx
    43ef:	48 8b 45 e0          	mov    -0x20(%rbp),%rax
    43f3:	48 89 c7             	mov    %rax,%rdi
    43f6:	e8 d0 14 00 00       	call   58cb <_ZSt4moveIRSt5tupleIJP14ExpressionNodeSt14default_deleteIS1_EEEEONSt16remove_referenceIT_E4typeEOS8_>
    43fb:	48 89 c6             	mov    %rax,%rsi
    43fe:	48 89 df             	mov    %rbx,%rdi
    4401:	e8 a6 ff ff ff       	call   43ac <_ZNSt5tupleIJP14ExpressionNodeSt14default_deleteIS0_EEEC1EOS4_>
    4406:	48 8b 45 e0          	mov    -0x20(%rbp),%rax
    440a:	48 89 c7             	mov    %rax,%rdi
    440d:	e8 e0 14 00 00       	call   58f2 <_ZNSt15__uniq_ptr_implI14ExpressionNodeSt14default_deleteIS0_EE6_M_ptrEv>
    4412:	48 c7 00 00 00 00 00 	movq   $0x0,(%rax)
    4419:	90                   	nop
    441a:	48 8b 5d f8          	mov    -0x8(%rbp),%rbx
    441e:	c9                   	leave
    441f:	c3                   	ret

0000000000004420 <_ZNSt10unique_ptrI14ExpressionNodeSt14default_deleteIS0_EED1Ev>:
    4420:	f3 0f 1e fa          	endbr64
    4424:	55                   	push   %rbp
    4425:	48 89 e5             	mov    %rsp,%rbp
    4428:	53                   	push   %rbx
    4429:	48 83 ec 28          	sub    $0x28,%rsp
    442d:	48 89 7d d8          	mov    %rdi,-0x28(%rbp)
    4431:	48 8b 45 d8          	mov    -0x28(%rbp),%rax
    4435:	48 89 c7             	mov    %rax,%rdi
    4438:	e8 b5 14 00 00       	call   58f2 <_ZNSt15__uniq_ptr_implI14ExpressionNodeSt14default_deleteIS0_EE6_M_ptrEv>
    443d:	48 89 45 e8          	mov    %rax,-0x18(%rbp)
    4441:	48 8b 45 e8          	mov    -0x18(%rbp),%rax
    4445:	48 8b 00             	mov    (%rax),%rax
    4448:	48 85 c0             	test   %rax,%rax
    444b:	74 29                	je     4476 <_ZNSt10unique_ptrI14ExpressionNodeSt14default_deleteIS0_EED1Ev+0x56>
    444d:	48 8b 45 d8          	mov    -0x28(%rbp),%rax
    4451:	48 89 c7             	mov    %rax,%rdi
    4454:	e8 b7 14 00 00       	call   5910 <_ZNSt10unique_ptrI14ExpressionNodeSt14default_deleteIS0_EE11get_deleterEv>
    4459:	48 89 c3             	mov    %rax,%rbx
    445c:	48 8b 45 e8          	mov    -0x18(%rbp),%rax
    4460:	48 89 c7             	mov    %rax,%rdi
    4463:	e8 c6 14 00 00       	call   592e <_ZSt4moveIRP14ExpressionNodeEONSt16remove_referenceIT_E4typeEOS4_>
    4468:	48 8b 00             	mov    (%rax),%rax
    446b:	48 89 c6             	mov    %rax,%rsi
    446e:	48 89 df             	mov    %rbx,%rdi
    4471:	e8 ca 14 00 00       	call   5940 <_ZNKSt14default_deleteI14ExpressionNodeEclEPS0_>
    4476:	48 8b 45 e8          	mov    -0x18(%rbp),%rax
    447a:	48 c7 00 00 00 00 00 	movq   $0x0,(%rax)
    4481:	90                   	nop
    4482:	48 8b 5d f8          	mov    -0x8(%rbp),%rbx
    4486:	c9                   	leave
    4487:	c3                   	ret

0000000000004488 <_ZNKSt10unique_ptrI14ExpressionNodeSt14default_deleteIS0_EEptEv>:
    4488:	f3 0f 1e fa          	endbr64
    448c:	55                   	push   %rbp
    448d:	48 89 e5             	mov    %rsp,%rbp
    4490:	48 83 ec 10          	sub    $0x10,%rsp
    4494:	48 89 7d f8          	mov    %rdi,-0x8(%rbp)
    4498:	48 8b 45 f8          	mov    -0x8(%rbp),%rax
    449c:	48 89 c7             	mov    %rax,%rdi
    449f:	e8 cc 14 00 00       	call   5970 <_ZNKSt10unique_ptrI14ExpressionNodeSt14default_deleteIS0_EE3getEv>
    44a4:	c9                   	leave
    44a5:	c3                   	ret

00000000000044a6 <_ZNSt10unique_ptrI14ExpressionNodeSt14default_deleteIS0_EEC1IS2_vEEDn>:
    44a6:	f3 0f 1e fa          	endbr64
    44aa:	55                   	push   %rbp
    44ab:	48 89 e5             	mov    %rsp,%rbp
    44ae:	48 83 ec 10          	sub    $0x10,%rsp
    44b2:	48 89 7d f8          	mov    %rdi,-0x8(%rbp)
    44b6:	48 89 75 f0          	mov    %rsi,-0x10(%rbp)
    44ba:	48 8b 45 f8          	mov    -0x8(%rbp),%rax
    44be:	48 c7 00 00 00 00 00 	movq   $0x0,(%rax)
    44c5:	48 8b 45 f8          	mov    -0x8(%rbp),%rax
    44c9:	48 89 c7             	mov    %rax,%rdi
    44cc:	e8 79 f2 ff ff       	call   374a <_ZNSt15__uniq_ptr_dataI14ExpressionNodeSt14default_deleteIS0_ELb1ELb1EECI1St15__uniq_ptr_implIS0_S2_EEv>
    44d1:	90                   	nop
    44d2:	c9                   	leave
    44d3:	c3                   	ret

00000000000044d4 <_ZNSt8_Rb_treeI6bipoloS0_St9_IdentityIS0_ESt4lessIS0_ESaIS0_EE13_Rb_tree_implIS4_Lb1EEC1Ev>:
    44d4:	f3 0f 1e fa          	endbr64
    44d8:	55                   	push   %rbp
    44d9:	48 89 e5             	mov    %rsp,%rbp
    44dc:	48 83 ec 20          	sub    $0x20,%rsp
    44e0:	48 89 7d e8          	mov    %rdi,-0x18(%rbp)
    44e4:	48 8b 45 e8          	mov    -0x18(%rbp),%rax
    44e8:	48 89 45 f0          	mov    %rax,-0x10(%rbp)
    44ec:	48 8b 45 f0          	mov    -0x10(%rbp),%rax
    44f0:	48 89 45 f8          	mov    %rax,-0x8(%rbp)
    44f4:	90                   	nop
    44f5:	90                   	nop
    44f6:	48 8b 45 e8          	mov    -0x18(%rbp),%rax
    44fa:	48 89 c7             	mov    %rax,%rdi
    44fd:	e8 8c 14 00 00       	call   598e <_ZNSt20_Rb_tree_key_compareISt4lessI6bipoloEEC1Ev>
    4502:	48 8b 45 e8          	mov    -0x18(%rbp),%rax
    4506:	48 83 c0 08          	add    $0x8,%rax
    450a:	48 89 c7             	mov    %rax,%rdi
    450d:	e8 0c eb ff ff       	call   301e <_ZNSt15_Rb_tree_headerC1Ev>
    4512:	90                   	nop
    4513:	c9                   	leave
    4514:	c3                   	ret
    4515:	90                   	nop

0000000000004516 <_ZNSt8_Rb_treeI6bipoloS0_St9_IdentityIS0_ESt4lessIS0_ESaIS0_EED1Ev>:
    4516:	f3 0f 1e fa          	endbr64
    451a:	55                   	push   %rbp
    451b:	48 89 e5             	mov    %rsp,%rbp
    451e:	48 83 ec 10          	sub    $0x10,%rsp
    4522:	48 89 7d f8          	mov    %rdi,-0x8(%rbp)
    4526:	48 8b 45 f8          	mov    -0x8(%rbp),%rax
    452a:	48 89 c7             	mov    %rax,%rdi
    452d:	e8 e6 14 00 00       	call   5a18 <_ZNSt8_Rb_treeI6bipoloS0_St9_IdentityIS0_ESt4lessIS0_ESaIS0_EE8_M_beginEv>
    4532:	48 89 c2             	mov    %rax,%rdx
    4535:	48 8b 45 f8          	mov    -0x8(%rbp),%rax
    4539:	48 89 d6             	mov    %rdx,%rsi
    453c:	48 89 c7             	mov    %rax,%rdi
    453f:	e8 6a 14 00 00       	call   59ae <_ZNSt8_Rb_treeI6bipoloS0_St9_IdentityIS0_ESt4lessIS0_ESaIS0_EE8_M_eraseEPSt13_Rb_tree_nodeIS0_E>
    4544:	48 8b 45 f8          	mov    -0x8(%rbp),%rax
    4548:	48 89 c7             	mov    %rax,%rdi
    454b:	e8 3e f0 ff ff       	call   358e <_ZNSt8_Rb_treeI6bipoloS0_St9_IdentityIS0_ESt4lessIS0_ESaIS0_EE13_Rb_tree_implIS4_Lb1EED1Ev>
    4550:	90                   	nop
    4551:	c9                   	leave
    4552:	c3                   	ret
    4553:	90                   	nop

0000000000004554 <_ZNSt8_Rb_treeIiiSt9_IdentityIiESt4lessIiESaIiEE13_Rb_tree_implIS3_Lb1EEC1Ev>:
    4554:	f3 0f 1e fa          	endbr64
    4558:	55                   	push   %rbp
    4559:	48 89 e5             	mov    %rsp,%rbp
    455c:	48 83 ec 20          	sub    $0x20,%rsp
    4560:	48 89 7d e8          	mov    %rdi,-0x18(%rbp)
    4564:	48 8b 45 e8          	mov    -0x18(%rbp),%rax
    4568:	48 89 45 f0          	mov    %rax,-0x10(%rbp)
    456c:	48 8b 45 f0          	mov    -0x10(%rbp),%rax
    4570:	48 89 45 f8          	mov    %rax,-0x8(%rbp)
    4574:	90                   	nop
    4575:	90                   	nop
    4576:	48 8b 45 e8          	mov    -0x18(%rbp),%rax
    457a:	48 89 c7             	mov    %rax,%rdi
    457d:	e8 de 12 00 00       	call   5860 <_ZNSt20_Rb_tree_key_compareISt4lessIiEEC1Ev>
    4582:	48 8b 45 e8          	mov    -0x18(%rbp),%rax
    4586:	48 83 c0 08          	add    $0x8,%rax
    458a:	48 89 c7             	mov    %rax,%rdi
    458d:	e8 8c ea ff ff       	call   301e <_ZNSt15_Rb_tree_headerC1Ev>
    4592:	90                   	nop
    4593:	c9                   	leave
    4594:	c3                   	ret
    4595:	90                   	nop

0000000000004596 <_ZNSt8_Rb_treeIiiSt9_IdentityIiESt4lessIiESaIiEED1Ev>:
    4596:	f3 0f 1e fa          	endbr64
    459a:	55                   	push   %rbp
    459b:	48 89 e5             	mov    %rsp,%rbp
    459e:	48 83 ec 10          	sub    $0x10,%rsp
    45a2:	48 89 7d f8          	mov    %rdi,-0x8(%rbp)
    45a6:	48 8b 45 f8          	mov    -0x8(%rbp),%rax
    45aa:	48 89 c7             	mov    %rax,%rdi
    45ad:	e8 fe 14 00 00       	call   5ab0 <_ZNSt8_Rb_treeIiiSt9_IdentityIiESt4lessIiESaIiEE8_M_beginEv>
    45b2:	48 89 c2             	mov    %rax,%rdx
    45b5:	48 8b 45 f8          	mov    -0x8(%rbp),%rax
    45b9:	48 89 d6             	mov    %rdx,%rsi
    45bc:	48 89 c7             	mov    %rax,%rdi
    45bf:	e8 82 14 00 00       	call   5a46 <_ZNSt8_Rb_treeIiiSt9_IdentityIiESt4lessIiESaIiEE8_M_eraseEPSt13_Rb_tree_nodeIiE>
    45c4:	48 8b 45 f8          	mov    -0x8(%rbp),%rax
    45c8:	48 89 c7             	mov    %rax,%rdi
    45cb:	e8 46 f0 ff ff       	call   3616 <_ZNSt8_Rb_treeIiiSt9_IdentityIiESt4lessIiESaIiEE13_Rb_tree_implIS3_Lb1EED1Ev>
    45d0:	90                   	nop
    45d1:	c9                   	leave
    45d2:	c3                   	ret
    45d3:	90                   	nop

00000000000045d4 <_ZNSt3setIiSt4lessIiESaIiEE6insertERKi>:
    45d4:	f3 0f 1e fa          	endbr64
    45d8:	55                   	push   %rbp
    45d9:	48 89 e5             	mov    %rsp,%rbp
    45dc:	48 83 ec 40          	sub    $0x40,%rsp
    45e0:	48 89 7d c8          	mov    %rdi,-0x38(%rbp)
    45e4:	48 89 75 c0          	mov    %rsi,-0x40(%rbp)
    45e8:	64 48 8b 04 25 28 00 	mov    %fs:0x28,%rax
    45ef:	00 00 
    45f1:	48 89 45 f8          	mov    %rax,-0x8(%rbp)
    45f5:	31 c0                	xor    %eax,%eax
    45f7:	48 8b 45 c8          	mov    -0x38(%rbp),%rax
    45fb:	48 8b 55 c0          	mov    -0x40(%rbp),%rdx
    45ff:	48 89 d6             	mov    %rdx,%rsi
    4602:	48 89 c7             	mov    %rax,%rdi
    4605:	e8 c4 14 00 00       	call   5ace <_ZNSt8_Rb_treeIiiSt9_IdentityIiESt4lessIiESaIiEE16_M_insert_uniqueIRKiEESt4pairISt17_Rb_tree_iteratorIiEbEOT_>
    460a:	48 89 45 d0          	mov    %rax,-0x30(%rbp)
    460e:	48 89 55 d8          	mov    %rdx,-0x28(%rbp)
    4612:	48 8d 45 d0          	lea    -0x30(%rbp),%rax
    4616:	48 8d 50 08          	lea    0x8(%rax),%rdx
    461a:	48 8d 4d d0          	lea    -0x30(%rbp),%rcx
    461e:	48 8d 45 e0          	lea    -0x20(%rbp),%rax
    4622:	48 89 ce             	mov    %rcx,%rsi
    4625:	48 89 c7             	mov    %rax,%rdi
    4628:	e8 ad 15 00 00       	call   5bda <_ZNSt4pairISt23_Rb_tree_const_iteratorIiEbEC1IRSt17_Rb_tree_iteratorIiERbLb1EEEOT_OT0_>
    462d:	48 8b 45 e0          	mov    -0x20(%rbp),%rax
    4631:	48 8b 55 e8          	mov    -0x18(%rbp),%rdx
    4635:	48 8b 4d f8          	mov    -0x8(%rbp),%rcx
    4639:	64 48 2b 0c 25 28 00 	sub    %fs:0x28,%rcx
    4640:	00 00 
    4642:	74 05                	je     4649 <_ZNSt3setIiSt4lessIiESaIiEE6insertERKi+0x75>
    4644:	e8 e7 dc ff ff       	call   2330 <__stack_chk_fail@plt>
    4649:	c9                   	leave
    464a:	c3                   	ret
    464b:	90                   	nop

000000000000464c <_ZNSt3setI6bipoloSt4lessIS0_ESaIS0_EE6insertERKS0_>:
    464c:	f3 0f 1e fa          	endbr64
    4650:	55                   	push   %rbp
    4651:	48 89 e5             	mov    %rsp,%rbp
    4654:	48 83 ec 40          	sub    $0x40,%rsp
    4658:	48 89 7d c8          	mov    %rdi,-0x38(%rbp)
    465c:	48 89 75 c0          	mov    %rsi,-0x40(%rbp)
    4660:	64 48 8b 04 25 28 00 	mov    %fs:0x28,%rax
    4667:	00 00 
    4669:	48 89 45 f8          	mov    %rax,-0x8(%rbp)
    466d:	31 c0                	xor    %eax,%eax
    466f:	48 8b 45 c8          	mov    -0x38(%rbp),%rax
    4673:	48 8b 55 c0          	mov    -0x40(%rbp),%rdx
    4677:	48 89 d6             	mov    %rdx,%rsi
    467a:	48 89 c7             	mov    %rax,%rdi
    467d:	e8 aa 15 00 00       	call   5c2c <_ZNSt8_Rb_treeI6bipoloS0_St9_IdentityIS0_ESt4lessIS0_ESaIS0_EE16_M_insert_uniqueIRKS0_EESt4pairISt17_Rb_tree_iteratorIS0_EbEOT_>
    4682:	48 89 45 d0          	mov    %rax,-0x30(%rbp)
    4686:	48 89 55 d8          	mov    %rdx,-0x28(%rbp)
    468a:	48 8d 45 d0          	lea    -0x30(%rbp),%rax
    468e:	48 8d 50 08          	lea    0x8(%rax),%rdx
    4692:	48 8d 4d d0          	lea    -0x30(%rbp),%rcx
    4696:	48 8d 45 e0          	lea    -0x20(%rbp),%rax
    469a:	48 89 ce             	mov    %rcx,%rsi
    469d:	48 89 c7             	mov    %rax,%rdi
    46a0:	e8 93 16 00 00       	call   5d38 <_ZNSt4pairISt23_Rb_tree_const_iteratorI6bipoloEbEC1IRSt17_Rb_tree_iteratorIS1_ERbLb1EEEOT_OT0_>
    46a5:	48 8b 45 e0          	mov    -0x20(%rbp),%rax
    46a9:	48 8b 55 e8          	mov    -0x18(%rbp),%rdx
    46ad:	48 8b 4d f8          	mov    -0x8(%rbp),%rcx
    46b1:	64 48 2b 0c 25 28 00 	sub    %fs:0x28,%rcx
    46b8:	00 00 
    46ba:	74 05                	je     46c1 <_ZNSt3setI6bipoloSt4lessIS0_ESaIS0_EE6insertERKS0_+0x75>
    46bc:	e8 6f dc ff ff       	call   2330 <__stack_chk_fail@plt>
    46c1:	c9                   	leave
    46c2:	c3                   	ret

00000000000046c3 <_ZSt11make_uniqueI10BipoloNodeJR6bipoloEENSt8__detail9_MakeUniqIT_E15__single_objectEDpOT0_>:
    46c3:	f3 0f 1e fa          	endbr64
    46c7:	55                   	push   %rbp
    46c8:	48 89 e5             	mov    %rsp,%rbp
    46cb:	41 54                	push   %r12
    46cd:	53                   	push   %rbx
    46ce:	48 83 ec 20          	sub    $0x20,%rsp
    46d2:	48 89 7d e8          	mov    %rdi,-0x18(%rbp)
    46d6:	48 89 75 e0          	mov    %rsi,-0x20(%rbp)
    46da:	bf 40 00 00 00       	mov    $0x40,%edi
    46df:	e8 fc db ff ff       	call   22e0 <_Znwm@plt>
    46e4:	48 89 45 d8          	mov    %rax,-0x28(%rbp)
    46e8:	41 bc 01 00 00 00    	mov    $0x1,%r12d
    46ee:	48 8b 45 e0          	mov    -0x20(%rbp),%rax
    46f2:	48 89 c7             	mov    %rax,%rdi
    46f5:	e8 54 0d 00 00       	call   544e <_ZSt7forwardIR6bipoloEOT_RNSt16remove_referenceIS2_E4typeE>
    46fa:	48 89 c6             	mov    %rax,%rsi
    46fd:	48 8b 7d d8          	mov    -0x28(%rbp),%rdi
    4701:	e8 7a ec ff ff       	call   3380 <_ZN10BipoloNodeC1ERK6bipolo>
    4706:	48 8b 45 e8          	mov    -0x18(%rbp),%rax
    470a:	48 8b 75 d8          	mov    -0x28(%rbp),%rsi
    470e:	48 89 c7             	mov    %rax,%rdi
    4711:	e8 9e 16 00 00       	call   5db4 <_ZNSt10unique_ptrI10BipoloNodeSt14default_deleteIS0_EEC1IS2_vEEPS0_>
    4716:	eb 25                	jmp    473d <_ZSt11make_uniqueI10BipoloNodeJR6bipoloEENSt8__detail9_MakeUniqIT_E15__single_objectEDpOT0_+0x7a>
    4718:	f3 0f 1e fa          	endbr64
    471c:	48 89 c3             	mov    %rax,%rbx
    471f:	45 84 e4             	test   %r12b,%r12b
    4722:	74 0e                	je     4732 <_ZSt11make_uniqueI10BipoloNodeJR6bipoloEENSt8__detail9_MakeUniqIT_E15__single_objectEDpOT0_+0x6f>
    4724:	be 40 00 00 00       	mov    $0x40,%esi
    4729:	48 8b 7d d8          	mov    -0x28(%rbp),%rdi
    472d:	e8 be db ff ff       	call   22f0 <_ZdlPvm@plt>
    4732:	48 89 d8             	mov    %rbx,%rax
    4735:	48 89 c7             	mov    %rax,%rdi
    4738:	e8 63 dc ff ff       	call   23a0 <_Unwind_Resume@plt>
    473d:	48 8b 45 e8          	mov    -0x18(%rbp),%rax
    4741:	48 83 c4 20          	add    $0x20,%rsp
    4745:	5b                   	pop    %rbx
    4746:	41 5c                	pop    %r12
    4748:	5d                   	pop    %rbp
    4749:	c3                   	ret

000000000000474a <_ZNSt10unique_ptrI10BipoloNodeSt14default_deleteIS0_EED1Ev>:
    474a:	f3 0f 1e fa          	endbr64
    474e:	55                   	push   %rbp
    474f:	48 89 e5             	mov    %rsp,%rbp
    4752:	53                   	push   %rbx
    4753:	48 83 ec 28          	sub    $0x28,%rsp
    4757:	48 89 7d d8          	mov    %rdi,-0x28(%rbp)
    475b:	48 8b 45 d8          	mov    -0x28(%rbp),%rax
    475f:	48 89 c7             	mov    %rax,%rdi
    4762:	e8 77 16 00 00       	call   5dde <_ZNSt15__uniq_ptr_implI10BipoloNodeSt14default_deleteIS0_EE6_M_ptrEv>
    4767:	48 89 45 e8          	mov    %rax,-0x18(%rbp)
    476b:	48 8b 45 e8          	mov    -0x18(%rbp),%rax
    476f:	48 8b 00             	mov    (%rax),%rax
    4772:	48 85 c0             	test   %rax,%rax
    4775:	74 29                	je     47a0 <_ZNSt10unique_ptrI10BipoloNodeSt14default_deleteIS0_EED1Ev+0x56>
    4777:	48 8b 45 d8          	mov    -0x28(%rbp),%rax
    477b:	48 89 c7             	mov    %rax,%rdi
    477e:	e8 79 16 00 00       	call   5dfc <_ZNSt10unique_ptrI10BipoloNodeSt14default_deleteIS0_EE11get_deleterEv>
    4783:	48 89 c3             	mov    %rax,%rbx
    4786:	48 8b 45 e8          	mov    -0x18(%rbp),%rax
    478a:	48 89 c7             	mov    %rax,%rdi
    478d:	e8 88 16 00 00       	call   5e1a <_ZSt4moveIRP10BipoloNodeEONSt16remove_referenceIT_E4typeEOS4_>
    4792:	48 8b 00             	mov    (%rax),%rax
    4795:	48 89 c6             	mov    %rax,%rsi
    4798:	48 89 df             	mov    %rbx,%rdi
    479b:	e8 fa 16 00 00       	call   5e9a <_ZNKSt14default_deleteI10BipoloNodeEclEPS0_>
    47a0:	48 8b 45 e8          	mov    -0x18(%rbp),%rax
    47a4:	48 c7 00 00 00 00 00 	movq   $0x0,(%rax)
    47ab:	90                   	nop
    47ac:	48 8b 5d f8          	mov    -0x8(%rbp),%rbx
    47b0:	c9                   	leave
    47b1:	c3                   	ret

00000000000047b2 <_ZNSt15__uniq_ptr_dataI14ExpressionNodeSt14default_deleteIS0_ELb1ELb1EECI1St15__uniq_ptr_implIS0_S2_EIS1_I10BipoloNodeEEEPS0_OT_>:
    47b2:	f3 0f 1e fa          	endbr64
    47b6:	55                   	push   %rbp
    47b7:	48 89 e5             	mov    %rsp,%rbp
    47ba:	48 83 ec 20          	sub    $0x20,%rsp
    47be:	48 89 7d f8          	mov    %rdi,-0x8(%rbp)
    47c2:	48 89 75 f0          	mov    %rsi,-0x10(%rbp)
    47c6:	48 89 55 e8          	mov    %rdx,-0x18(%rbp)
    47ca:	48 8b 45 f8          	mov    -0x8(%rbp),%rax
    47ce:	48 8b 4d f0          	mov    -0x10(%rbp),%rcx
    47d2:	48 8b 55 e8          	mov    -0x18(%rbp),%rdx
    47d6:	48 89 ce             	mov    %rcx,%rsi
    47d9:	48 89 c7             	mov    %rax,%rdi
    47dc:	e8 19 17 00 00       	call   5efa <_ZNSt15__uniq_ptr_implI14ExpressionNodeSt14default_deleteIS0_EEC1IS1_I10BipoloNodeEEEPS0_OT_>
    47e1:	90                   	nop
    47e2:	c9                   	leave
    47e3:	c3                   	ret

00000000000047e4 <_ZNSt10unique_ptrI14ExpressionNodeSt14default_deleteIS0_EEC1I10BipoloNodeS1_IS5_EvEEOS_IT_T0_E>:
    47e4:	f3 0f 1e fa          	endbr64
    47e8:	55                   	push   %rbp
    47e9:	48 89 e5             	mov    %rsp,%rbp
    47ec:	41 54                	push   %r12
    47ee:	53                   	push   %rbx
    47ef:	48 83 ec 10          	sub    $0x10,%rsp
    47f3:	48 89 7d e8          	mov    %rdi,-0x18(%rbp)
    47f7:	48 89 75 e0          	mov    %rsi,-0x20(%rbp)
    47fb:	48 8b 5d e8          	mov    -0x18(%rbp),%rbx
    47ff:	48 8b 45 e0          	mov    -0x20(%rbp),%rax
    4803:	48 89 c7             	mov    %rax,%rdi
    4806:	e8 f1 15 00 00       	call   5dfc <_ZNSt10unique_ptrI10BipoloNodeSt14default_deleteIS0_EE11get_deleterEv>
    480b:	48 89 c7             	mov    %rax,%rdi
    480e:	e8 d5 16 00 00       	call   5ee8 <_ZSt7forwardISt14default_deleteI10BipoloNodeEEOT_RNSt16remove_referenceIS3_E4typeE>
    4813:	49 89 c4             	mov    %rax,%r12
    4816:	48 8b 45 e0          	mov    -0x20(%rbp),%rax
    481a:	48 89 c7             	mov    %rax,%rdi
    481d:	e8 a8 16 00 00       	call   5eca <_ZNSt10unique_ptrI10BipoloNodeSt14default_deleteIS0_EE7releaseEv>
    4822:	4c 89 e2             	mov    %r12,%rdx
    4825:	48 89 c6             	mov    %rax,%rsi
    4828:	48 89 df             	mov    %rbx,%rdi
    482b:	e8 82 ff ff ff       	call   47b2 <_ZNSt15__uniq_ptr_dataI14ExpressionNodeSt14default_deleteIS0_ELb1ELb1EECI1St15__uniq_ptr_implIS0_S2_EIS1_I10BipoloNodeEEEPS0_OT_>
    4830:	90                   	nop
    4831:	48 83 c4 10          	add    $0x10,%rsp
    4835:	5b                   	pop    %rbx
    4836:	41 5c                	pop    %r12
    4838:	5d                   	pop    %rbp
    4839:	c3                   	ret

000000000000483a <_ZSteqI14ExpressionNodeSt14default_deleteIS0_EEbRKSt10unique_ptrIT_T0_EDn>:
    483a:	f3 0f 1e fa          	endbr64
    483e:	55                   	push   %rbp
    483f:	48 89 e5             	mov    %rsp,%rbp
    4842:	48 83 ec 10          	sub    $0x10,%rsp
    4846:	48 89 7d f8          	mov    %rdi,-0x8(%rbp)
    484a:	48 89 75 f0          	mov    %rsi,-0x10(%rbp)
    484e:	48 8b 45 f8          	mov    -0x8(%rbp),%rax
    4852:	48 89 c7             	mov    %rax,%rdi
    4855:	e8 e2 16 00 00       	call   5f3c <_ZNKSt10unique_ptrI14ExpressionNodeSt14default_deleteIS0_EEcvbEv>
    485a:	83 f0 01             	xor    $0x1,%eax
    485d:	c9                   	leave
    485e:	c3                   	ret
    485f:	90                   	nop

0000000000004860 <_ZNSt15__uniq_ptr_implI14ExpressionNodeSt14default_deleteIS0_EEaSEOS3_>:
    4860:	f3 0f 1e fa          	endbr64
    4864:	55                   	push   %rbp
    4865:	48 89 e5             	mov    %rsp,%rbp
    4868:	48 83 ec 10          	sub    $0x10,%rsp
    486c:	48 89 7d f8          	mov    %rdi,-0x8(%rbp)
    4870:	48 89 75 f0          	mov    %rsi,-0x10(%rbp)
    4874:	48 8b 45 f0          	mov    -0x10(%rbp),%rax
    4878:	48 89 c7             	mov    %rax,%rdi
    487b:	e8 48 17 00 00       	call   5fc8 <_ZNSt15__uniq_ptr_implI14ExpressionNodeSt14default_deleteIS0_EE7releaseEv>
    4880:	48 89 c2             	mov    %rax,%rdx
    4883:	48 8b 45 f8          	mov    -0x8(%rbp),%rax
    4887:	48 89 d6             	mov    %rdx,%rsi
    488a:	48 89 c7             	mov    %rax,%rdi
    488d:	e8 ce 16 00 00       	call   5f60 <_ZNSt15__uniq_ptr_implI14ExpressionNodeSt14default_deleteIS0_EE5resetEPS0_>
    4892:	48 8b 45 f0          	mov    -0x10(%rbp),%rax
    4896:	48 89 c7             	mov    %rax,%rdi
    4899:	e8 66 17 00 00       	call   6004 <_ZNSt15__uniq_ptr_implI14ExpressionNodeSt14default_deleteIS0_EE10_M_deleterEv>
    489e:	48 89 c7             	mov    %rax,%rdi
    48a1:	e8 7c 17 00 00       	call   6022 <_ZSt7forwardISt14default_deleteI14ExpressionNodeEEOT_RNSt16remove_referenceIS3_E4typeE>
    48a6:	48 8b 45 f8          	mov    -0x8(%rbp),%rax
    48aa:	48 89 c7             	mov    %rax,%rdi
    48ad:	e8 52 17 00 00       	call   6004 <_ZNSt15__uniq_ptr_implI14ExpressionNodeSt14default_deleteIS0_EE10_M_deleterEv>
    48b2:	48 8b 45 f8          	mov    -0x8(%rbp),%rax
    48b6:	c9                   	leave
    48b7:	c3                   	ret

00000000000048b8 <_ZSt11make_uniqueI13OperationNodeJSt10unique_ptrI14ExpressionNodeSt14default_deleteIS2_EES5_RcEENSt8__detail9_MakeUniqIT_E15__single_objectEDpOT0_>:
    48b8:	f3 0f 1e fa          	endbr64
    48bc:	55                   	push   %rbp
    48bd:	48 89 e5             	mov    %rsp,%rbp
    48c0:	41 54                	push   %r12
    48c2:	53                   	push   %rbx
    48c3:	48 83 ec 40          	sub    $0x40,%rsp
    48c7:	48 89 7d c8          	mov    %rdi,-0x38(%rbp)
    48cb:	48 89 75 c0          	mov    %rsi,-0x40(%rbp)
    48cf:	48 89 55 b8          	mov    %rdx,-0x48(%rbp)
    48d3:	48 89 4d b0          	mov    %rcx,-0x50(%rbp)
    48d7:	64 48 8b 04 25 28 00 	mov    %fs:0x28,%rax
    48de:	00 00 
    48e0:	48 89 45 e8          	mov    %rax,-0x18(%rbp)
    48e4:	31 c0                	xor    %eax,%eax
    48e6:	bf 20 00 00 00       	mov    $0x20,%edi
    48eb:	e8 f0 d9 ff ff       	call   22e0 <_Znwm@plt>
    48f0:	49 89 c4             	mov    %rax,%r12
    48f3:	48 8b 45 b0          	mov    -0x50(%rbp),%rax
    48f7:	48 89 c7             	mov    %rax,%rdi
    48fa:	e8 47 17 00 00       	call   6046 <_ZSt7forwardIRcEOT_RNSt16remove_referenceIS1_E4typeE>
    48ff:	0f b6 00             	movzbl (%rax),%eax
    4902:	0f be d8             	movsbl %al,%ebx
    4905:	48 8b 45 b8          	mov    -0x48(%rbp),%rax
    4909:	48 89 c7             	mov    %rax,%rdi
    490c:	e8 23 17 00 00       	call   6034 <_ZSt7forwardISt10unique_ptrI14ExpressionNodeSt14default_deleteIS1_EEEOT_RNSt16remove_referenceIS5_E4typeE>
    4911:	48 89 c2             	mov    %rax,%rdx
    4914:	48 8d 45 e0          	lea    -0x20(%rbp),%rax
    4918:	48 89 d6             	mov    %rdx,%rsi
    491b:	48 89 c7             	mov    %rax,%rdi
    491e:	e8 0b eb ff ff       	call   342e <_ZNSt10unique_ptrI14ExpressionNodeSt14default_deleteIS0_EEC1EOS3_>
    4923:	48 8b 45 c0          	mov    -0x40(%rbp),%rax
    4927:	48 89 c7             	mov    %rax,%rdi
    492a:	e8 05 17 00 00       	call   6034 <_ZSt7forwardISt10unique_ptrI14ExpressionNodeSt14default_deleteIS1_EEEOT_RNSt16remove_referenceIS5_E4typeE>
    492f:	48 89 c2             	mov    %rax,%rdx
    4932:	48 8d 45 d8          	lea    -0x28(%rbp),%rax
    4936:	48 89 d6             	mov    %rdx,%rsi
    4939:	48 89 c7             	mov    %rax,%rdi
    493c:	e8 ed ea ff ff       	call   342e <_ZNSt10unique_ptrI14ExpressionNodeSt14default_deleteIS0_EEC1EOS3_>
    4941:	48 8d 55 e0          	lea    -0x20(%rbp),%rdx
    4945:	48 8d 45 d8          	lea    -0x28(%rbp),%rax
    4949:	89 d9                	mov    %ebx,%ecx
    494b:	48 89 c6             	mov    %rax,%rsi
    494e:	4c 89 e7             	mov    %r12,%rdi
    4951:	e8 02 eb ff ff       	call   3458 <_ZN13OperationNodeC1ESt10unique_ptrI14ExpressionNodeSt14default_deleteIS1_EES4_c>
    4956:	48 8b 45 c8          	mov    -0x38(%rbp),%rax
    495a:	4c 89 e6             	mov    %r12,%rsi
    495d:	48 89 c7             	mov    %rax,%rdi
    4960:	e8 1d 17 00 00       	call   6082 <_ZNSt10unique_ptrI13OperationNodeSt14default_deleteIS0_EEC1IS2_vEEPS0_>
    4965:	48 8d 45 d8          	lea    -0x28(%rbp),%rax
    4969:	48 89 c7             	mov    %rax,%rdi
    496c:	e8 af fa ff ff       	call   4420 <_ZNSt10unique_ptrI14ExpressionNodeSt14default_deleteIS0_EED1Ev>
    4971:	48 8d 45 e0          	lea    -0x20(%rbp),%rax
    4975:	48 89 c7             	mov    %rax,%rdi
    4978:	e8 a3 fa ff ff       	call   4420 <_ZNSt10unique_ptrI14ExpressionNodeSt14default_deleteIS0_EED1Ev>
    497d:	90                   	nop
    497e:	48 8b 45 e8          	mov    -0x18(%rbp),%rax
    4982:	64 48 2b 04 25 28 00 	sub    %fs:0x28,%rax
    4989:	00 00 
    498b:	74 05                	je     4992 <_ZSt11make_uniqueI13OperationNodeJSt10unique_ptrI14ExpressionNodeSt14default_deleteIS2_EES5_RcEENSt8__detail9_MakeUniqIT_E15__single_objectEDpOT0_+0xda>
    498d:	e8 9e d9 ff ff       	call   2330 <__stack_chk_fail@plt>
    4992:	48 8b 45 c8          	mov    -0x38(%rbp),%rax
    4996:	48 83 c4 40          	add    $0x40,%rsp
    499a:	5b                   	pop    %rbx
    499b:	41 5c                	pop    %r12
    499d:	5d                   	pop    %rbp
    499e:	c3                   	ret
    499f:	90                   	nop

00000000000049a0 <_ZNSt10unique_ptrI13OperationNodeSt14default_deleteIS0_EED1Ev>:
    49a0:	f3 0f 1e fa          	endbr64
    49a4:	55                   	push   %rbp
    49a5:	48 89 e5             	mov    %rsp,%rbp
    49a8:	53                   	push   %rbx
    49a9:	48 83 ec 28          	sub    $0x28,%rsp
    49ad:	48 89 7d d8          	mov    %rdi,-0x28(%rbp)
    49b1:	48 8b 45 d8          	mov    -0x28(%rbp),%rax
    49b5:	48 89 c7             	mov    %rax,%rdi
    49b8:	e8 ef 16 00 00       	call   60ac <_ZNSt15__uniq_ptr_implI13OperationNodeSt14default_deleteIS0_EE6_M_ptrEv>
    49bd:	48 89 45 e8          	mov    %rax,-0x18(%rbp)
    49c1:	48 8b 45 e8          	mov    -0x18(%rbp),%rax
    49c5:	48 8b 00             	mov    (%rax),%rax
    49c8:	48 85 c0             	test   %rax,%rax
    49cb:	74 29                	je     49f6 <_ZNSt10unique_ptrI13OperationNodeSt14default_deleteIS0_EED1Ev+0x56>
    49cd:	48 8b 45 d8          	mov    -0x28(%rbp),%rax
    49d1:	48 89 c7             	mov    %rax,%rdi
    49d4:	e8 f1 16 00 00       	call   60ca <_ZNSt10unique_ptrI13OperationNodeSt14default_deleteIS0_EE11get_deleterEv>
    49d9:	48 89 c3             	mov    %rax,%rbx
    49dc:	48 8b 45 e8          	mov    -0x18(%rbp),%rax
    49e0:	48 89 c7             	mov    %rax,%rdi
    49e3:	e8 00 17 00 00       	call   60e8 <_ZSt4moveIRP13OperationNodeEONSt16remove_referenceIT_E4typeEOS4_>
    49e8:	48 8b 00             	mov    (%rax),%rax
    49eb:	48 89 c6             	mov    %rax,%rsi
    49ee:	48 89 df             	mov    %rbx,%rdi
    49f1:	e8 82 17 00 00       	call   6178 <_ZNKSt14default_deleteI13OperationNodeEclEPS0_>
    49f6:	48 8b 45 e8          	mov    -0x18(%rbp),%rax
    49fa:	48 c7 00 00 00 00 00 	movq   $0x0,(%rax)
    4a01:	90                   	nop
    4a02:	48 8b 5d f8          	mov    -0x8(%rbp),%rbx
    4a06:	c9                   	leave
    4a07:	c3                   	ret

0000000000004a08 <_ZNSt10unique_ptrI14ExpressionNodeSt14default_deleteIS0_EEaSI13OperationNodeS1_IS5_EEENSt9enable_ifIXsrSt6__and_IJS8_IJSt14is_convertibleINS_IT_T0_E7pointerEPS0_ESt6__not_ISt8is_arrayISA_EEEESt13is_assignableIRS2_OSB_EEE5valueERS3_E4typeEOSC_>:
    4a08:	f3 0f 1e fa          	endbr64
    4a0c:	55                   	push   %rbp
    4a0d:	48 89 e5             	mov    %rsp,%rbp
    4a10:	48 83 ec 20          	sub    $0x20,%rsp
    4a14:	48 89 7d e8          	mov    %rdi,-0x18(%rbp)
    4a18:	48 89 75 e0          	mov    %rsi,-0x20(%rbp)
    4a1c:	64 48 8b 04 25 28 00 	mov    %fs:0x28,%rax
    4a23:	00 00 
    4a25:	48 89 45 f8          	mov    %rax,-0x8(%rbp)
    4a29:	31 c0                	xor    %eax,%eax
    4a2b:	48 8b 45 e0          	mov    -0x20(%rbp),%rax
    4a2f:	48 89 c7             	mov    %rax,%rdi
    4a32:	e8 ab 17 00 00       	call   61e2 <_ZNSt10unique_ptrI13OperationNodeSt14default_deleteIS0_EE7releaseEv>
    4a37:	48 89 c2             	mov    %rax,%rdx
    4a3a:	48 8b 45 e8          	mov    -0x18(%rbp),%rax
    4a3e:	48 89 d6             	mov    %rdx,%rsi
    4a41:	48 89 c7             	mov    %rax,%rdi
    4a44:	e8 5f 17 00 00       	call   61a8 <_ZNSt10unique_ptrI14ExpressionNodeSt14default_deleteIS0_EE5resetEPS0_>
    4a49:	48 8b 45 e0          	mov    -0x20(%rbp),%rax
    4a4d:	48 89 c7             	mov    %rax,%rdi
    4a50:	e8 75 16 00 00       	call   60ca <_ZNSt10unique_ptrI13OperationNodeSt14default_deleteIS0_EE11get_deleterEv>
    4a55:	48 89 c7             	mov    %rax,%rdi
    4a58:	e8 a3 17 00 00       	call   6200 <_ZSt7forwardISt14default_deleteI13OperationNodeEEOT_RNSt16remove_referenceIS3_E4typeE>
    4a5d:	48 89 c2             	mov    %rax,%rdx
    4a60:	48 8d 45 f7          	lea    -0x9(%rbp),%rax
    4a64:	48 89 d6             	mov    %rdx,%rsi
    4a67:	48 89 c7             	mov    %rax,%rdi
    4a6a:	e8 a3 17 00 00       	call   6212 <_ZNSt14default_deleteI14ExpressionNodeEC1I13OperationNodevEERKS_IT_E>
    4a6f:	48 8b 45 e8          	mov    -0x18(%rbp),%rax
    4a73:	48 89 c7             	mov    %rax,%rdi
    4a76:	e8 95 0e 00 00       	call   5910 <_ZNSt10unique_ptrI14ExpressionNodeSt14default_deleteIS0_EE11get_deleterEv>
    4a7b:	48 8b 45 e8          	mov    -0x18(%rbp),%rax
    4a7f:	48 8b 55 f8          	mov    -0x8(%rbp),%rdx
    4a83:	64 48 2b 14 25 28 00 	sub    %fs:0x28,%rdx
    4a8a:	00 00 
    4a8c:	74 05                	je     4a93 <_ZNSt10unique_ptrI14ExpressionNodeSt14default_deleteIS0_EEaSI13OperationNodeS1_IS5_EEENSt9enable_ifIXsrSt6__and_IJS8_IJSt14is_convertibleINS_IT_T0_E7pointerEPS0_ESt6__not_ISt8is_arrayISA_EEEESt13is_assignableIRS2_OSB_EEE5valueERS3_E4typeEOSC_+0x8b>
    4a8e:	e8 9d d8 ff ff       	call   2330 <__stack_chk_fail@plt>
    4a93:	c9                   	leave
    4a94:	c3                   	ret
    4a95:	90                   	nop

0000000000004a96 <_ZNKSt3setIiSt4lessIiESaIiEE4sizeEv>:
    4a96:	f3 0f 1e fa          	endbr64
    4a9a:	55                   	push   %rbp
    4a9b:	48 89 e5             	mov    %rsp,%rbp
    4a9e:	48 83 ec 10          	sub    $0x10,%rsp
    4aa2:	48 89 7d f8          	mov    %rdi,-0x8(%rbp)
    4aa6:	48 8b 45 f8          	mov    -0x8(%rbp),%rax
    4aaa:	48 89 c7             	mov    %rax,%rdi
    4aad:	e8 74 17 00 00       	call   6226 <_ZNKSt8_Rb_treeIiiSt9_IdentityIiESt4lessIiESaIiEE4sizeEv>
    4ab2:	c9                   	leave
    4ab3:	c3                   	ret

0000000000004ab4 <_ZSt11make_uniqueI8CircuitoJmEENSt8__detail9_MakeUniqIT_E15__single_objectEDpOT0_>:
    4ab4:	f3 0f 1e fa          	endbr64
    4ab8:	55                   	push   %rbp
    4ab9:	48 89 e5             	mov    %rsp,%rbp
    4abc:	53                   	push   %rbx
    4abd:	48 83 ec 18          	sub    $0x18,%rsp
    4ac1:	48 89 7d e8          	mov    %rdi,-0x18(%rbp)
    4ac5:	48 89 75 e0          	mov    %rsi,-0x20(%rbp)
    4ac9:	bf 20 00 00 00       	mov    $0x20,%edi
    4ace:	e8 0d d8 ff ff       	call   22e0 <_Znwm@plt>
    4ad3:	48 89 c3             	mov    %rax,%rbx
    4ad6:	48 8b 45 e0          	mov    -0x20(%rbp),%rax
    4ada:	48 89 c7             	mov    %rax,%rdi
    4add:	e8 17 02 00 00       	call   4cf9 <_ZSt7forwardImEOT_RNSt16remove_referenceIS0_E4typeE>
    4ae2:	48 8b 00             	mov    (%rax),%rax
    4ae5:	89 c6                	mov    %eax,%esi
    4ae7:	48 89 df             	mov    %rbx,%rdi
    4aea:	e8 d9 e6 ff ff       	call   31c8 <_ZN8CircuitoC1Ei>
    4aef:	48 8b 45 e8          	mov    -0x18(%rbp),%rax
    4af3:	48 89 de             	mov    %rbx,%rsi
    4af6:	48 89 c7             	mov    %rax,%rdi
    4af9:	e8 68 17 00 00       	call   6266 <_ZNSt10unique_ptrI8CircuitoSt14default_deleteIS0_EEC1IS2_vEEPS0_>
    4afe:	48 8b 45 e8          	mov    -0x18(%rbp),%rax
    4b02:	48 8b 5d f8          	mov    -0x8(%rbp),%rbx
    4b06:	c9                   	leave
    4b07:	c3                   	ret

0000000000004b08 <_ZNSt10unique_ptrI8CircuitoSt14default_deleteIS0_EED1Ev>:
    4b08:	f3 0f 1e fa          	endbr64
    4b0c:	55                   	push   %rbp
    4b0d:	48 89 e5             	mov    %rsp,%rbp
    4b10:	53                   	push   %rbx
    4b11:	48 83 ec 28          	sub    $0x28,%rsp
    4b15:	48 89 7d d8          	mov    %rdi,-0x28(%rbp)
    4b19:	48 8b 45 d8          	mov    -0x28(%rbp),%rax
    4b1d:	48 89 c7             	mov    %rax,%rdi
    4b20:	e8 6b 17 00 00       	call   6290 <_ZNSt15__uniq_ptr_implI8CircuitoSt14default_deleteIS0_EE6_M_ptrEv>
    4b25:	48 89 45 e8          	mov    %rax,-0x18(%rbp)
    4b29:	48 8b 45 e8          	mov    -0x18(%rbp),%rax
    4b2d:	48 8b 00             	mov    (%rax),%rax
    4b30:	48 85 c0             	test   %rax,%rax
    4b33:	74 29                	je     4b5e <_ZNSt10unique_ptrI8CircuitoSt14default_deleteIS0_EED1Ev+0x56>
    4b35:	48 8b 45 d8          	mov    -0x28(%rbp),%rax
    4b39:	48 89 c7             	mov    %rax,%rdi
    4b3c:	e8 6d 17 00 00       	call   62ae <_ZNSt10unique_ptrI8CircuitoSt14default_deleteIS0_EE11get_deleterEv>
    4b41:	48 89 c3             	mov    %rax,%rbx
    4b44:	48 8b 45 e8          	mov    -0x18(%rbp),%rax
    4b48:	48 89 c7             	mov    %rax,%rdi
    4b4b:	e8 7c 17 00 00       	call   62cc <_ZSt4moveIRP8CircuitoEONSt16remove_referenceIT_E4typeEOS4_>
    4b50:	48 8b 00             	mov    (%rax),%rax
    4b53:	48 89 c6             	mov    %rax,%rsi
    4b56:	48 89 df             	mov    %rbx,%rdi
    4b59:	e8 80 17 00 00       	call   62de <_ZNKSt14default_deleteI8CircuitoEclEPS0_>
    4b5e:	48 8b 45 e8          	mov    -0x18(%rbp),%rax
    4b62:	48 c7 00 00 00 00 00 	movq   $0x0,(%rax)
    4b69:	90                   	nop
    4b6a:	48 8b 5d f8          	mov    -0x8(%rbp),%rbx
    4b6e:	c9                   	leave
    4b6f:	c3                   	ret

0000000000004b70 <_ZNKSt3setI6bipoloSt4lessIS0_ESaIS0_EE5beginEv>:
    4b70:	f3 0f 1e fa          	endbr64
    4b74:	55                   	push   %rbp
    4b75:	48 89 e5             	mov    %rsp,%rbp
    4b78:	48 83 ec 10          	sub    $0x10,%rsp
    4b7c:	48 89 7d f8          	mov    %rdi,-0x8(%rbp)
    4b80:	48 8b 45 f8          	mov    -0x8(%rbp),%rax
    4b84:	48 89 c7             	mov    %rax,%rdi
    4b87:	e8 8c 17 00 00       	call   6318 <_ZNKSt8_Rb_treeI6bipoloS0_St9_IdentityIS0_ESt4lessIS0_ESaIS0_EE5beginEv>
    4b8c:	c9                   	leave
    4b8d:	c3                   	ret

0000000000004b8e <_ZNKSt3setI6bipoloSt4lessIS0_ESaIS0_EE3endEv>:
    4b8e:	f3 0f 1e fa          	endbr64
    4b92:	55                   	push   %rbp
    4b93:	48 89 e5             	mov    %rsp,%rbp
    4b96:	48 83 ec 10          	sub    $0x10,%rsp
    4b9a:	48 89 7d f8          	mov    %rdi,-0x8(%rbp)
    4b9e:	48 8b 45 f8          	mov    -0x8(%rbp),%rax
    4ba2:	48 89 c7             	mov    %rax,%rdi
    4ba5:	e8 be 17 00 00       	call   6368 <_ZNKSt8_Rb_treeI6bipoloS0_St9_IdentityIS0_ESt4lessIS0_ESaIS0_EE3endEv>
    4baa:	c9                   	leave
    4bab:	c3                   	ret

0000000000004bac <_ZStneRKSt23_Rb_tree_const_iteratorI6bipoloES3_>:
    4bac:	f3 0f 1e fa          	endbr64
    4bb0:	55                   	push   %rbp
    4bb1:	48 89 e5             	mov    %rsp,%rbp
    4bb4:	48 89 7d f8          	mov    %rdi,-0x8(%rbp)
    4bb8:	48 89 75 f0          	mov    %rsi,-0x10(%rbp)
    4bbc:	48 8b 45 f8          	mov    -0x8(%rbp),%rax
    4bc0:	48 8b 10             	mov    (%rax),%rdx
    4bc3:	48 8b 45 f0          	mov    -0x10(%rbp),%rax
    4bc7:	48 8b 00             	mov    (%rax),%rax
    4bca:	48 39 c2             	cmp    %rax,%rdx
    4bcd:	0f 95 c0             	setne  %al
    4bd0:	5d                   	pop    %rbp
    4bd1:	c3                   	ret

0000000000004bd2 <_ZNSt23_Rb_tree_const_iteratorI6bipoloEppEv>:
    4bd2:	f3 0f 1e fa          	endbr64
    4bd6:	55                   	push   %rbp
    4bd7:	48 89 e5             	mov    %rsp,%rbp
    4bda:	48 83 ec 10          	sub    $0x10,%rsp
    4bde:	48 89 7d f8          	mov    %rdi,-0x8(%rbp)
    4be2:	48 8b 45 f8          	mov    -0x8(%rbp),%rax
    4be6:	48 8b 00             	mov    (%rax),%rax
    4be9:	48 89 c7             	mov    %rax,%rdi
    4bec:	e8 4f d7 ff ff       	call   2340 <_ZSt18_Rb_tree_incrementPKSt18_Rb_tree_node_base@plt>
    4bf1:	48 8b 55 f8          	mov    -0x8(%rbp),%rdx
    4bf5:	48 89 02             	mov    %rax,(%rdx)
    4bf8:	48 8b 45 f8          	mov    -0x8(%rbp),%rax
    4bfc:	c9                   	leave
    4bfd:	c3                   	ret

0000000000004bfe <_ZNKSt23_Rb_tree_const_iteratorI6bipoloEdeEv>:
    4bfe:	f3 0f 1e fa          	endbr64
    4c02:	55                   	push   %rbp
    4c03:	48 89 e5             	mov    %rsp,%rbp
    4c06:	48 83 ec 10          	sub    $0x10,%rsp
    4c0a:	48 89 7d f8          	mov    %rdi,-0x8(%rbp)
    4c0e:	48 8b 45 f8          	mov    -0x8(%rbp),%rax
    4c12:	48 8b 00             	mov    (%rax),%rax
    4c15:	48 89 c7             	mov    %rax,%rdi
    4c18:	e8 9b 17 00 00       	call   63b8 <_ZNKSt13_Rb_tree_nodeI6bipoloE9_M_valptrEv>
    4c1d:	c9                   	leave
    4c1e:	c3                   	ret
    4c1f:	90                   	nop

0000000000004c20 <_ZNKSt10unique_ptrI8CircuitoSt14default_deleteIS0_EEptEv>:
    4c20:	f3 0f 1e fa          	endbr64
    4c24:	55                   	push   %rbp
    4c25:	48 89 e5             	mov    %rsp,%rbp
    4c28:	48 83 ec 10          	sub    $0x10,%rsp
    4c2c:	48 89 7d f8          	mov    %rdi,-0x8(%rbp)
    4c30:	48 8b 45 f8          	mov    -0x8(%rbp),%rax
    4c34:	48 89 c7             	mov    %rax,%rdi
    4c37:	e8 9e 17 00 00       	call   63da <_ZNKSt10unique_ptrI8CircuitoSt14default_deleteIS0_EE3getEv>
    4c3c:	c9                   	leave
    4c3d:	c3                   	ret

0000000000004c3e <_ZSt4moveIRSt10unique_ptrI8CircuitoSt14default_deleteIS1_EEEONSt16remove_referenceIT_E4typeEOS7_>:
    4c3e:	f3 0f 1e fa          	endbr64
    4c42:	55                   	push   %rbp
    4c43:	48 89 e5             	mov    %rsp,%rbp
    4c46:	48 89 7d f8          	mov    %rdi,-0x8(%rbp)
    4c4a:	48 8b 45 f8          	mov    -0x8(%rbp),%rax
    4c4e:	5d                   	pop    %rbp
    4c4f:	c3                   	ret

0000000000004c50 <_ZSt9make_pairISt10unique_ptrI14ExpressionNodeSt14default_deleteIS1_EES0_I8CircuitoS2_IS5_EEESt4pairINSt25__strip_reference_wrapperINSt5decayIT_E4typeEE6__typeENS9_INSA_IT0_E4typeEE6__typeEEOSB_OSG_>:
    4c50:	f3 0f 1e fa          	endbr64
    4c54:	55                   	push   %rbp
    4c55:	48 89 e5             	mov    %rsp,%rbp
    4c58:	53                   	push   %rbx
    4c59:	48 83 ec 28          	sub    $0x28,%rsp
    4c5d:	48 89 7d e8          	mov    %rdi,-0x18(%rbp)
    4c61:	48 89 75 e0          	mov    %rsi,-0x20(%rbp)
    4c65:	48 89 55 d8          	mov    %rdx,-0x28(%rbp)
    4c69:	48 8b 45 d8          	mov    -0x28(%rbp),%rax
    4c6d:	48 89 c7             	mov    %rax,%rdi
    4c70:	e8 83 17 00 00       	call   63f8 <_ZSt7forwardISt10unique_ptrI8CircuitoSt14default_deleteIS1_EEEOT_RNSt16remove_referenceIS5_E4typeE>
    4c75:	48 89 c3             	mov    %rax,%rbx
    4c78:	48 8b 45 e0          	mov    -0x20(%rbp),%rax
    4c7c:	48 89 c7             	mov    %rax,%rdi
    4c7f:	e8 b0 13 00 00       	call   6034 <_ZSt7forwardISt10unique_ptrI14ExpressionNodeSt14default_deleteIS1_EEEOT_RNSt16remove_referenceIS5_E4typeE>
    4c84:	48 89 c1             	mov    %rax,%rcx
    4c87:	48 8b 45 e8          	mov    -0x18(%rbp),%rax
    4c8b:	48 89 da             	mov    %rbx,%rdx
    4c8e:	48 89 ce             	mov    %rcx,%rsi
    4c91:	48 89 c7             	mov    %rax,%rdi
    4c94:	e8 c5 17 00 00       	call   645e <_ZNSt4pairISt10unique_ptrI14ExpressionNodeSt14default_deleteIS1_EES0_I8CircuitoS2_IS5_EEEC1IS4_S7_Lb1EEEOT_OT0_>
    4c99:	48 8b 45 e8          	mov    -0x18(%rbp),%rax
    4c9d:	48 8b 5d f8          	mov    -0x8(%rbp),%rbx
    4ca1:	c9                   	leave
    4ca2:	c3                   	ret

0000000000004ca3 <_ZStneI14ExpressionNodeSt14default_deleteIS0_EEbRKSt10unique_ptrIT_T0_EDn>:
    4ca3:	f3 0f 1e fa          	endbr64
    4ca7:	55                   	push   %rbp
    4ca8:	48 89 e5             	mov    %rsp,%rbp
    4cab:	48 83 ec 10          	sub    $0x10,%rsp
    4caf:	48 89 7d f8          	mov    %rdi,-0x8(%rbp)
    4cb3:	48 89 75 f0          	mov    %rsi,-0x10(%rbp)
    4cb7:	48 8b 45 f8          	mov    -0x8(%rbp),%rax
    4cbb:	48 89 c7             	mov    %rax,%rdi
    4cbe:	e8 79 12 00 00       	call   5f3c <_ZNKSt10unique_ptrI14ExpressionNodeSt14default_deleteIS0_EEcvbEv>
    4cc3:	c9                   	leave
    4cc4:	c3                   	ret
    4cc5:	90                   	nop

0000000000004cc6 <_ZNSt15__new_allocatorIcED1Ev>:
    4cc6:	f3 0f 1e fa          	endbr64
    4cca:	55                   	push   %rbp
    4ccb:	48 89 e5             	mov    %rsp,%rbp
    4cce:	48 89 7d f8          	mov    %rdi,-0x8(%rbp)
    4cd2:	90                   	nop
    4cd3:	5d                   	pop    %rbp
    4cd4:	c3                   	ret

0000000000004cd5 <_ZSt4moveIRNSt7__cxx1112basic_stringIcSt11char_traitsIcESaIcEEEEONSt16remove_referenceIT_E4typeEOS8_>:
    4cd5:	f3 0f 1e fa          	endbr64
    4cd9:	55                   	push   %rbp
    4cda:	48 89 e5             	mov    %rsp,%rbp
    4cdd:	48 89 7d f8          	mov    %rdi,-0x8(%rbp)
    4ce1:	48 8b 45 f8          	mov    -0x8(%rbp),%rax
    4ce5:	5d                   	pop    %rbp
    4ce6:	c3                   	ret

0000000000004ce7 <_ZSt7forwardIbEOT_RNSt16remove_referenceIS0_E4typeE>:
    4ce7:	f3 0f 1e fa          	endbr64
    4ceb:	55                   	push   %rbp
    4cec:	48 89 e5             	mov    %rsp,%rbp
    4cef:	48 89 7d f8          	mov    %rdi,-0x8(%rbp)
    4cf3:	48 8b 45 f8          	mov    -0x8(%rbp),%rax
    4cf7:	5d                   	pop    %rbp
    4cf8:	c3                   	ret

0000000000004cf9 <_ZSt7forwardImEOT_RNSt16remove_referenceIS0_E4typeE>:
    4cf9:	f3 0f 1e fa          	endbr64
    4cfd:	55                   	push   %rbp
    4cfe:	48 89 e5             	mov    %rsp,%rbp
    4d01:	48 89 7d f8          	mov    %rdi,-0x8(%rbp)
    4d05:	48 8b 45 f8          	mov    -0x8(%rbp),%rax
    4d09:	5d                   	pop    %rbp
    4d0a:	c3                   	ret
    4d0b:	90                   	nop

0000000000004d0c <_ZNK5Eigen8symbolic8BaseExprINS0_10SymbolExprINS_8internal17symbolic_last_tagEEEE7derivedEv>:
    4d0c:	f3 0f 1e fa          	endbr64
    4d10:	55                   	push   %rbp
    4d11:	48 89 e5             	mov    %rsp,%rbp
    4d14:	48 89 7d f8          	mov    %rdi,-0x8(%rbp)
    4d18:	48 8b 45 f8          	mov    -0x8(%rbp),%rax
    4d1c:	5d                   	pop    %rbp
    4d1d:	c3                   	ret

0000000000004d1e <_ZN5Eigen8symbolic9ValueExprINS_8internal8FixedIntILi1EEEEC1Ev>:
    4d1e:	f3 0f 1e fa          	endbr64
    4d22:	55                   	push   %rbp
    4d23:	48 89 e5             	mov    %rsp,%rbp
    4d26:	48 89 7d f8          	mov    %rdi,-0x8(%rbp)
    4d2a:	90                   	nop
    4d2b:	5d                   	pop    %rbp
    4d2c:	c3                   	ret
    4d2d:	90                   	nop

0000000000004d2e <_ZN5Eigen8symbolic7AddExprINS0_10SymbolExprINS_8internal17symbolic_last_tagEEENS0_9ValueExprINS3_8FixedIntILi1EEEEEEC1ERKS5_RKS9_>:
    4d2e:	f3 0f 1e fa          	endbr64
    4d32:	55                   	push   %rbp
    4d33:	48 89 e5             	mov    %rsp,%rbp
    4d36:	48 89 7d f8          	mov    %rdi,-0x8(%rbp)
    4d3a:	48 89 75 f0          	mov    %rsi,-0x10(%rbp)
    4d3e:	48 89 55 e8          	mov    %rdx,-0x18(%rbp)
    4d42:	90                   	nop
    4d43:	5d                   	pop    %rbp
    4d44:	c3                   	ret
    4d45:	90                   	nop

0000000000004d46 <_ZNSt12_Vector_baseI6bipoloSaIS0_EE17_Vector_impl_dataC1Ev>:
    4d46:	f3 0f 1e fa          	endbr64
    4d4a:	55                   	push   %rbp
    4d4b:	48 89 e5             	mov    %rsp,%rbp
    4d4e:	48 89 7d f8          	mov    %rdi,-0x8(%rbp)
    4d52:	48 8b 45 f8          	mov    -0x8(%rbp),%rax
    4d56:	48 c7 00 00 00 00 00 	movq   $0x0,(%rax)
    4d5d:	48 8b 45 f8          	mov    -0x8(%rbp),%rax
    4d61:	48 c7 40 08 00 00 00 	movq   $0x0,0x8(%rax)
    4d68:	00 
    4d69:	48 8b 45 f8          	mov    -0x8(%rbp),%rax
    4d6d:	48 c7 40 10 00 00 00 	movq   $0x0,0x10(%rax)
    4d74:	00 
    4d75:	90                   	nop
    4d76:	5d                   	pop    %rbp
    4d77:	c3                   	ret

0000000000004d78 <_ZNSt15__new_allocatorI6bipoloED1Ev>:
    4d78:	f3 0f 1e fa          	endbr64
    4d7c:	55                   	push   %rbp
    4d7d:	48 89 e5             	mov    %rsp,%rbp
    4d80:	48 89 7d f8          	mov    %rdi,-0x8(%rbp)
    4d84:	90                   	nop
    4d85:	5d                   	pop    %rbp
    4d86:	c3                   	ret
    4d87:	90                   	nop

0000000000004d88 <_ZNSt12_Vector_baseI6bipoloSaIS0_EE13_M_deallocateEPS0_m>:
    4d88:	f3 0f 1e fa          	endbr64
    4d8c:	55                   	push   %rbp
    4d8d:	48 89 e5             	mov    %rsp,%rbp
    4d90:	48 83 ec 40          	sub    $0x40,%rsp
    4d94:	48 89 7d d8          	mov    %rdi,-0x28(%rbp)
    4d98:	48 89 75 d0          	mov    %rsi,-0x30(%rbp)
    4d9c:	48 89 55 c8          	mov    %rdx,-0x38(%rbp)
    4da0:	48 83 7d d0 00       	cmpq   $0x0,-0x30(%rbp)
    4da5:	74 30                	je     4dd7 <_ZNSt12_Vector_baseI6bipoloSaIS0_EE13_M_deallocateEPS0_m+0x4f>
    4da7:	48 8b 45 d8          	mov    -0x28(%rbp),%rax
    4dab:	48 89 45 e8          	mov    %rax,-0x18(%rbp)
    4daf:	48 8b 45 d0          	mov    -0x30(%rbp),%rax
    4db3:	48 89 45 f0          	mov    %rax,-0x10(%rbp)
    4db7:	48 8b 45 c8          	mov    -0x38(%rbp),%rax
    4dbb:	48 89 45 f8          	mov    %rax,-0x8(%rbp)
    4dbf:	48 8b 55 f8          	mov    -0x8(%rbp),%rdx
    4dc3:	48 8b 4d f0          	mov    -0x10(%rbp),%rcx
    4dc7:	48 8b 45 e8          	mov    -0x18(%rbp),%rax
    4dcb:	48 89 ce             	mov    %rcx,%rsi
    4dce:	48 89 c7             	mov    %rax,%rdi
    4dd1:	e8 2c 25 00 00       	call   7302 <_ZNSt15__new_allocatorI6bipoloE10deallocateEPS0_m>
    4dd6:	90                   	nop
    4dd7:	90                   	nop
    4dd8:	c9                   	leave
    4dd9:	c3                   	ret

0000000000004dda <_ZNSt12_Vector_baseI6bipoloSaIS0_EE19_M_get_Tp_allocatorEv>:
    4dda:	f3 0f 1e fa          	endbr64
    4dde:	55                   	push   %rbp
    4ddf:	48 89 e5             	mov    %rsp,%rbp
    4de2:	48 89 7d f8          	mov    %rdi,-0x8(%rbp)
    4de6:	48 8b 45 f8          	mov    -0x8(%rbp),%rax
    4dea:	5d                   	pop    %rbp
    4deb:	c3                   	ret

0000000000004dec <_ZSt7forwardIRiEOT_RNSt16remove_referenceIS1_E4typeE>:
    4dec:	f3 0f 1e fa          	endbr64
    4df0:	55                   	push   %rbp
    4df1:	48 89 e5             	mov    %rsp,%rbp
    4df4:	48 89 7d f8          	mov    %rdi,-0x8(%rbp)
    4df8:	48 8b 45 f8          	mov    -0x8(%rbp),%rax
    4dfc:	5d                   	pop    %rbp
    4dfd:	c3                   	ret

0000000000004dfe <_ZSt7forwardIRKNSt7__cxx1112basic_stringIcSt11char_traitsIcESaIcEEEEOT_RNSt16remove_referenceIS8_E4typeE>:
    4dfe:	f3 0f 1e fa          	endbr64
    4e02:	55                   	push   %rbp
    4e03:	48 89 e5             	mov    %rsp,%rbp
    4e06:	48 89 7d f8          	mov    %rdi,-0x8(%rbp)
    4e0a:	48 8b 45 f8          	mov    -0x8(%rbp),%rax
    4e0e:	5d                   	pop    %rbp
    4e0f:	c3                   	ret

0000000000004e10 <_ZSt7forwardIR4TipoEOT_RNSt16remove_referenceIS2_E4typeE>:
    4e10:	f3 0f 1e fa          	endbr64
    4e14:	55                   	push   %rbp
    4e15:	48 89 e5             	mov    %rsp,%rbp
    4e18:	48 89 7d f8          	mov    %rdi,-0x8(%rbp)
    4e1c:	48 8b 45 f8          	mov    -0x8(%rbp),%rax
    4e20:	5d                   	pop    %rbp
    4e21:	c3                   	ret

0000000000004e22 <_ZSt7forwardIRfEOT_RNSt16remove_referenceIS1_E4typeE>:
    4e22:	f3 0f 1e fa          	endbr64
    4e26:	55                   	push   %rbp
    4e27:	48 89 e5             	mov    %rsp,%rbp
    4e2a:	48 89 7d f8          	mov    %rdi,-0x8(%rbp)
    4e2e:	48 8b 45 f8          	mov    -0x8(%rbp),%rax
    4e32:	5d                   	pop    %rbp
    4e33:	c3                   	ret

0000000000004e34 <_ZNSt6vectorI6bipoloSaIS0_EE17_M_realloc_insertIJRiRKNSt7__cxx1112basic_stringIcSt11char_traitsIcESaIcEEER4TipoRfS4_S4_EEEvN9__gnu_cxx17__normal_iteratorIPS0_S2_EEDpOT_>:
    4e34:	f3 0f 1e fa          	endbr64
    4e38:	55                   	push   %rbp
    4e39:	48 89 e5             	mov    %rsp,%rbp
    4e3c:	41 57                	push   %r15
    4e3e:	41 56                	push   %r14
    4e40:	41 55                	push   %r13
    4e42:	41 54                	push   %r12
    4e44:	53                   	push   %rbx
    4e45:	48 81 ec 58 01 00 00 	sub    $0x158,%rsp
    4e4c:	48 89 bd c8 fe ff ff 	mov    %rdi,-0x138(%rbp)
    4e53:	48 89 b5 c0 fe ff ff 	mov    %rsi,-0x140(%rbp)
    4e5a:	48 89 95 b8 fe ff ff 	mov    %rdx,-0x148(%rbp)
    4e61:	48 89 8d b0 fe ff ff 	mov    %rcx,-0x150(%rbp)
    4e68:	4c 89 85 a8 fe ff ff 	mov    %r8,-0x158(%rbp)
    4e6f:	4c 89 8d a0 fe ff ff 	mov    %r9,-0x160(%rbp)
    4e76:	48 8b 45 10          	mov    0x10(%rbp),%rax
    4e7a:	48 89 85 98 fe ff ff 	mov    %rax,-0x168(%rbp)
    4e81:	48 8b 45 18          	mov    0x18(%rbp),%rax
    4e85:	48 89 85 90 fe ff ff 	mov    %rax,-0x170(%rbp)
    4e8c:	64 48 8b 04 25 28 00 	mov    %fs:0x28,%rax
    4e93:	00 00 
    4e95:	48 89 45 c8          	mov    %rax,-0x38(%rbp)
    4e99:	31 c0                	xor    %eax,%eax
    4e9b:	48 8b 85 c8 fe ff ff 	mov    -0x138(%rbp),%rax
    4ea2:	48 8d 15 d7 43 00 00 	lea    0x43d7(%rip),%rdx        # 9280 <_ZN5Eigen8internalL18defaultL3CacheSizeE+0x218>
    4ea9:	be 01 00 00 00       	mov    $0x1,%esi
    4eae:	48 89 c7             	mov    %rax,%rdi
    4eb1:	e8 2c 16 00 00       	call   64e2 <_ZNKSt6vectorI6bipoloSaIS0_EE12_M_check_lenEmPKc>
    4eb6:	48 89 85 e0 fe ff ff 	mov    %rax,-0x120(%rbp)
    4ebd:	48 8b 85 c8 fe ff ff 	mov    -0x138(%rbp),%rax
    4ec4:	48 8b 00             	mov    (%rax),%rax
    4ec7:	48 89 85 e8 fe ff ff 	mov    %rax,-0x118(%rbp)
    4ece:	48 8b 85 c8 fe ff ff 	mov    -0x138(%rbp),%rax
    4ed5:	48 8b 40 08          	mov    0x8(%rax),%rax
    4ed9:	48 89 85 f0 fe ff ff 	mov    %rax,-0x110(%rbp)
    4ee0:	48 8b 85 c8 fe ff ff 	mov    -0x138(%rbp),%rax
    4ee7:	48 89 c7             	mov    %rax,%rdi
    4eea:	e8 c1 f3 ff ff       	call   42b0 <_ZNSt6vectorI6bipoloSaIS0_EE5beginEv>
    4eef:	48 89 85 d8 fe ff ff 	mov    %rax,-0x128(%rbp)
    4ef6:	48 8d 95 d8 fe ff ff 	lea    -0x128(%rbp),%rdx
    4efd:	48 8d 85 c0 fe ff ff 	lea    -0x140(%rbp),%rax
    4f04:	48 89 d6             	mov    %rdx,%rsi
    4f07:	48 89 c7             	mov    %rax,%rdi
    4f0a:	e8 d6 16 00 00       	call   65e5 <_ZN9__gnu_cxxmiIP6bipoloSt6vectorIS1_SaIS1_EEEENS_17__normal_iteratorIT_T0_E15difference_typeERKS9_SC_>
    4f0f:	48 89 85 f8 fe ff ff 	mov    %rax,-0x108(%rbp)
    4f16:	48 8b 85 c8 fe ff ff 	mov    -0x138(%rbp),%rax
    4f1d:	48 8b 95 e0 fe ff ff 	mov    -0x120(%rbp),%rdx
    4f24:	48 89 d6             	mov    %rdx,%rsi
    4f27:	48 89 c7             	mov    %rax,%rdi
    4f2a:	e8 07 17 00 00       	call   6636 <_ZNSt12_Vector_baseI6bipoloSaIS0_EE11_M_allocateEm>
    4f2f:	48 89 85 00 ff ff ff 	mov    %rax,-0x100(%rbp)
    4f36:	48 8b 85 00 ff ff ff 	mov    -0x100(%rbp),%rax
    4f3d:	48 89 85 08 ff ff ff 	mov    %rax,-0xf8(%rbp)
    4f44:	48 8b 85 90 fe ff ff 	mov    -0x170(%rbp),%rax
    4f4b:	48 89 c7             	mov    %rax,%rdi
    4f4e:	e8 99 fe ff ff       	call   4dec <_ZSt7forwardIRiEOT_RNSt16remove_referenceIS1_E4typeE>
    4f53:	48 89 c3             	mov    %rax,%rbx
    4f56:	48 8b 85 98 fe ff ff 	mov    -0x168(%rbp),%rax
    4f5d:	48 89 c7             	mov    %rax,%rdi
    4f60:	e8 87 fe ff ff       	call   4dec <_ZSt7forwardIRiEOT_RNSt16remove_referenceIS1_E4typeE>
    4f65:	49 89 c4             	mov    %rax,%r12
    4f68:	48 8b 85 a0 fe ff ff 	mov    -0x160(%rbp),%rax
    4f6f:	48 89 c7             	mov    %rax,%rdi
    4f72:	e8 ab fe ff ff       	call   4e22 <_ZSt7forwardIRfEOT_RNSt16remove_referenceIS1_E4typeE>
    4f77:	49 89 c5             	mov    %rax,%r13
    4f7a:	48 8b 85 a8 fe ff ff 	mov    -0x158(%rbp),%rax
    4f81:	48 89 c7             	mov    %rax,%rdi
    4f84:	e8 87 fe ff ff       	call   4e10 <_ZSt7forwardIR4TipoEOT_RNSt16remove_referenceIS2_E4typeE>
    4f89:	49 89 c6             	mov    %rax,%r14
    4f8c:	48 8b 85 b0 fe ff ff 	mov    -0x150(%rbp),%rax
    4f93:	48 89 c7             	mov    %rax,%rdi
    4f96:	e8 63 fe ff ff       	call   4dfe <_ZSt7forwardIRKNSt7__cxx1112basic_stringIcSt11char_traitsIcESaIcEEEEOT_RNSt16remove_referenceIS8_E4typeE>
    4f9b:	49 89 c7             	mov    %rax,%r15
    4f9e:	48 8b 85 b8 fe ff ff 	mov    -0x148(%rbp),%rax
    4fa5:	48 89 c7             	mov    %rax,%rdi
    4fa8:	e8 3f fe ff ff       	call   4dec <_ZSt7forwardIRiEOT_RNSt16remove_referenceIS1_E4typeE>
    4fad:	48 89 c1             	mov    %rax,%rcx
    4fb0:	48 8b 95 f8 fe ff ff 	mov    -0x108(%rbp),%rdx
    4fb7:	48 89 d0             	mov    %rdx,%rax
    4fba:	48 c1 e0 03          	shl    $0x3,%rax
    4fbe:	48 29 d0             	sub    %rdx,%rax
    4fc1:	48 c1 e0 03          	shl    $0x3,%rax
    4fc5:	48 89 c2             	mov    %rax,%rdx
    4fc8:	48 8b 85 00 ff ff ff 	mov    -0x100(%rbp),%rax
    4fcf:	48 01 c2             	add    %rax,%rdx
    4fd2:	48 8b 85 c8 fe ff ff 	mov    -0x138(%rbp),%rax
    4fd9:	48 89 85 10 ff ff ff 	mov    %rax,-0xf0(%rbp)
    4fe0:	48 89 95 18 ff ff ff 	mov    %rdx,-0xe8(%rbp)
    4fe7:	48 89 8d 20 ff ff ff 	mov    %rcx,-0xe0(%rbp)
    4fee:	4c 89 bd 28 ff ff ff 	mov    %r15,-0xd8(%rbp)
    4ff5:	4c 89 b5 30 ff ff ff 	mov    %r14,-0xd0(%rbp)
    4ffc:	4c 89 ad 38 ff ff ff 	mov    %r13,-0xc8(%rbp)
    5003:	4c 89 a5 40 ff ff ff 	mov    %r12,-0xc0(%rbp)
    500a:	48 89 9d 48 ff ff ff 	mov    %rbx,-0xb8(%rbp)
    5011:	48 8b 85 48 ff ff ff 	mov    -0xb8(%rbp),%rax
    5018:	48 89 c7             	mov    %rax,%rdi
    501b:	e8 cc fd ff ff       	call   4dec <_ZSt7forwardIRiEOT_RNSt16remove_referenceIS1_E4typeE>
    5020:	48 89 c3             	mov    %rax,%rbx
    5023:	48 8b 85 40 ff ff ff 	mov    -0xc0(%rbp),%rax
    502a:	48 89 c7             	mov    %rax,%rdi
    502d:	e8 ba fd ff ff       	call   4dec <_ZSt7forwardIRiEOT_RNSt16remove_referenceIS1_E4typeE>
    5032:	49 89 c4             	mov    %rax,%r12
    5035:	48 8b 85 38 ff ff ff 	mov    -0xc8(%rbp),%rax
    503c:	48 89 c7             	mov    %rax,%rdi
    503f:	e8 de fd ff ff       	call   4e22 <_ZSt7forwardIRfEOT_RNSt16remove_referenceIS1_E4typeE>
    5044:	49 89 c5             	mov    %rax,%r13
    5047:	48 8b 85 30 ff ff ff 	mov    -0xd0(%rbp),%rax
    504e:	48 89 c7             	mov    %rax,%rdi
    5051:	e8 ba fd ff ff       	call   4e10 <_ZSt7forwardIR4TipoEOT_RNSt16remove_referenceIS2_E4typeE>
    5056:	49 89 c6             	mov    %rax,%r14
    5059:	48 8b 85 28 ff ff ff 	mov    -0xd8(%rbp),%rax
    5060:	48 89 c7             	mov    %rax,%rdi
    5063:	e8 96 fd ff ff       	call   4dfe <_ZSt7forwardIRKNSt7__cxx1112basic_stringIcSt11char_traitsIcESaIcEEEEOT_RNSt16remove_referenceIS8_E4typeE>
    5068:	49 89 c7             	mov    %rax,%r15
    506b:	48 8b 85 20 ff ff ff 	mov    -0xe0(%rbp),%rax
    5072:	48 89 c7             	mov    %rax,%rdi
    5075:	e8 72 fd ff ff       	call   4dec <_ZSt7forwardIRiEOT_RNSt16remove_referenceIS1_E4typeE>
    507a:	48 8b 95 10 ff ff ff 	mov    -0xf0(%rbp),%rdx
    5081:	48 89 95 50 ff ff ff 	mov    %rdx,-0xb0(%rbp)
    5088:	48 8b 95 18 ff ff ff 	mov    -0xe8(%rbp),%rdx
    508f:	48 89 95 58 ff ff ff 	mov    %rdx,-0xa8(%rbp)
    5096:	48 89 85 60 ff ff ff 	mov    %rax,-0xa0(%rbp)
    509d:	4c 89 bd 68 ff ff ff 	mov    %r15,-0x98(%rbp)
    50a4:	4c 89 b5 70 ff ff ff 	mov    %r14,-0x90(%rbp)
    50ab:	4c 89 ad 78 ff ff ff 	mov    %r13,-0x88(%rbp)
    50b2:	4c 89 65 80          	mov    %r12,-0x80(%rbp)
    50b6:	48 89 5d 88          	mov    %rbx,-0x78(%rbp)
    50ba:	48 8b 9d 58 ff ff ff 	mov    -0xa8(%rbp),%rbx
    50c1:	48 89 de             	mov    %rbx,%rsi
    50c4:	bf 38 00 00 00       	mov    $0x38,%edi
    50c9:	e8 5c de ff ff       	call   2f2a <_ZnwmPv>
    50ce:	49 89 c4             	mov    %rax,%r12
    50d1:	c6 85 8f fe ff ff 01 	movb   $0x1,-0x171(%rbp)
    50d8:	48 8b 45 88          	mov    -0x78(%rbp),%rax
    50dc:	48 89 c7             	mov    %rax,%rdi
    50df:	e8 08 fd ff ff       	call   4dec <_ZSt7forwardIRiEOT_RNSt16remove_referenceIS1_E4typeE>
    50e4:	8b 00                	mov    (%rax),%eax
    50e6:	89 85 88 fe ff ff    	mov    %eax,-0x178(%rbp)
    50ec:	48 8b 45 80          	mov    -0x80(%rbp),%rax
    50f0:	48 89 c7             	mov    %rax,%rdi
    50f3:	e8 f4 fc ff ff       	call   4dec <_ZSt7forwardIRiEOT_RNSt16remove_referenceIS1_E4typeE>
    50f8:	8b 08                	mov    (%rax),%ecx
    50fa:	89 8d 84 fe ff ff    	mov    %ecx,-0x17c(%rbp)
    5100:	48 8b 85 78 ff ff ff 	mov    -0x88(%rbp),%rax
    5107:	48 89 c7             	mov    %rax,%rdi
    510a:	e8 13 fd ff ff       	call   4e22 <_ZSt7forwardIRfEOT_RNSt16remove_referenceIS1_E4typeE>
    510f:	44 8b 30             	mov    (%rax),%r14d
    5112:	48 8b 85 70 ff ff ff 	mov    -0x90(%rbp),%rax
    5119:	48 89 c7             	mov    %rax,%rdi
    511c:	e8 ef fc ff ff       	call   4e10 <_ZSt7forwardIR4TipoEOT_RNSt16remove_referenceIS2_E4typeE>
    5121:	44 8b 28             	mov    (%rax),%r13d
    5124:	48 8b 85 68 ff ff ff 	mov    -0x98(%rbp),%rax
    512b:	48 89 c7             	mov    %rax,%rdi
    512e:	e8 cb fc ff ff       	call   4dfe <_ZSt7forwardIRKNSt7__cxx1112basic_stringIcSt11char_traitsIcESaIcEEEEOT_RNSt16remove_referenceIS8_E4typeE>
    5133:	49 89 c7             	mov    %rax,%r15
    5136:	48 8b 85 60 ff ff ff 	mov    -0xa0(%rbp),%rax
    513d:	48 89 c7             	mov    %rax,%rdi
    5140:	e8 a7 fc ff ff       	call   4dec <_ZSt7forwardIRiEOT_RNSt16remove_referenceIS1_E4typeE>
    5145:	8b 00                	mov    (%rax),%eax
    5147:	44 8b 8d 88 fe ff ff 	mov    -0x178(%rbp),%r9d
    514e:	44 8b 85 84 fe ff ff 	mov    -0x17c(%rbp),%r8d
    5155:	66 41 0f 6e c6       	movd   %r14d,%xmm0
    515a:	44 89 e9             	mov    %r13d,%ecx
    515d:	4c 89 fa             	mov    %r15,%rdx
    5160:	89 c6                	mov    %eax,%esi
    5162:	4c 89 e7             	mov    %r12,%rdi
    5165:	e8 80 df ff ff       	call   30ea <_ZN6bipoloC1EiRKNSt7__cxx1112basic_stringIcSt11char_traitsIcESaIcEEE4Tipofii>
    516a:	90                   	nop
    516b:	90                   	nop
    516c:	48 c7 85 08 ff ff ff 	movq   $0x0,-0xf8(%rbp)
    5173:	00 00 00 00 
    5177:	48 8b 85 c8 fe ff ff 	mov    -0x138(%rbp),%rax
    517e:	48 89 c7             	mov    %rax,%rdi
    5181:	e8 54 fc ff ff       	call   4dda <_ZNSt12_Vector_baseI6bipoloSaIS0_EE19_M_get_Tp_allocatorEv>
    5186:	48 89 c3             	mov    %rax,%rbx
    5189:	48 8d 85 c0 fe ff ff 	lea    -0x140(%rbp),%rax
    5190:	48 89 c7             	mov    %rax,%rdi
    5193:	e8 fa 06 00 00       	call   5892 <_ZNK9__gnu_cxx17__normal_iteratorIP6bipoloSt6vectorIS1_SaIS1_EEE4baseEv>
    5198:	48 8b 30             	mov    (%rax),%rsi
    519b:	48 8b 95 00 ff ff ff 	mov    -0x100(%rbp),%rdx
    51a2:	48 8b 85 e8 fe ff ff 	mov    -0x118(%rbp),%rax
    51a9:	48 89 d9             	mov    %rbx,%rcx
    51ac:	48 89 c7             	mov    %rax,%rdi
    51af:	e8 cf 14 00 00       	call   6683 <_ZNSt6vectorI6bipoloSaIS0_EE11_S_relocateEPS0_S3_S3_RS1_>
    51b4:	48 89 85 08 ff ff ff 	mov    %rax,-0xf8(%rbp)
    51bb:	48 83 85 08 ff ff ff 	addq   $0x38,-0xf8(%rbp)
    51c2:	38 
    51c3:	48 8b 85 c8 fe ff ff 	mov    -0x138(%rbp),%rax
    51ca:	48 89 c7             	mov    %rax,%rdi
    51cd:	e8 08 fc ff ff       	call   4dda <_ZNSt12_Vector_baseI6bipoloSaIS0_EE19_M_get_Tp_allocatorEv>
    51d2:	48 89 c3             	mov    %rax,%rbx
    51d5:	48 8d 85 c0 fe ff ff 	lea    -0x140(%rbp),%rax
    51dc:	48 89 c7             	mov    %rax,%rdi
    51df:	e8 ae 06 00 00       	call   5892 <_ZNK9__gnu_cxx17__normal_iteratorIP6bipoloSt6vectorIS1_SaIS1_EEE4baseEv>
    51e4:	48 8b 00             	mov    (%rax),%rax
    51e7:	48 8b 95 08 ff ff ff 	mov    -0xf8(%rbp),%rdx
    51ee:	48 8b b5 f0 fe ff ff 	mov    -0x110(%rbp),%rsi
    51f5:	48 89 d9             	mov    %rbx,%rcx
    51f8:	48 89 c7             	mov    %rax,%rdi
    51fb:	e8 83 14 00 00       	call   6683 <_ZNSt6vectorI6bipoloSaIS0_EE11_S_relocateEPS0_S3_S3_RS1_>
    5200:	48 89 85 08 ff ff ff 	mov    %rax,-0xf8(%rbp)
    5207:	48 8b 85 c8 fe ff ff 	mov    -0x138(%rbp),%rax
    520e:	48 8b 95 c8 fe ff ff 	mov    -0x138(%rbp),%rdx
    5215:	48 8b 52 10          	mov    0x10(%rdx),%rdx
    5219:	48 2b 95 e8 fe ff ff 	sub    -0x118(%rbp),%rdx
    5220:	48 89 d1             	mov    %rdx,%rcx
    5223:	48 c1 f9 03          	sar    $0x3,%rcx
    5227:	48 ba b7 6d db b6 6d 	movabs $0x6db6db6db6db6db7,%rdx
    522e:	db b6 6d 
    5231:	48 0f af d1          	imul   %rcx,%rdx
    5235:	48 8b 8d e8 fe ff ff 	mov    -0x118(%rbp),%rcx
    523c:	48 89 ce             	mov    %rcx,%rsi
    523f:	48 89 c7             	mov    %rax,%rdi
    5242:	e8 41 fb ff ff       	call   4d88 <_ZNSt12_Vector_baseI6bipoloSaIS0_EE13_M_deallocateEPS0_m>
    5247:	48 8b 85 c8 fe ff ff 	mov    -0x138(%rbp),%rax
    524e:	48 8b 95 00 ff ff ff 	mov    -0x100(%rbp),%rdx
    5255:	48 89 10             	mov    %rdx,(%rax)
    5258:	48 8b 85 c8 fe ff ff 	mov    -0x138(%rbp),%rax
    525f:	48 8b 95 08 ff ff ff 	mov    -0xf8(%rbp),%rdx
    5266:	48 89 50 08          	mov    %rdx,0x8(%rax)
    526a:	48 8b 95 e0 fe ff ff 	mov    -0x120(%rbp),%rdx
    5271:	48 89 d0             	mov    %rdx,%rax
    5274:	48 c1 e0 03          	shl    $0x3,%rax
    5278:	48 29 d0             	sub    %rdx,%rax
    527b:	48 c1 e0 03          	shl    $0x3,%rax
    527f:	48 89 c2             	mov    %rax,%rdx
    5282:	48 8b 85 00 ff ff ff 	mov    -0x100(%rbp),%rax
    5289:	48 01 c2             	add    %rax,%rdx
    528c:	48 8b 85 c8 fe ff ff 	mov    -0x138(%rbp),%rax
    5293:	48 89 50 10          	mov    %rdx,0x10(%rax)
    5297:	90                   	nop
    5298:	48 8b 45 c8          	mov    -0x38(%rbp),%rax
    529c:	64 48 2b 04 25 28 00 	sub    %fs:0x28,%rax
    52a3:	00 00 
    52a5:	0f 84 2b 01 00 00    	je     53d6 <_ZNSt6vectorI6bipoloSaIS0_EE17_M_realloc_insertIJRiRKNSt7__cxx1112basic_stringIcSt11char_traitsIcESaIcEEER4TipoRfS4_S4_EEEvN9__gnu_cxx17__normal_iteratorIPS0_S2_EEDpOT_+0x5a2>
    52ab:	e9 21 01 00 00       	jmp    53d1 <_ZNSt6vectorI6bipoloSaIS0_EE17_M_realloc_insertIJRiRKNSt7__cxx1112basic_stringIcSt11char_traitsIcESaIcEEER4TipoRfS4_S4_EEEvN9__gnu_cxx17__normal_iteratorIPS0_S2_EEDpOT_+0x59d>
    52b0:	f3 0f 1e fa          	endbr64
    52b4:	49 89 c5             	mov    %rax,%r13
    52b7:	80 bd 8f fe ff ff 00 	cmpb   $0x0,-0x171(%rbp)
    52be:	74 0b                	je     52cb <_ZNSt6vectorI6bipoloSaIS0_EE17_M_realloc_insertIJRiRKNSt7__cxx1112basic_stringIcSt11char_traitsIcESaIcEEER4TipoRfS4_S4_EEEvN9__gnu_cxx17__normal_iteratorIPS0_S2_EEDpOT_+0x497>
    52c0:	48 89 de             	mov    %rbx,%rsi
    52c3:	4c 89 e7             	mov    %r12,%rdi
    52c6:	e8 75 dc ff ff       	call   2f40 <_ZdlPvS_>
    52cb:	4c 89 e8             	mov    %r13,%rax
    52ce:	48 89 c7             	mov    %rax,%rdi
    52d1:	e8 6a cf ff ff       	call   2240 <__cxa_begin_catch@plt>
    52d6:	48 83 bd 08 ff ff ff 	cmpq   $0x0,-0xf8(%rbp)
    52dd:	00 
    52de:	75 50                	jne    5330 <_ZNSt6vectorI6bipoloSaIS0_EE17_M_realloc_insertIJRiRKNSt7__cxx1112basic_stringIcSt11char_traitsIcESaIcEEER4TipoRfS4_S4_EEEvN9__gnu_cxx17__normal_iteratorIPS0_S2_EEDpOT_+0x4fc>
    52e0:	48 8b 95 f8 fe ff ff 	mov    -0x108(%rbp),%rdx
    52e7:	48 89 d0             	mov    %rdx,%rax
    52ea:	48 c1 e0 03          	shl    $0x3,%rax
    52ee:	48 29 d0             	sub    %rdx,%rax
    52f1:	48 c1 e0 03          	shl    $0x3,%rax
    52f5:	48 89 c2             	mov    %rax,%rdx
    52f8:	48 8b 85 00 ff ff ff 	mov    -0x100(%rbp),%rax
    52ff:	48 01 c2             	add    %rax,%rdx
    5302:	48 8b 85 c8 fe ff ff 	mov    -0x138(%rbp),%rax
    5309:	48 89 45 90          	mov    %rax,-0x70(%rbp)
    530d:	48 89 55 98          	mov    %rdx,-0x68(%rbp)
    5311:	48 8b 45 90          	mov    -0x70(%rbp),%rax
    5315:	48 89 45 a0          	mov    %rax,-0x60(%rbp)
    5319:	48 8b 45 98          	mov    -0x68(%rbp),%rax
    531d:	48 89 45 a8          	mov    %rax,-0x58(%rbp)
    5321:	48 8b 45 a8          	mov    -0x58(%rbp),%rax
    5325:	48 89 c7             	mov    %rax,%rdi
    5328:	e8 2f e0 ff ff       	call   335c <_ZN6bipoloD1Ev>
    532d:	90                   	nop
    532e:	eb 3d                	jmp    536d <_ZNSt6vectorI6bipoloSaIS0_EE17_M_realloc_insertIJRiRKNSt7__cxx1112basic_stringIcSt11char_traitsIcESaIcEEER4TipoRfS4_S4_EEEvN9__gnu_cxx17__normal_iteratorIPS0_S2_EEDpOT_+0x539>
    5330:	48 8b 85 c8 fe ff ff 	mov    -0x138(%rbp),%rax
    5337:	48 89 c7             	mov    %rax,%rdi
    533a:	e8 9b fa ff ff       	call   4dda <_ZNSt12_Vector_baseI6bipoloSaIS0_EE19_M_get_Tp_allocatorEv>
    533f:	48 8b 95 00 ff ff ff 	mov    -0x100(%rbp),%rdx
    5346:	48 89 55 b0          	mov    %rdx,-0x50(%rbp)
    534a:	48 8b 95 08 ff ff ff 	mov    -0xf8(%rbp),%rdx
    5351:	48 89 55 b8          	mov    %rdx,-0x48(%rbp)
    5355:	48 89 45 c0          	mov    %rax,-0x40(%rbp)
    5359:	48 8b 55 b8          	mov    -0x48(%rbp),%rdx
    535d:	48 8b 45 b0          	mov    -0x50(%rbp),%rax
    5361:	48 89 d6             	mov    %rdx,%rsi
    5364:	48 89 c7             	mov    %rax,%rdi
    5367:	e8 4c 11 00 00       	call   64b8 <_ZSt8_DestroyIP6bipoloEvT_S2_>
    536c:	90                   	nop
    536d:	48 8b 85 c8 fe ff ff 	mov    -0x138(%rbp),%rax
    5374:	48 8b 95 e0 fe ff ff 	mov    -0x120(%rbp),%rdx
    537b:	48 8b 8d 00 ff ff ff 	mov    -0x100(%rbp),%rcx
    5382:	48 89 ce             	mov    %rcx,%rsi
    5385:	48 89 c7             	mov    %rax,%rdi
    5388:	e8 fb f9 ff ff       	call   4d88 <_ZNSt12_Vector_baseI6bipoloSaIS0_EE13_M_deallocateEPS0_m>
    538d:	48 8b 45 c8          	mov    -0x38(%rbp),%rax
    5391:	64 48 2b 04 25 28 00 	sub    %fs:0x28,%rax
    5398:	00 00 
    539a:	74 05                	je     53a1 <_ZNSt6vectorI6bipoloSaIS0_EE17_M_realloc_insertIJRiRKNSt7__cxx1112basic_stringIcSt11char_traitsIcESaIcEEER4TipoRfS4_S4_EEEvN9__gnu_cxx17__normal_iteratorIPS0_S2_EEDpOT_+0x56d>
    539c:	e8 8f cf ff ff       	call   2330 <__stack_chk_fail@plt>
    53a1:	e8 ca cf ff ff       	call   2370 <__cxa_rethrow@plt>
    53a6:	f3 0f 1e fa          	endbr64
    53aa:	48 89 c3             	mov    %rax,%rbx
    53ad:	e8 ce cf ff ff       	call   2380 <__cxa_end_catch@plt>
    53b2:	48 89 d8             	mov    %rbx,%rax
    53b5:	48 8b 55 c8          	mov    -0x38(%rbp),%rdx
    53b9:	64 48 2b 14 25 28 00 	sub    %fs:0x28,%rdx
    53c0:	00 00 
    53c2:	74 05                	je     53c9 <_ZNSt6vectorI6bipoloSaIS0_EE17_M_realloc_insertIJRiRKNSt7__cxx1112basic_stringIcSt11char_traitsIcESaIcEEER4TipoRfS4_S4_EEEvN9__gnu_cxx17__normal_iteratorIPS0_S2_EEDpOT_+0x595>
    53c4:	e8 67 cf ff ff       	call   2330 <__stack_chk_fail@plt>
    53c9:	48 89 c7             	mov    %rax,%rdi
    53cc:	e8 cf cf ff ff       	call   23a0 <_Unwind_Resume@plt>
    53d1:	e8 5a cf ff ff       	call   2330 <__stack_chk_fail@plt>
    53d6:	48 81 c4 58 01 00 00 	add    $0x158,%rsp
    53dd:	5b                   	pop    %rbx
    53de:	41 5c                	pop    %r12
    53e0:	41 5d                	pop    %r13
    53e2:	41 5e                	pop    %r14
    53e4:	41 5f                	pop    %r15
    53e6:	5d                   	pop    %rbp
    53e7:	c3                   	ret

00000000000053e8 <_ZNSt6vectorI6bipoloSaIS0_EE4backEv>:
    53e8:	f3 0f 1e fa          	endbr64
    53ec:	55                   	push   %rbp
    53ed:	48 89 e5             	mov    %rsp,%rbp
    53f0:	48 83 ec 30          	sub    $0x30,%rsp
    53f4:	48 89 7d d8          	mov    %rdi,-0x28(%rbp)
    53f8:	64 48 8b 04 25 28 00 	mov    %fs:0x28,%rax
    53ff:	00 00 
    5401:	48 89 45 f8          	mov    %rax,-0x8(%rbp)
    5405:	31 c0                	xor    %eax,%eax
    5407:	48 8b 45 d8          	mov    -0x28(%rbp),%rax
    540b:	48 89 c7             	mov    %rax,%rdi
    540e:	e8 e9 ee ff ff       	call   42fc <_ZNSt6vectorI6bipoloSaIS0_EE3endEv>
    5413:	48 89 45 e8          	mov    %rax,-0x18(%rbp)
    5417:	48 8d 45 e8          	lea    -0x18(%rbp),%rax
    541b:	be 01 00 00 00       	mov    $0x1,%esi
    5420:	48 89 c7             	mov    %rax,%rdi
    5423:	e8 92 12 00 00       	call   66ba <_ZNK9__gnu_cxx17__normal_iteratorIP6bipoloSt6vectorIS1_SaIS1_EEEmiEl>
    5428:	48 89 45 f0          	mov    %rax,-0x10(%rbp)
    542c:	48 8d 45 f0          	lea    -0x10(%rbp),%rax
    5430:	48 89 c7             	mov    %rax,%rdi
    5433:	e8 14 ef ff ff       	call   434c <_ZNK9__gnu_cxx17__normal_iteratorIP6bipoloSt6vectorIS1_SaIS1_EEEdeEv>
    5438:	48 8b 55 f8          	mov    -0x8(%rbp),%rdx
    543c:	64 48 2b 14 25 28 00 	sub    %fs:0x28,%rdx
    5443:	00 00 
    5445:	74 05                	je     544c <_ZNSt6vectorI6bipoloSaIS0_EE4backEv+0x64>
    5447:	e8 e4 ce ff ff       	call   2330 <__stack_chk_fail@plt>
    544c:	c9                   	leave
    544d:	c3                   	ret

000000000000544e <_ZSt7forwardIR6bipoloEOT_RNSt16remove_referenceIS2_E4typeE>:
    544e:	f3 0f 1e fa          	endbr64
    5452:	55                   	push   %rbp
    5453:	48 89 e5             	mov    %rsp,%rbp
    5456:	48 89 7d f8          	mov    %rdi,-0x8(%rbp)
    545a:	48 8b 45 f8          	mov    -0x8(%rbp),%rax
    545e:	5d                   	pop    %rbp
    545f:	c3                   	ret

0000000000005460 <_ZNSt6vectorI6bipoloSaIS0_EE17_M_realloc_insertIJRS0_EEEvN9__gnu_cxx17__normal_iteratorIPS0_S2_EEDpOT_>:
    5460:	f3 0f 1e fa          	endbr64
    5464:	55                   	push   %rbp
    5465:	48 89 e5             	mov    %rsp,%rbp
    5468:	41 56                	push   %r14
    546a:	41 55                	push   %r13
    546c:	41 54                	push   %r12
    546e:	53                   	push   %rbx
    546f:	48 81 ec d0 00 00 00 	sub    $0xd0,%rsp
    5476:	48 89 bd 28 ff ff ff 	mov    %rdi,-0xd8(%rbp)
    547d:	48 89 b5 20 ff ff ff 	mov    %rsi,-0xe0(%rbp)
    5484:	48 89 95 18 ff ff ff 	mov    %rdx,-0xe8(%rbp)
    548b:	64 48 8b 04 25 28 00 	mov    %fs:0x28,%rax
    5492:	00 00 
    5494:	48 89 45 d8          	mov    %rax,-0x28(%rbp)
    5498:	31 c0                	xor    %eax,%eax
    549a:	48 8b 85 28 ff ff ff 	mov    -0xd8(%rbp),%rax
    54a1:	48 8d 15 d8 3d 00 00 	lea    0x3dd8(%rip),%rdx        # 9280 <_ZN5Eigen8internalL18defaultL3CacheSizeE+0x218>
    54a8:	be 01 00 00 00       	mov    $0x1,%esi
    54ad:	48 89 c7             	mov    %rax,%rdi
    54b0:	e8 2d 10 00 00       	call   64e2 <_ZNKSt6vectorI6bipoloSaIS0_EE12_M_check_lenEmPKc>
    54b5:	48 89 85 40 ff ff ff 	mov    %rax,-0xc0(%rbp)
    54bc:	48 8b 85 28 ff ff ff 	mov    -0xd8(%rbp),%rax
    54c3:	48 8b 00             	mov    (%rax),%rax
    54c6:	48 89 85 48 ff ff ff 	mov    %rax,-0xb8(%rbp)
    54cd:	48 8b 85 28 ff ff ff 	mov    -0xd8(%rbp),%rax
    54d4:	48 8b 40 08          	mov    0x8(%rax),%rax
    54d8:	48 89 85 50 ff ff ff 	mov    %rax,-0xb0(%rbp)
    54df:	48 8b 85 28 ff ff ff 	mov    -0xd8(%rbp),%rax
    54e6:	48 89 c7             	mov    %rax,%rdi
    54e9:	e8 c2 ed ff ff       	call   42b0 <_ZNSt6vectorI6bipoloSaIS0_EE5beginEv>
    54ee:	48 89 85 38 ff ff ff 	mov    %rax,-0xc8(%rbp)
    54f5:	48 8d 95 38 ff ff ff 	lea    -0xc8(%rbp),%rdx
    54fc:	48 8d 85 20 ff ff ff 	lea    -0xe0(%rbp),%rax
    5503:	48 89 d6             	mov    %rdx,%rsi
    5506:	48 89 c7             	mov    %rax,%rdi
    5509:	e8 d7 10 00 00       	call   65e5 <_ZN9__gnu_cxxmiIP6bipoloSt6vectorIS1_SaIS1_EEEENS_17__normal_iteratorIT_T0_E15difference_typeERKS9_SC_>
    550e:	48 89 85 58 ff ff ff 	mov    %rax,-0xa8(%rbp)
    5515:	48 8b 85 28 ff ff ff 	mov    -0xd8(%rbp),%rax
    551c:	48 8b 95 40 ff ff ff 	mov    -0xc0(%rbp),%rdx
    5523:	48 89 d6             	mov    %rdx,%rsi
    5526:	48 89 c7             	mov    %rax,%rdi
    5529:	e8 08 11 00 00       	call   6636 <_ZNSt12_Vector_baseI6bipoloSaIS0_EE11_M_allocateEm>
    552e:	48 89 85 60 ff ff ff 	mov    %rax,-0xa0(%rbp)
    5535:	48 8b 85 60 ff ff ff 	mov    -0xa0(%rbp),%rax
    553c:	48 89 85 68 ff ff ff 	mov    %rax,-0x98(%rbp)
    5543:	48 8b 85 18 ff ff ff 	mov    -0xe8(%rbp),%rax
    554a:	48 89 c7             	mov    %rax,%rdi
    554d:	e8 fc fe ff ff       	call   544e <_ZSt7forwardIR6bipoloEOT_RNSt16remove_referenceIS2_E4typeE>
    5552:	48 89 c1             	mov    %rax,%rcx
    5555:	48 8b 95 58 ff ff ff 	mov    -0xa8(%rbp),%rdx
    555c:	48 89 d0             	mov    %rdx,%rax
    555f:	48 c1 e0 03          	shl    $0x3,%rax
    5563:	48 29 d0             	sub    %rdx,%rax
    5566:	48 c1 e0 03          	shl    $0x3,%rax
    556a:	48 89 c2             	mov    %rax,%rdx
    556d:	48 8b 85 60 ff ff ff 	mov    -0xa0(%rbp),%rax
    5574:	48 01 c2             	add    %rax,%rdx
    5577:	48 8b 85 28 ff ff ff 	mov    -0xd8(%rbp),%rax
    557e:	48 89 85 70 ff ff ff 	mov    %rax,-0x90(%rbp)
    5585:	48 89 95 78 ff ff ff 	mov    %rdx,-0x88(%rbp)
    558c:	48 89 4d 80          	mov    %rcx,-0x80(%rbp)
    5590:	48 8b 45 80          	mov    -0x80(%rbp),%rax
    5594:	48 89 c7             	mov    %rax,%rdi
    5597:	e8 b2 fe ff ff       	call   544e <_ZSt7forwardIR6bipoloEOT_RNSt16remove_referenceIS2_E4typeE>
    559c:	48 8b 95 70 ff ff ff 	mov    -0x90(%rbp),%rdx
    55a3:	48 89 55 88          	mov    %rdx,-0x78(%rbp)
    55a7:	48 8b 95 78 ff ff ff 	mov    -0x88(%rbp),%rdx
    55ae:	48 89 55 90          	mov    %rdx,-0x70(%rbp)
    55b2:	48 89 45 98          	mov    %rax,-0x68(%rbp)
    55b6:	48 8b 5d 90          	mov    -0x70(%rbp),%rbx
    55ba:	48 89 de             	mov    %rbx,%rsi
    55bd:	bf 38 00 00 00       	mov    $0x38,%edi
    55c2:	e8 63 d9 ff ff       	call   2f2a <_ZnwmPv>
    55c7:	49 89 c4             	mov    %rax,%r12
    55ca:	41 be 01 00 00 00    	mov    $0x1,%r14d
    55d0:	48 8b 45 98          	mov    -0x68(%rbp),%rax
    55d4:	48 89 c7             	mov    %rax,%rdi
    55d7:	e8 72 fe ff ff       	call   544e <_ZSt7forwardIR6bipoloEOT_RNSt16remove_referenceIS2_E4typeE>
    55dc:	48 89 c6             	mov    %rax,%rsi
    55df:	4c 89 e7             	mov    %r12,%rdi
    55e2:	e8 fb dc ff ff       	call   32e2 <_ZN6bipoloC1ERKS_>
    55e7:	90                   	nop
    55e8:	90                   	nop
    55e9:	48 c7 85 68 ff ff ff 	movq   $0x0,-0x98(%rbp)
    55f0:	00 00 00 00 
    55f4:	48 8b 85 28 ff ff ff 	mov    -0xd8(%rbp),%rax
    55fb:	48 89 c7             	mov    %rax,%rdi
    55fe:	e8 d7 f7 ff ff       	call   4dda <_ZNSt12_Vector_baseI6bipoloSaIS0_EE19_M_get_Tp_allocatorEv>
    5603:	48 89 c3             	mov    %rax,%rbx
    5606:	48 8d 85 20 ff ff ff 	lea    -0xe0(%rbp),%rax
    560d:	48 89 c7             	mov    %rax,%rdi
    5610:	e8 7d 02 00 00       	call   5892 <_ZNK9__gnu_cxx17__normal_iteratorIP6bipoloSt6vectorIS1_SaIS1_EEE4baseEv>
    5615:	48 8b 30             	mov    (%rax),%rsi
    5618:	48 8b 95 60 ff ff ff 	mov    -0xa0(%rbp),%rdx
    561f:	48 8b 85 48 ff ff ff 	mov    -0xb8(%rbp),%rax
    5626:	48 89 d9             	mov    %rbx,%rcx
    5629:	48 89 c7             	mov    %rax,%rdi
    562c:	e8 52 10 00 00       	call   6683 <_ZNSt6vectorI6bipoloSaIS0_EE11_S_relocateEPS0_S3_S3_RS1_>
    5631:	48 89 85 68 ff ff ff 	mov    %rax,-0x98(%rbp)
    5638:	48 83 85 68 ff ff ff 	addq   $0x38,-0x98(%rbp)
    563f:	38 
    5640:	48 8b 85 28 ff ff ff 	mov    -0xd8(%rbp),%rax
    5647:	48 89 c7             	mov    %rax,%rdi
    564a:	e8 8b f7 ff ff       	call   4dda <_ZNSt12_Vector_baseI6bipoloSaIS0_EE19_M_get_Tp_allocatorEv>
    564f:	48 89 c3             	mov    %rax,%rbx
    5652:	48 8d 85 20 ff ff ff 	lea    -0xe0(%rbp),%rax
    5659:	48 89 c7             	mov    %rax,%rdi
    565c:	e8 31 02 00 00       	call   5892 <_ZNK9__gnu_cxx17__normal_iteratorIP6bipoloSt6vectorIS1_SaIS1_EEE4baseEv>
    5661:	48 8b 00             	mov    (%rax),%rax
    5664:	48 8b 95 68 ff ff ff 	mov    -0x98(%rbp),%rdx
    566b:	48 8b b5 50 ff ff ff 	mov    -0xb0(%rbp),%rsi
    5672:	48 89 d9             	mov    %rbx,%rcx
    5675:	48 89 c7             	mov    %rax,%rdi
    5678:	e8 06 10 00 00       	call   6683 <_ZNSt6vectorI6bipoloSaIS0_EE11_S_relocateEPS0_S3_S3_RS1_>
    567d:	48 89 85 68 ff ff ff 	mov    %rax,-0x98(%rbp)
    5684:	48 8b 85 28 ff ff ff 	mov    -0xd8(%rbp),%rax
    568b:	48 8b 95 28 ff ff ff 	mov    -0xd8(%rbp),%rdx
    5692:	48 8b 52 10          	mov    0x10(%rdx),%rdx
    5696:	48 2b 95 48 ff ff ff 	sub    -0xb8(%rbp),%rdx
    569d:	48 89 d1             	mov    %rdx,%rcx
    56a0:	48 c1 f9 03          	sar    $0x3,%rcx
    56a4:	48 ba b7 6d db b6 6d 	movabs $0x6db6db6db6db6db7,%rdx
    56ab:	db b6 6d 
    56ae:	48 0f af d1          	imul   %rcx,%rdx
    56b2:	48 8b 8d 48 ff ff ff 	mov    -0xb8(%rbp),%rcx
    56b9:	48 89 ce             	mov    %rcx,%rsi
    56bc:	48 89 c7             	mov    %rax,%rdi
    56bf:	e8 c4 f6 ff ff       	call   4d88 <_ZNSt12_Vector_baseI6bipoloSaIS0_EE13_M_deallocateEPS0_m>
    56c4:	48 8b 85 28 ff ff ff 	mov    -0xd8(%rbp),%rax
    56cb:	48 8b 95 60 ff ff ff 	mov    -0xa0(%rbp),%rdx
    56d2:	48 89 10             	mov    %rdx,(%rax)
    56d5:	48 8b 85 28 ff ff ff 	mov    -0xd8(%rbp),%rax
    56dc:	48 8b 95 68 ff ff ff 	mov    -0x98(%rbp),%rdx
    56e3:	48 89 50 08          	mov    %rdx,0x8(%rax)
    56e7:	48 8b 95 40 ff ff ff 	mov    -0xc0(%rbp),%rdx
    56ee:	48 89 d0             	mov    %rdx,%rax
    56f1:	48 c1 e0 03          	shl    $0x3,%rax
    56f5:	48 29 d0             	sub    %rdx,%rax
    56f8:	48 c1 e0 03          	shl    $0x3,%rax
    56fc:	48 89 c2             	mov    %rax,%rdx
    56ff:	48 8b 85 60 ff ff ff 	mov    -0xa0(%rbp),%rax
    5706:	48 01 c2             	add    %rax,%rdx
    5709:	48 8b 85 28 ff ff ff 	mov    -0xd8(%rbp),%rax
    5710:	48 89 50 10          	mov    %rdx,0x10(%rax)
    5714:	90                   	nop
    5715:	48 8b 45 d8          	mov    -0x28(%rbp),%rax
    5719:	64 48 2b 04 25 28 00 	sub    %fs:0x28,%rax
    5720:	00 00 
    5722:	0f 84 27 01 00 00    	je     584f <_ZNSt6vectorI6bipoloSaIS0_EE17_M_realloc_insertIJRS0_EEEvN9__gnu_cxx17__normal_iteratorIPS0_S2_EEDpOT_+0x3ef>
    5728:	e9 1d 01 00 00       	jmp    584a <_ZNSt6vectorI6bipoloSaIS0_EE17_M_realloc_insertIJRS0_EEEvN9__gnu_cxx17__normal_iteratorIPS0_S2_EEDpOT_+0x3ea>
    572d:	f3 0f 1e fa          	endbr64
    5731:	49 89 c5             	mov    %rax,%r13
    5734:	45 84 f6             	test   %r14b,%r14b
    5737:	74 0b                	je     5744 <_ZNSt6vectorI6bipoloSaIS0_EE17_M_realloc_insertIJRS0_EEEvN9__gnu_cxx17__normal_iteratorIPS0_S2_EEDpOT_+0x2e4>
    5739:	48 89 de             	mov    %rbx,%rsi
    573c:	4c 89 e7             	mov    %r12,%rdi
    573f:	e8 fc d7 ff ff       	call   2f40 <_ZdlPvS_>
    5744:	4c 89 e8             	mov    %r13,%rax
    5747:	48 89 c7             	mov    %rax,%rdi
    574a:	e8 f1 ca ff ff       	call   2240 <__cxa_begin_catch@plt>
    574f:	48 83 bd 68 ff ff ff 	cmpq   $0x0,-0x98(%rbp)
    5756:	00 
    5757:	75 50                	jne    57a9 <_ZNSt6vectorI6bipoloSaIS0_EE17_M_realloc_insertIJRS0_EEEvN9__gnu_cxx17__normal_iteratorIPS0_S2_EEDpOT_+0x349>
    5759:	48 8b 95 58 ff ff ff 	mov    -0xa8(%rbp),%rdx
    5760:	48 89 d0             	mov    %rdx,%rax
    5763:	48 c1 e0 03          	shl    $0x3,%rax
    5767:	48 29 d0             	sub    %rdx,%rax
    576a:	48 c1 e0 03          	shl    $0x3,%rax
    576e:	48 89 c2             	mov    %rax,%rdx
    5771:	48 8b 85 60 ff ff ff 	mov    -0xa0(%rbp),%rax
    5778:	48 01 c2             	add    %rax,%rdx
    577b:	48 8b 85 28 ff ff ff 	mov    -0xd8(%rbp),%rax
    5782:	48 89 45 a0          	mov    %rax,-0x60(%rbp)
    5786:	48 89 55 a8          	mov    %rdx,-0x58(%rbp)
    578a:	48 8b 45 a0          	mov    -0x60(%rbp),%rax
    578e:	48 89 45 b0          	mov    %rax,-0x50(%rbp)
    5792:	48 8b 45 a8          	mov    -0x58(%rbp),%rax
    5796:	48 89 45 b8          	mov    %rax,-0x48(%rbp)
    579a:	48 8b 45 b8          	mov    -0x48(%rbp),%rax
    579e:	48 89 c7             	mov    %rax,%rdi
    57a1:	e8 b6 db ff ff       	call   335c <_ZN6bipoloD1Ev>
    57a6:	90                   	nop
    57a7:	eb 3d                	jmp    57e6 <_ZNSt6vectorI6bipoloSaIS0_EE17_M_realloc_insertIJRS0_EEEvN9__gnu_cxx17__normal_iteratorIPS0_S2_EEDpOT_+0x386>
    57a9:	48 8b 85 28 ff ff ff 	mov    -0xd8(%rbp),%rax
    57b0:	48 89 c7             	mov    %rax,%rdi
    57b3:	e8 22 f6 ff ff       	call   4dda <_ZNSt12_Vector_baseI6bipoloSaIS0_EE19_M_get_Tp_allocatorEv>
    57b8:	48 8b 95 60 ff ff ff 	mov    -0xa0(%rbp),%rdx
    57bf:	48 89 55 c0          	mov    %rdx,-0x40(%rbp)
    57c3:	48 8b 95 68 ff ff ff 	mov    -0x98(%rbp),%rdx
    57ca:	48 89 55 c8          	mov    %rdx,-0x38(%rbp)
    57ce:	48 89 45 d0          	mov    %rax,-0x30(%rbp)
    57d2:	48 8b 55 c8          	mov    -0x38(%rbp),%rdx
    57d6:	48 8b 45 c0          	mov    -0x40(%rbp),%rax
    57da:	48 89 d6             	mov    %rdx,%rsi
    57dd:	48 89 c7             	mov    %rax,%rdi
    57e0:	e8 d3 0c 00 00       	call   64b8 <_ZSt8_DestroyIP6bipoloEvT_S2_>
    57e5:	90                   	nop
    57e6:	48 8b 85 28 ff ff ff 	mov    -0xd8(%rbp),%rax
    57ed:	48 8b 95 40 ff ff ff 	mov    -0xc0(%rbp),%rdx
    57f4:	48 8b 8d 60 ff ff ff 	mov    -0xa0(%rbp),%rcx
    57fb:	48 89 ce             	mov    %rcx,%rsi
    57fe:	48 89 c7             	mov    %rax,%rdi
    5801:	e8 82 f5 ff ff       	call   4d88 <_ZNSt12_Vector_baseI6bipoloSaIS0_EE13_M_deallocateEPS0_m>
    5806:	48 8b 45 d8          	mov    -0x28(%rbp),%rax
    580a:	64 48 2b 04 25 28 00 	sub    %fs:0x28,%rax
    5811:	00 00 
    5813:	74 05                	je     581a <_ZNSt6vectorI6bipoloSaIS0_EE17_M_realloc_insertIJRS0_EEEvN9__gnu_cxx17__normal_iteratorIPS0_S2_EEDpOT_+0x3ba>
    5815:	e8 16 cb ff ff       	call   2330 <__stack_chk_fail@plt>
    581a:	e8 51 cb ff ff       	call   2370 <__cxa_rethrow@plt>
    581f:	f3 0f 1e fa          	endbr64
    5823:	48 89 c3             	mov    %rax,%rbx
    5826:	e8 55 cb ff ff       	call   2380 <__cxa_end_catch@plt>
    582b:	48 89 d8             	mov    %rbx,%rax
    582e:	48 8b 55 d8          	mov    -0x28(%rbp),%rdx
    5832:	64 48 2b 14 25 28 00 	sub    %fs:0x28,%rdx
    5839:	00 00 
    583b:	74 05                	je     5842 <_ZNSt6vectorI6bipoloSaIS0_EE17_M_realloc_insertIJRS0_EEEvN9__gnu_cxx17__normal_iteratorIPS0_S2_EEDpOT_+0x3e2>
    583d:	e8 ee ca ff ff       	call   2330 <__stack_chk_fail@plt>
    5842:	48 89 c7             	mov    %rax,%rdi
    5845:	e8 56 cb ff ff       	call   23a0 <_Unwind_Resume@plt>
    584a:	e8 e1 ca ff ff       	call   2330 <__stack_chk_fail@plt>
    584f:	48 81 c4 d0 00 00 00 	add    $0xd0,%rsp
    5856:	5b                   	pop    %rbx
    5857:	41 5c                	pop    %r12
    5859:	41 5d                	pop    %r13
    585b:	41 5e                	pop    %r14
    585d:	5d                   	pop    %rbp
    585e:	c3                   	ret
    585f:	90                   	nop

0000000000005860 <_ZNSt20_Rb_tree_key_compareISt4lessIiEEC1Ev>:
    5860:	f3 0f 1e fa          	endbr64
    5864:	55                   	push   %rbp
    5865:	48 89 e5             	mov    %rsp,%rbp
    5868:	48 89 7d f8          	mov    %rdi,-0x8(%rbp)
    586c:	90                   	nop
    586d:	5d                   	pop    %rbp
    586e:	c3                   	ret
    586f:	90                   	nop

0000000000005870 <_ZN9__gnu_cxx17__normal_iteratorIP6bipoloSt6vectorIS1_SaIS1_EEEC1ERKS2_>:
    5870:	f3 0f 1e fa          	endbr64
    5874:	55                   	push   %rbp
    5875:	48 89 e5             	mov    %rsp,%rbp
    5878:	48 89 7d f8          	mov    %rdi,-0x8(%rbp)
    587c:	48 89 75 f0          	mov    %rsi,-0x10(%rbp)
    5880:	48 8b 45 f0          	mov    -0x10(%rbp),%rax
    5884:	48 8b 10             	mov    (%rax),%rdx
    5887:	48 8b 45 f8          	mov    -0x8(%rbp),%rax
    588b:	48 89 10             	mov    %rdx,(%rax)
    588e:	90                   	nop
    588f:	5d                   	pop    %rbp
    5890:	c3                   	ret
    5891:	90                   	nop

0000000000005892 <_ZNK9__gnu_cxx17__normal_iteratorIP6bipoloSt6vectorIS1_SaIS1_EEE4baseEv>:
    5892:	f3 0f 1e fa          	endbr64
    5896:	55                   	push   %rbp
    5897:	48 89 e5             	mov    %rsp,%rbp
    589a:	48 89 7d f8          	mov    %rdi,-0x8(%rbp)
    589e:	48 8b 45 f8          	mov    -0x8(%rbp),%rax
    58a2:	5d                   	pop    %rbp
    58a3:	c3                   	ret

00000000000058a4 <_ZNKSt4lessIiEclERKiS2_>:
    58a4:	f3 0f 1e fa          	endbr64
    58a8:	55                   	push   %rbp
    58a9:	48 89 e5             	mov    %rsp,%rbp
    58ac:	48 89 7d f8          	mov    %rdi,-0x8(%rbp)
    58b0:	48 89 75 f0          	mov    %rsi,-0x10(%rbp)
    58b4:	48 89 55 e8          	mov    %rdx,-0x18(%rbp)
    58b8:	48 8b 45 f0          	mov    -0x10(%rbp),%rax
    58bc:	8b 10                	mov    (%rax),%edx
    58be:	48 8b 45 e8          	mov    -0x18(%rbp),%rax
    58c2:	8b 00                	mov    (%rax),%eax
    58c4:	39 c2                	cmp    %eax,%edx
    58c6:	0f 9c c0             	setl   %al
    58c9:	5d                   	pop    %rbp
    58ca:	c3                   	ret

00000000000058cb <_ZSt4moveIRSt5tupleIJP14ExpressionNodeSt14default_deleteIS1_EEEEONSt16remove_referenceIT_E4typeEOS8_>:
    58cb:	f3 0f 1e fa          	endbr64
    58cf:	55                   	push   %rbp
    58d0:	48 89 e5             	mov    %rsp,%rbp
    58d3:	48 89 7d f8          	mov    %rdi,-0x8(%rbp)
    58d7:	48 8b 45 f8          	mov    -0x8(%rbp),%rax
    58db:	5d                   	pop    %rbp
    58dc:	c3                   	ret
    58dd:	90                   	nop

00000000000058de <_ZNSt11_Tuple_implILm1EJSt14default_deleteI14ExpressionNodeEEEC1EOS3_>:
    58de:	f3 0f 1e fa          	endbr64
    58e2:	55                   	push   %rbp
    58e3:	48 89 e5             	mov    %rsp,%rbp
    58e6:	48 89 7d f8          	mov    %rdi,-0x8(%rbp)
    58ea:	48 89 75 f0          	mov    %rsi,-0x10(%rbp)
    58ee:	90                   	nop
    58ef:	5d                   	pop    %rbp
    58f0:	c3                   	ret
    58f1:	90                   	nop

00000000000058f2 <_ZNSt15__uniq_ptr_implI14ExpressionNodeSt14default_deleteIS0_EE6_M_ptrEv>:
    58f2:	f3 0f 1e fa          	endbr64
    58f6:	55                   	push   %rbp
    58f7:	48 89 e5             	mov    %rsp,%rbp
    58fa:	48 83 ec 10          	sub    $0x10,%rsp
    58fe:	48 89 7d f8          	mov    %rdi,-0x8(%rbp)
    5902:	48 8b 45 f8          	mov    -0x8(%rbp),%rax
    5906:	48 89 c7             	mov    %rax,%rdi
    5909:	e8 1f 0e 00 00       	call   672d <_ZSt3getILm0EJP14ExpressionNodeSt14default_deleteIS0_EEERNSt13tuple_elementIXT_ESt5tupleIJDpT0_EEE4typeERS8_>
    590e:	c9                   	leave
    590f:	c3                   	ret

0000000000005910 <_ZNSt10unique_ptrI14ExpressionNodeSt14default_deleteIS0_EE11get_deleterEv>:
    5910:	f3 0f 1e fa          	endbr64
    5914:	55                   	push   %rbp
    5915:	48 89 e5             	mov    %rsp,%rbp
    5918:	48 83 ec 10          	sub    $0x10,%rsp
    591c:	48 89 7d f8          	mov    %rdi,-0x8(%rbp)
    5920:	48 8b 45 f8          	mov    -0x8(%rbp),%rax
    5924:	48 89 c7             	mov    %rax,%rdi
    5927:	e8 d8 06 00 00       	call   6004 <_ZNSt15__uniq_ptr_implI14ExpressionNodeSt14default_deleteIS0_EE10_M_deleterEv>
    592c:	c9                   	leave
    592d:	c3                   	ret

000000000000592e <_ZSt4moveIRP14ExpressionNodeEONSt16remove_referenceIT_E4typeEOS4_>:
    592e:	f3 0f 1e fa          	endbr64
    5932:	55                   	push   %rbp
    5933:	48 89 e5             	mov    %rsp,%rbp
    5936:	48 89 7d f8          	mov    %rdi,-0x8(%rbp)
    593a:	48 8b 45 f8          	mov    -0x8(%rbp),%rax
    593e:	5d                   	pop    %rbp
    593f:	c3                   	ret

0000000000005940 <_ZNKSt14default_deleteI14ExpressionNodeEclEPS0_>:
    5940:	f3 0f 1e fa          	endbr64
    5944:	55                   	push   %rbp
    5945:	48 89 e5             	mov    %rsp,%rbp
    5948:	48 83 ec 10          	sub    $0x10,%rsp
    594c:	48 89 7d f8          	mov    %rdi,-0x8(%rbp)
    5950:	48 89 75 f0          	mov    %rsi,-0x10(%rbp)
    5954:	48 8b 45 f0          	mov    -0x10(%rbp),%rax
    5958:	48 85 c0             	test   %rax,%rax
    595b:	74 0f                	je     596c <_ZNKSt14default_deleteI14ExpressionNodeEclEPS0_+0x2c>
    595d:	48 8b 10             	mov    (%rax),%rdx
    5960:	48 83 c2 10          	add    $0x10,%rdx
    5964:	48 8b 12             	mov    (%rdx),%rdx
    5967:	48 89 c7             	mov    %rax,%rdi
    596a:	ff d2                	call   *%rdx
    596c:	90                   	nop
    596d:	c9                   	leave
    596e:	c3                   	ret
    596f:	90                   	nop

0000000000005970 <_ZNKSt10unique_ptrI14ExpressionNodeSt14default_deleteIS0_EE3getEv>:
    5970:	f3 0f 1e fa          	endbr64
    5974:	55                   	push   %rbp
    5975:	48 89 e5             	mov    %rsp,%rbp
    5978:	48 83 ec 10          	sub    $0x10,%rsp
    597c:	48 89 7d f8          	mov    %rdi,-0x8(%rbp)
    5980:	48 8b 45 f8          	mov    -0x8(%rbp),%rax
    5984:	48 89 c7             	mov    %rax,%rdi
    5987:	e8 c0 0d 00 00       	call   674c <_ZNKSt15__uniq_ptr_implI14ExpressionNodeSt14default_deleteIS0_EE6_M_ptrEv>
    598c:	c9                   	leave
    598d:	c3                   	ret

000000000000598e <_ZNSt20_Rb_tree_key_compareISt4lessI6bipoloEEC1Ev>:
    598e:	f3 0f 1e fa          	endbr64
    5992:	55                   	push   %rbp
    5993:	48 89 e5             	mov    %rsp,%rbp
    5996:	48 89 7d f8          	mov    %rdi,-0x8(%rbp)
    599a:	90                   	nop
    599b:	5d                   	pop    %rbp
    599c:	c3                   	ret
    599d:	90                   	nop

000000000000599e <_ZNSt15__new_allocatorISt13_Rb_tree_nodeI6bipoloEED1Ev>:
    599e:	f3 0f 1e fa          	endbr64
    59a2:	55                   	push   %rbp
    59a3:	48 89 e5             	mov    %rsp,%rbp
    59a6:	48 89 7d f8          	mov    %rdi,-0x8(%rbp)
    59aa:	90                   	nop
    59ab:	5d                   	pop    %rbp
    59ac:	c3                   	ret
    59ad:	90                   	nop

00000000000059ae <_ZNSt8_Rb_treeI6bipoloS0_St9_IdentityIS0_ESt4lessIS0_ESaIS0_EE8_M_eraseEPSt13_Rb_tree_nodeIS0_E>:
    59ae:	f3 0f 1e fa          	endbr64
    59b2:	55                   	push   %rbp
    59b3:	48 89 e5             	mov    %rsp,%rbp
    59b6:	48 83 ec 20          	sub    $0x20,%rsp
    59ba:	48 89 7d e8          	mov    %rdi,-0x18(%rbp)
    59be:	48 89 75 e0          	mov    %rsi,-0x20(%rbp)
    59c2:	eb 49                	jmp    5a0d <_ZNSt8_Rb_treeI6bipoloS0_St9_IdentityIS0_ESt4lessIS0_ESaIS0_EE8_M_eraseEPSt13_Rb_tree_nodeIS0_E+0x5f>
    59c4:	48 8b 45 e0          	mov    -0x20(%rbp),%rax
    59c8:	48 89 c7             	mov    %rax,%rdi
    59cb:	e8 9d 0d 00 00       	call   676d <_ZNSt8_Rb_treeI6bipoloS0_St9_IdentityIS0_ESt4lessIS0_ESaIS0_EE8_S_rightEPSt18_Rb_tree_node_base>
    59d0:	48 89 c2             	mov    %rax,%rdx
    59d3:	48 8b 45 e8          	mov    -0x18(%rbp),%rax
    59d7:	48 89 d6             	mov    %rdx,%rsi
    59da:	48 89 c7             	mov    %rax,%rdi
    59dd:	e8 cc ff ff ff       	call   59ae <_ZNSt8_Rb_treeI6bipoloS0_St9_IdentityIS0_ESt4lessIS0_ESaIS0_EE8_M_eraseEPSt13_Rb_tree_nodeIS0_E>
    59e2:	48 8b 45 e0          	mov    -0x20(%rbp),%rax
    59e6:	48 89 c7             	mov    %rax,%rdi
    59e9:	e8 95 0d 00 00       	call   6783 <_ZNSt8_Rb_treeI6bipoloS0_St9_IdentityIS0_ESt4lessIS0_ESaIS0_EE7_S_leftEPSt18_Rb_tree_node_base>
    59ee:	48 89 45 f8          	mov    %rax,-0x8(%rbp)
    59f2:	48 8b 55 e0          	mov    -0x20(%rbp),%rdx
    59f6:	48 8b 45 e8          	mov    -0x18(%rbp),%rax
    59fa:	48 89 d6             	mov    %rdx,%rsi
    59fd:	48 89 c7             	mov    %rax,%rdi
    5a00:	e8 95 0d 00 00       	call   679a <_ZNSt8_Rb_treeI6bipoloS0_St9_IdentityIS0_ESt4lessIS0_ESaIS0_EE12_M_drop_nodeEPSt13_Rb_tree_nodeIS0_E>
    5a05:	48 8b 45 f8          	mov    -0x8(%rbp),%rax
    5a09:	48 89 45 e0          	mov    %rax,-0x20(%rbp)
    5a0d:	48 83 7d e0 00       	cmpq   $0x0,-0x20(%rbp)
    5a12:	75 b0                	jne    59c4 <_ZNSt8_Rb_treeI6bipoloS0_St9_IdentityIS0_ESt4lessIS0_ESaIS0_EE8_M_eraseEPSt13_Rb_tree_nodeIS0_E+0x16>
    5a14:	90                   	nop
    5a15:	90                   	nop
    5a16:	c9                   	leave
    5a17:	c3                   	ret

0000000000005a18 <_ZNSt8_Rb_treeI6bipoloS0_St9_IdentityIS0_ESt4lessIS0_ESaIS0_EE8_M_beginEv>:
    5a18:	f3 0f 1e fa          	endbr64
    5a1c:	55                   	push   %rbp
    5a1d:	48 89 e5             	mov    %rsp,%rbp
    5a20:	48 83 ec 10          	sub    $0x10,%rsp
    5a24:	48 89 7d f8          	mov    %rdi,-0x8(%rbp)
    5a28:	48 8b 45 f8          	mov    -0x8(%rbp),%rax
    5a2c:	48 89 c7             	mov    %rax,%rdi
    5a2f:	e8 a4 0d 00 00       	call   67d8 <_ZNKSt8_Rb_treeI6bipoloS0_St9_IdentityIS0_ESt4lessIS0_ESaIS0_EE9_M_mbeginEv>
    5a34:	c9                   	leave
    5a35:	c3                   	ret

0000000000005a36 <_ZNSt15__new_allocatorISt13_Rb_tree_nodeIiEED1Ev>:
    5a36:	f3 0f 1e fa          	endbr64
    5a3a:	55                   	push   %rbp
    5a3b:	48 89 e5             	mov    %rsp,%rbp
    5a3e:	48 89 7d f8          	mov    %rdi,-0x8(%rbp)
    5a42:	90                   	nop
    5a43:	5d                   	pop    %rbp
    5a44:	c3                   	ret
    5a45:	90                   	nop

0000000000005a46 <_ZNSt8_Rb_treeIiiSt9_IdentityIiESt4lessIiESaIiEE8_M_eraseEPSt13_Rb_tree_nodeIiE>:
    5a46:	f3 0f 1e fa          	endbr64
    5a4a:	55                   	push   %rbp
    5a4b:	48 89 e5             	mov    %rsp,%rbp
    5a4e:	48 83 ec 20          	sub    $0x20,%rsp
    5a52:	48 89 7d e8          	mov    %rdi,-0x18(%rbp)
    5a56:	48 89 75 e0          	mov    %rsi,-0x20(%rbp)
    5a5a:	eb 49                	jmp    5aa5 <_ZNSt8_Rb_treeIiiSt9_IdentityIiESt4lessIiESaIiEE8_M_eraseEPSt13_Rb_tree_nodeIiE+0x5f>
    5a5c:	48 8b 45 e0          	mov    -0x20(%rbp),%rax
    5a60:	48 89 c7             	mov    %rax,%rdi
    5a63:	e8 86 0d 00 00       	call   67ee <_ZNSt8_Rb_treeIiiSt9_IdentityIiESt4lessIiESaIiEE8_S_rightEPSt18_Rb_tree_node_base>
    5a68:	48 89 c2             	mov    %rax,%rdx
    5a6b:	48 8b 45 e8          	mov    -0x18(%rbp),%rax
    5a6f:	48 89 d6             	mov    %rdx,%rsi
    5a72:	48 89 c7             	mov    %rax,%rdi
    5a75:	e8 cc ff ff ff       	call   5a46 <_ZNSt8_Rb_treeIiiSt9_IdentityIiESt4lessIiESaIiEE8_M_eraseEPSt13_Rb_tree_nodeIiE>
    5a7a:	48 8b 45 e0          	mov    -0x20(%rbp),%rax
    5a7e:	48 89 c7             	mov    %rax,%rdi
    5a81:	e8 7e 0d 00 00       	call   6804 <_ZNSt8_Rb_treeIiiSt9_IdentityIiESt4lessIiESaIiEE7_S_leftEPSt18_Rb_tree_node_base>
    5a86:	48 89 45 f8          	mov    %rax,-0x8(%rbp)
    5a8a:	48 8b 55 e0          	mov    -0x20(%rbp),%rdx
    5a8e:	48 8b 45 e8          	mov    -0x18(%rbp),%rax
    5a92:	48 89 d6             	mov    %rdx,%rsi
    5a95:	48 89 c7             	mov    %rax,%rdi
    5a98:	e8 7d 0d 00 00       	call   681a <_ZNSt8_Rb_treeIiiSt9_IdentityIiESt4lessIiESaIiEE12_M_drop_nodeEPSt13_Rb_tree_nodeIiE>
    5a9d:	48 8b 45 f8          	mov    -0x8(%rbp),%rax
    5aa1:	48 89 45 e0          	mov    %rax,-0x20(%rbp)
    5aa5:	48 83 7d e0 00       	cmpq   $0x0,-0x20(%rbp)
    5aaa:	75 b0                	jne    5a5c <_ZNSt8_Rb_treeIiiSt9_IdentityIiESt4lessIiESaIiEE8_M_eraseEPSt13_Rb_tree_nodeIiE+0x16>
    5aac:	90                   	nop
    5aad:	90                   	nop
    5aae:	c9                   	leave
    5aaf:	c3                   	ret

0000000000005ab0 <_ZNSt8_Rb_treeIiiSt9_IdentityIiESt4lessIiESaIiEE8_M_beginEv>:
    5ab0:	f3 0f 1e fa          	endbr64
    5ab4:	55                   	push   %rbp
    5ab5:	48 89 e5             	mov    %rsp,%rbp
    5ab8:	48 83 ec 10          	sub    $0x10,%rsp
    5abc:	48 89 7d f8          	mov    %rdi,-0x8(%rbp)
    5ac0:	48 8b 45 f8          	mov    -0x8(%rbp),%rax
    5ac4:	48 89 c7             	mov    %rax,%rdi
    5ac7:	e8 8c 0d 00 00       	call   6858 <_ZNKSt8_Rb_treeIiiSt9_IdentityIiESt4lessIiESaIiEE9_M_mbeginEv>
    5acc:	c9                   	leave
    5acd:	c3                   	ret

0000000000005ace <_ZNSt8_Rb_treeIiiSt9_IdentityIiESt4lessIiESaIiEE16_M_insert_uniqueIRKiEESt4pairISt17_Rb_tree_iteratorIiEbEOT_>:
    5ace:	f3 0f 1e fa          	endbr64
    5ad2:	55                   	push   %rbp
    5ad3:	48 89 e5             	mov    %rsp,%rbp
    5ad6:	48 83 ec 60          	sub    $0x60,%rsp
    5ada:	48 89 7d a8          	mov    %rdi,-0x58(%rbp)
    5ade:	48 89 75 a0          	mov    %rsi,-0x60(%rbp)
    5ae2:	64 48 8b 04 25 28 00 	mov    %fs:0x28,%rax
    5ae9:	00 00 
    5aeb:	48 89 45 f8          	mov    %rax,-0x8(%rbp)
    5aef:	31 c0                	xor    %eax,%eax
    5af1:	48 8b 55 a0          	mov    -0x60(%rbp),%rdx
    5af5:	48 8d 45 e0          	lea    -0x20(%rbp),%rax
    5af9:	48 89 d6             	mov    %rdx,%rsi
    5afc:	48 89 c7             	mov    %rax,%rdi
    5aff:	e8 06 0f 00 00       	call   6a0a <_ZNKSt9_IdentityIiEclERKi>
    5b04:	48 89 c2             	mov    %rax,%rdx
    5b07:	48 8b 45 a8          	mov    -0x58(%rbp),%rax
    5b0b:	48 89 d6             	mov    %rdx,%rsi
    5b0e:	48 89 c7             	mov    %rax,%rdi
    5b11:	e8 58 0d 00 00       	call   686e <_ZNSt8_Rb_treeIiiSt9_IdentityIiESt4lessIiESaIiEE24_M_get_insert_unique_posERKi>
    5b16:	48 89 45 d0          	mov    %rax,-0x30(%rbp)
    5b1a:	48 89 55 d8          	mov    %rdx,-0x28(%rbp)
    5b1e:	48 8b 45 d8          	mov    -0x28(%rbp),%rax
    5b22:	48 85 c0             	test   %rax,%rax
    5b25:	74 66                	je     5b8d <_ZNSt8_Rb_treeIiiSt9_IdentityIiESt4lessIiESaIiEE16_M_insert_uniqueIRKiEESt4pairISt17_Rb_tree_iteratorIiEbEOT_+0xbf>
    5b27:	48 8b 55 a8          	mov    -0x58(%rbp),%rdx
    5b2b:	48 8d 45 c0          	lea    -0x40(%rbp),%rax
    5b2f:	48 89 d6             	mov    %rdx,%rsi
    5b32:	48 89 c7             	mov    %rax,%rdi
    5b35:	e8 e6 0e 00 00       	call   6a20 <_ZNSt8_Rb_treeIiiSt9_IdentityIiESt4lessIiESaIiEE11_Alloc_nodeC1ERS5_>
    5b3a:	c6 45 bf 01          	movb   $0x1,-0x41(%rbp)
    5b3e:	48 8b 45 a0          	mov    -0x60(%rbp),%rax
    5b42:	48 89 c7             	mov    %rax,%rdi
    5b45:	e8 f4 0e 00 00       	call   6a3e <_ZSt7forwardIRKiEOT_RNSt16remove_referenceIS2_E4typeE>
    5b4a:	48 89 c1             	mov    %rax,%rcx
    5b4d:	48 8b 55 d8          	mov    -0x28(%rbp),%rdx
    5b51:	48 8b 75 d0          	mov    -0x30(%rbp),%rsi
    5b55:	48 8d 7d c0          	lea    -0x40(%rbp),%rdi
    5b59:	48 8b 45 a8          	mov    -0x58(%rbp),%rax
    5b5d:	49 89 f8             	mov    %rdi,%r8
    5b60:	48 89 c7             	mov    %rax,%rdi
    5b63:	e8 e8 0e 00 00       	call   6a50 <_ZNSt8_Rb_treeIiiSt9_IdentityIiESt4lessIiESaIiEE10_M_insert_IRKiNS5_11_Alloc_nodeEEESt17_Rb_tree_iteratorIiEPSt18_Rb_tree_node_baseSD_OT_RT0_>
    5b68:	48 89 45 c8          	mov    %rax,-0x38(%rbp)
    5b6c:	48 8d 55 bf          	lea    -0x41(%rbp),%rdx
    5b70:	48 8d 4d c8          	lea    -0x38(%rbp),%rcx
    5b74:	48 8d 45 e0          	lea    -0x20(%rbp),%rax
    5b78:	48 89 ce             	mov    %rcx,%rsi
    5b7b:	48 89 c7             	mov    %rax,%rdi
    5b7e:	e8 e5 0f 00 00       	call   6b68 <_ZNSt4pairISt17_Rb_tree_iteratorIiEbEC1IS1_bLb1EEEOT_OT0_>
    5b83:	48 8b 45 e0          	mov    -0x20(%rbp),%rax
    5b87:	48 8b 55 e8          	mov    -0x18(%rbp),%rdx
    5b8b:	eb 36                	jmp    5bc3 <_ZNSt8_Rb_treeIiiSt9_IdentityIiESt4lessIiESaIiEE16_M_insert_uniqueIRKiEESt4pairISt17_Rb_tree_iteratorIiEbEOT_+0xf5>
    5b8d:	c6 45 c0 00          	movb   $0x0,-0x40(%rbp)
    5b91:	48 8b 55 d0          	mov    -0x30(%rbp),%rdx
    5b95:	48 8d 45 c8          	lea    -0x38(%rbp),%rax
    5b99:	48 89 d6             	mov    %rdx,%rsi
    5b9c:	48 89 c7             	mov    %rax,%rdi
    5b9f:	e8 0c 10 00 00       	call   6bb0 <_ZNSt17_Rb_tree_iteratorIiEC1EPSt18_Rb_tree_node_base>
    5ba4:	48 8d 55 c0          	lea    -0x40(%rbp),%rdx
    5ba8:	48 8d 4d c8          	lea    -0x38(%rbp),%rcx
    5bac:	48 8d 45 e0          	lea    -0x20(%rbp),%rax
    5bb0:	48 89 ce             	mov    %rcx,%rsi
    5bb3:	48 89 c7             	mov    %rax,%rdi
    5bb6:	e8 ad 0f 00 00       	call   6b68 <_ZNSt4pairISt17_Rb_tree_iteratorIiEbEC1IS1_bLb1EEEOT_OT0_>
    5bbb:	48 8b 45 e0          	mov    -0x20(%rbp),%rax
    5bbf:	48 8b 55 e8          	mov    -0x18(%rbp),%rdx
    5bc3:	48 8b 4d f8          	mov    -0x8(%rbp),%rcx
    5bc7:	64 48 2b 0c 25 28 00 	sub    %fs:0x28,%rcx
    5bce:	00 00 
    5bd0:	74 05                	je     5bd7 <_ZNSt8_Rb_treeIiiSt9_IdentityIiESt4lessIiESaIiEE16_M_insert_uniqueIRKiEESt4pairISt17_Rb_tree_iteratorIiEbEOT_+0x109>
    5bd2:	e8 59 c7 ff ff       	call   2330 <__stack_chk_fail@plt>
    5bd7:	c9                   	leave
    5bd8:	c3                   	ret
    5bd9:	90                   	nop

0000000000005bda <_ZNSt4pairISt23_Rb_tree_const_iteratorIiEbEC1IRSt17_Rb_tree_iteratorIiERbLb1EEEOT_OT0_>:
    5bda:	f3 0f 1e fa          	endbr64
    5bde:	55                   	push   %rbp
    5bdf:	48 89 e5             	mov    %rsp,%rbp
    5be2:	53                   	push   %rbx
    5be3:	48 83 ec 28          	sub    $0x28,%rsp
    5be7:	48 89 7d e8          	mov    %rdi,-0x18(%rbp)
    5beb:	48 89 75 e0          	mov    %rsi,-0x20(%rbp)
    5bef:	48 89 55 d8          	mov    %rdx,-0x28(%rbp)
    5bf3:	48 8b 5d e8          	mov    -0x18(%rbp),%rbx
    5bf7:	48 8b 45 e0          	mov    -0x20(%rbp),%rax
    5bfb:	48 89 c7             	mov    %rax,%rdi
    5bfe:	e8 cb 0f 00 00       	call   6bce <_ZSt7forwardIRSt17_Rb_tree_iteratorIiEEOT_RNSt16remove_referenceIS3_E4typeE>
    5c03:	48 89 c6             	mov    %rax,%rsi
    5c06:	48 89 df             	mov    %rbx,%rdi
    5c09:	e8 e4 0f 00 00       	call   6bf2 <_ZNSt23_Rb_tree_const_iteratorIiEC1ERKSt17_Rb_tree_iteratorIiE>
    5c0e:	48 8b 45 d8          	mov    -0x28(%rbp),%rax
    5c12:	48 89 c7             	mov    %rax,%rdi
    5c15:	e8 c6 0f 00 00       	call   6be0 <_ZSt7forwardIRbEOT_RNSt16remove_referenceIS1_E4typeE>
    5c1a:	0f b6 10             	movzbl (%rax),%edx
    5c1d:	48 8b 45 e8          	mov    -0x18(%rbp),%rax
    5c21:	88 50 08             	mov    %dl,0x8(%rax)
    5c24:	90                   	nop
    5c25:	48 8b 5d f8          	mov    -0x8(%rbp),%rbx
    5c29:	c9                   	leave
    5c2a:	c3                   	ret
    5c2b:	90                   	nop

0000000000005c2c <_ZNSt8_Rb_treeI6bipoloS0_St9_IdentityIS0_ESt4lessIS0_ESaIS0_EE16_M_insert_uniqueIRKS0_EESt4pairISt17_Rb_tree_iteratorIS0_EbEOT_>:
    5c2c:	f3 0f 1e fa          	endbr64
    5c30:	55                   	push   %rbp
    5c31:	48 89 e5             	mov    %rsp,%rbp
    5c34:	48 83 ec 60          	sub    $0x60,%rsp
    5c38:	48 89 7d a8          	mov    %rdi,-0x58(%rbp)
    5c3c:	48 89 75 a0          	mov    %rsi,-0x60(%rbp)
    5c40:	64 48 8b 04 25 28 00 	mov    %fs:0x28,%rax
    5c47:	00 00 
    5c49:	48 89 45 f8          	mov    %rax,-0x8(%rbp)
    5c4d:	31 c0                	xor    %eax,%eax
    5c4f:	48 8b 55 a0          	mov    -0x60(%rbp),%rdx
    5c53:	48 8d 45 e0          	lea    -0x20(%rbp),%rax
    5c57:	48 89 d6             	mov    %rdx,%rsi
    5c5a:	48 89 c7             	mov    %rax,%rdi
    5c5d:	e8 4e 11 00 00       	call   6db0 <_ZNKSt9_IdentityI6bipoloEclERKS0_>
    5c62:	48 89 c2             	mov    %rax,%rdx
    5c65:	48 8b 45 a8          	mov    -0x58(%rbp),%rax
    5c69:	48 89 d6             	mov    %rdx,%rsi
    5c6c:	48 89 c7             	mov    %rax,%rdi
    5c6f:	e8 a0 0f 00 00       	call   6c14 <_ZNSt8_Rb_treeI6bipoloS0_St9_IdentityIS0_ESt4lessIS0_ESaIS0_EE24_M_get_insert_unique_posERKS0_>
    5c74:	48 89 45 d0          	mov    %rax,-0x30(%rbp)
    5c78:	48 89 55 d8          	mov    %rdx,-0x28(%rbp)
    5c7c:	48 8b 45 d8          	mov    -0x28(%rbp),%rax
    5c80:	48 85 c0             	test   %rax,%rax
    5c83:	74 66                	je     5ceb <_ZNSt8_Rb_treeI6bipoloS0_St9_IdentityIS0_ESt4lessIS0_ESaIS0_EE16_M_insert_uniqueIRKS0_EESt4pairISt17_Rb_tree_iteratorIS0_EbEOT_+0xbf>
    5c85:	48 8b 55 a8          	mov    -0x58(%rbp),%rdx
    5c89:	48 8d 45 c0          	lea    -0x40(%rbp),%rax
    5c8d:	48 89 d6             	mov    %rdx,%rsi
    5c90:	48 89 c7             	mov    %rax,%rdi
    5c93:	e8 2e 11 00 00       	call   6dc6 <_ZNSt8_Rb_treeI6bipoloS0_St9_IdentityIS0_ESt4lessIS0_ESaIS0_EE11_Alloc_nodeC1ERS6_>
    5c98:	c6 45 bf 01          	movb   $0x1,-0x41(%rbp)
    5c9c:	48 8b 45 a0          	mov    -0x60(%rbp),%rax
    5ca0:	48 89 c7             	mov    %rax,%rdi
    5ca3:	e8 3c 11 00 00       	call   6de4 <_ZSt7forwardIRK6bipoloEOT_RNSt16remove_referenceIS3_E4typeE>
    5ca8:	48 89 c1             	mov    %rax,%rcx
    5cab:	48 8b 55 d8          	mov    -0x28(%rbp),%rdx
    5caf:	48 8b 75 d0          	mov    -0x30(%rbp),%rsi
    5cb3:	48 8d 7d c0          	lea    -0x40(%rbp),%rdi
    5cb7:	48 8b 45 a8          	mov    -0x58(%rbp),%rax
    5cbb:	49 89 f8             	mov    %rdi,%r8
    5cbe:	48 89 c7             	mov    %rax,%rdi
    5cc1:	e8 30 11 00 00       	call   6df6 <_ZNSt8_Rb_treeI6bipoloS0_St9_IdentityIS0_ESt4lessIS0_ESaIS0_EE10_M_insert_IRKS0_NS6_11_Alloc_nodeEEESt17_Rb_tree_iteratorIS0_EPSt18_Rb_tree_node_baseSE_OT_RT0_>
    5cc6:	48 89 45 c8          	mov    %rax,-0x38(%rbp)
    5cca:	48 8d 55 bf          	lea    -0x41(%rbp),%rdx
    5cce:	48 8d 4d c8          	lea    -0x38(%rbp),%rcx
    5cd2:	48 8d 45 e0          	lea    -0x20(%rbp),%rax
    5cd6:	48 89 ce             	mov    %rcx,%rsi
    5cd9:	48 89 c7             	mov    %rax,%rdi
    5cdc:	e8 2d 12 00 00       	call   6f0e <_ZNSt4pairISt17_Rb_tree_iteratorI6bipoloEbEC1IS2_bLb1EEEOT_OT0_>
    5ce1:	48 8b 45 e0          	mov    -0x20(%rbp),%rax
    5ce5:	48 8b 55 e8          	mov    -0x18(%rbp),%rdx
    5ce9:	eb 36                	jmp    5d21 <_ZNSt8_Rb_treeI6bipoloS0_St9_IdentityIS0_ESt4lessIS0_ESaIS0_EE16_M_insert_uniqueIRKS0_EESt4pairISt17_Rb_tree_iteratorIS0_EbEOT_+0xf5>
    5ceb:	c6 45 c0 00          	movb   $0x0,-0x40(%rbp)
    5cef:	48 8b 55 d0          	mov    -0x30(%rbp),%rdx
    5cf3:	48 8d 45 c8          	lea    -0x38(%rbp),%rax
    5cf7:	48 89 d6             	mov    %rdx,%rsi
    5cfa:	48 89 c7             	mov    %rax,%rdi
    5cfd:	e8 54 12 00 00       	call   6f56 <_ZNSt17_Rb_tree_iteratorI6bipoloEC1EPSt18_Rb_tree_node_base>
    5d02:	48 8d 55 c0          	lea    -0x40(%rbp),%rdx
    5d06:	48 8d 4d c8          	lea    -0x38(%rbp),%rcx
    5d0a:	48 8d 45 e0          	lea    -0x20(%rbp),%rax
    5d0e:	48 89 ce             	mov    %rcx,%rsi
    5d11:	48 89 c7             	mov    %rax,%rdi
    5d14:	e8 f5 11 00 00       	call   6f0e <_ZNSt4pairISt17_Rb_tree_iteratorI6bipoloEbEC1IS2_bLb1EEEOT_OT0_>
    5d19:	48 8b 45 e0          	mov    -0x20(%rbp),%rax
    5d1d:	48 8b 55 e8          	mov    -0x18(%rbp),%rdx
    5d21:	48 8b 4d f8          	mov    -0x8(%rbp),%rcx
    5d25:	64 48 2b 0c 25 28 00 	sub    %fs:0x28,%rcx
    5d2c:	00 00 
    5d2e:	74 05                	je     5d35 <_ZNSt8_Rb_treeI6bipoloS0_St9_IdentityIS0_ESt4lessIS0_ESaIS0_EE16_M_insert_uniqueIRKS0_EESt4pairISt17_Rb_tree_iteratorIS0_EbEOT_+0x109>
    5d30:	e8 fb c5 ff ff       	call   2330 <__stack_chk_fail@plt>
    5d35:	c9                   	leave
    5d36:	c3                   	ret
    5d37:	90                   	nop

0000000000005d38 <_ZNSt4pairISt23_Rb_tree_const_iteratorI6bipoloEbEC1IRSt17_Rb_tree_iteratorIS1_ERbLb1EEEOT_OT0_>:
    5d38:	f3 0f 1e fa          	endbr64
    5d3c:	55                   	push   %rbp
    5d3d:	48 89 e5             	mov    %rsp,%rbp
    5d40:	53                   	push   %rbx
    5d41:	48 83 ec 28          	sub    $0x28,%rsp
    5d45:	48 89 7d e8          	mov    %rdi,-0x18(%rbp)
    5d49:	48 89 75 e0          	mov    %rsi,-0x20(%rbp)
    5d4d:	48 89 55 d8          	mov    %rdx,-0x28(%rbp)
    5d51:	48 8b 5d e8          	mov    -0x18(%rbp),%rbx
    5d55:	48 8b 45 e0          	mov    -0x20(%rbp),%rax
    5d59:	48 89 c7             	mov    %rax,%rdi
    5d5c:	e8 13 12 00 00       	call   6f74 <_ZSt7forwardIRSt17_Rb_tree_iteratorI6bipoloEEOT_RNSt16remove_referenceIS4_E4typeE>
    5d61:	48 89 c6             	mov    %rax,%rsi
    5d64:	48 89 df             	mov    %rbx,%rdi
    5d67:	e8 1a 12 00 00       	call   6f86 <_ZNSt23_Rb_tree_const_iteratorI6bipoloEC1ERKSt17_Rb_tree_iteratorIS0_E>
    5d6c:	48 8b 45 d8          	mov    -0x28(%rbp),%rax
    5d70:	48 89 c7             	mov    %rax,%rdi
    5d73:	e8 68 0e 00 00       	call   6be0 <_ZSt7forwardIRbEOT_RNSt16remove_referenceIS1_E4typeE>
    5d78:	0f b6 10             	movzbl (%rax),%edx
    5d7b:	48 8b 45 e8          	mov    -0x18(%rbp),%rax
    5d7f:	88 50 08             	mov    %dl,0x8(%rax)
    5d82:	90                   	nop
    5d83:	48 8b 5d f8          	mov    -0x8(%rbp),%rbx
    5d87:	c9                   	leave
    5d88:	c3                   	ret
    5d89:	90                   	nop

0000000000005d8a <_ZNSt15__uniq_ptr_dataI10BipoloNodeSt14default_deleteIS0_ELb1ELb1EECI1St15__uniq_ptr_implIS0_S2_EEPS0_>:
    5d8a:	f3 0f 1e fa          	endbr64
    5d8e:	55                   	push   %rbp
    5d8f:	48 89 e5             	mov    %rsp,%rbp
    5d92:	48 83 ec 10          	sub    $0x10,%rsp
    5d96:	48 89 7d f8          	mov    %rdi,-0x8(%rbp)
    5d9a:	48 89 75 f0          	mov    %rsi,-0x10(%rbp)
    5d9e:	48 8b 45 f8          	mov    -0x8(%rbp),%rax
    5da2:	48 8b 55 f0          	mov    -0x10(%rbp),%rdx
    5da6:	48 89 d6             	mov    %rdx,%rsi
    5da9:	48 89 c7             	mov    %rax,%rdi
    5dac:	e8 f7 11 00 00       	call   6fa8 <_ZNSt15__uniq_ptr_implI10BipoloNodeSt14default_deleteIS0_EEC1EPS0_>
    5db1:	90                   	nop
    5db2:	c9                   	leave
    5db3:	c3                   	ret

0000000000005db4 <_ZNSt10unique_ptrI10BipoloNodeSt14default_deleteIS0_EEC1IS2_vEEPS0_>:
    5db4:	f3 0f 1e fa          	endbr64
    5db8:	55                   	push   %rbp
    5db9:	48 89 e5             	mov    %rsp,%rbp
    5dbc:	48 83 ec 10          	sub    $0x10,%rsp
    5dc0:	48 89 7d f8          	mov    %rdi,-0x8(%rbp)
    5dc4:	48 89 75 f0          	mov    %rsi,-0x10(%rbp)
    5dc8:	48 8b 45 f8          	mov    -0x8(%rbp),%rax
    5dcc:	48 8b 55 f0          	mov    -0x10(%rbp),%rdx
    5dd0:	48 89 d6             	mov    %rdx,%rsi
    5dd3:	48 89 c7             	mov    %rax,%rdi
    5dd6:	e8 af ff ff ff       	call   5d8a <_ZNSt15__uniq_ptr_dataI10BipoloNodeSt14default_deleteIS0_ELb1ELb1EECI1St15__uniq_ptr_implIS0_S2_EEPS0_>
    5ddb:	90                   	nop
    5ddc:	c9                   	leave
    5ddd:	c3                   	ret

0000000000005dde <_ZNSt15__uniq_ptr_implI10BipoloNodeSt14default_deleteIS0_EE6_M_ptrEv>:
    5dde:	f3 0f 1e fa          	endbr64
    5de2:	55                   	push   %rbp
    5de3:	48 89 e5             	mov    %rsp,%rbp
    5de6:	48 83 ec 10          	sub    $0x10,%rsp
    5dea:	48 89 7d f8          	mov    %rdi,-0x8(%rbp)
    5dee:	48 8b 45 f8          	mov    -0x8(%rbp),%rax
    5df2:	48 89 c7             	mov    %rax,%rdi
    5df5:	e8 e9 11 00 00       	call   6fe3 <_ZSt3getILm0EJP10BipoloNodeSt14default_deleteIS0_EEERNSt13tuple_elementIXT_ESt5tupleIJDpT0_EEE4typeERS8_>
    5dfa:	c9                   	leave
    5dfb:	c3                   	ret

0000000000005dfc <_ZNSt10unique_ptrI10BipoloNodeSt14default_deleteIS0_EE11get_deleterEv>:
    5dfc:	f3 0f 1e fa          	endbr64
    5e00:	55                   	push   %rbp
    5e01:	48 89 e5             	mov    %rsp,%rbp
    5e04:	48 83 ec 10          	sub    $0x10,%rsp
    5e08:	48 89 7d f8          	mov    %rdi,-0x8(%rbp)
    5e0c:	48 8b 45 f8          	mov    -0x8(%rbp),%rax
    5e10:	48 89 c7             	mov    %rax,%rdi
    5e13:	e8 ea 11 00 00       	call   7002 <_ZNSt15__uniq_ptr_implI10BipoloNodeSt14default_deleteIS0_EE10_M_deleterEv>
    5e18:	c9                   	leave
    5e19:	c3                   	ret

0000000000005e1a <_ZSt4moveIRP10BipoloNodeEONSt16remove_referenceIT_E4typeEOS4_>:
    5e1a:	f3 0f 1e fa          	endbr64
    5e1e:	55                   	push   %rbp
    5e1f:	48 89 e5             	mov    %rsp,%rbp
    5e22:	48 89 7d f8          	mov    %rdi,-0x8(%rbp)
    5e26:	48 8b 45 f8          	mov    -0x8(%rbp),%rax
    5e2a:	5d                   	pop    %rbp
    5e2b:	c3                   	ret

0000000000005e2c <_ZN10BipoloNodeD1Ev>:
    5e2c:	f3 0f 1e fa          	endbr64
    5e30:	55                   	push   %rbp
    5e31:	48 89 e5             	mov    %rsp,%rbp
    5e34:	48 83 ec 10          	sub    $0x10,%rsp
    5e38:	48 89 7d f8          	mov    %rdi,-0x8(%rbp)
    5e3c:	48 8d 15 05 7e 00 00 	lea    0x7e05(%rip),%rdx        # dc48 <_ZTV10BipoloNode+0x10>
    5e43:	48 8b 45 f8          	mov    -0x8(%rbp),%rax
    5e47:	48 89 10             	mov    %rdx,(%rax)
    5e4a:	48 8b 45 f8          	mov    -0x8(%rbp),%rax
    5e4e:	48 83 c0 08          	add    $0x8,%rax
    5e52:	48 89 c7             	mov    %rax,%rdi
    5e55:	e8 02 d5 ff ff       	call   335c <_ZN6bipoloD1Ev>
    5e5a:	48 8b 45 f8          	mov    -0x8(%rbp),%rax
    5e5e:	48 89 c7             	mov    %rax,%rdi
    5e61:	e8 2e d4 ff ff       	call   3294 <_ZN14ExpressionNodeD1Ev>
    5e66:	90                   	nop
    5e67:	c9                   	leave
    5e68:	c3                   	ret
    5e69:	90                   	nop

0000000000005e6a <_ZN10BipoloNodeD0Ev>:
    5e6a:	f3 0f 1e fa          	endbr64
    5e6e:	55                   	push   %rbp
    5e6f:	48 89 e5             	mov    %rsp,%rbp
    5e72:	48 83 ec 10          	sub    $0x10,%rsp
    5e76:	48 89 7d f8          	mov    %rdi,-0x8(%rbp)
    5e7a:	48 8b 45 f8          	mov    -0x8(%rbp),%rax
    5e7e:	48 89 c7             	mov    %rax,%rdi
    5e81:	e8 a6 ff ff ff       	call   5e2c <_ZN10BipoloNodeD1Ev>
    5e86:	48 8b 45 f8          	mov    -0x8(%rbp),%rax
    5e8a:	be 40 00 00 00       	mov    $0x40,%esi
    5e8f:	48 89 c7             	mov    %rax,%rdi
    5e92:	e8 59 c4 ff ff       	call   22f0 <_ZdlPvm@plt>
    5e97:	c9                   	leave
    5e98:	c3                   	ret
    5e99:	90                   	nop

0000000000005e9a <_ZNKSt14default_deleteI10BipoloNodeEclEPS0_>:
    5e9a:	f3 0f 1e fa          	endbr64
    5e9e:	55                   	push   %rbp
    5e9f:	48 89 e5             	mov    %rsp,%rbp
    5ea2:	48 83 ec 10          	sub    $0x10,%rsp
    5ea6:	48 89 7d f8          	mov    %rdi,-0x8(%rbp)
    5eaa:	48 89 75 f0          	mov    %rsi,-0x10(%rbp)
    5eae:	48 8b 45 f0          	mov    -0x10(%rbp),%rax
    5eb2:	48 85 c0             	test   %rax,%rax
    5eb5:	74 0f                	je     5ec6 <_ZNKSt14default_deleteI10BipoloNodeEclEPS0_+0x2c>
    5eb7:	48 8b 10             	mov    (%rax),%rdx
    5eba:	48 83 c2 10          	add    $0x10,%rdx
    5ebe:	48 8b 12             	mov    (%rdx),%rdx
    5ec1:	48 89 c7             	mov    %rax,%rdi
    5ec4:	ff d2                	call   *%rdx
    5ec6:	90                   	nop
    5ec7:	c9                   	leave
    5ec8:	c3                   	ret
    5ec9:	90                   	nop

0000000000005eca <_ZNSt10unique_ptrI10BipoloNodeSt14default_deleteIS0_EE7releaseEv>:
    5eca:	f3 0f 1e fa          	endbr64
    5ece:	55                   	push   %rbp
    5ecf:	48 89 e5             	mov    %rsp,%rbp
    5ed2:	48 83 ec 10          	sub    $0x10,%rsp
    5ed6:	48 89 7d f8          	mov    %rdi,-0x8(%rbp)
    5eda:	48 8b 45 f8          	mov    -0x8(%rbp),%rax
    5ede:	48 89 c7             	mov    %rax,%rdi
    5ee1:	e8 3a 11 00 00       	call   7020 <_ZNSt15__uniq_ptr_implI10BipoloNodeSt14default_deleteIS0_EE7releaseEv>
    5ee6:	c9                   	leave
    5ee7:	c3                   	ret

0000000000005ee8 <_ZSt7forwardISt14default_deleteI10BipoloNodeEEOT_RNSt16remove_referenceIS3_E4typeE>:
    5ee8:	f3 0f 1e fa          	endbr64
    5eec:	55                   	push   %rbp
    5eed:	48 89 e5             	mov    %rsp,%rbp
    5ef0:	48 89 7d f8          	mov    %rdi,-0x8(%rbp)
    5ef4:	48 8b 45 f8          	mov    -0x8(%rbp),%rax
    5ef8:	5d                   	pop    %rbp
    5ef9:	c3                   	ret

0000000000005efa <_ZNSt15__uniq_ptr_implI14ExpressionNodeSt14default_deleteIS0_EEC1IS1_I10BipoloNodeEEEPS0_OT_>:
    5efa:	f3 0f 1e fa          	endbr64
    5efe:	55                   	push   %rbp
    5eff:	48 89 e5             	mov    %rsp,%rbp
    5f02:	53                   	push   %rbx
    5f03:	48 83 ec 28          	sub    $0x28,%rsp
    5f07:	48 89 7d e8          	mov    %rdi,-0x18(%rbp)
    5f0b:	48 89 75 e0          	mov    %rsi,-0x20(%rbp)
    5f0f:	48 89 55 d8          	mov    %rdx,-0x28(%rbp)
    5f13:	48 8b 5d e8          	mov    -0x18(%rbp),%rbx
    5f17:	48 8b 45 d8          	mov    -0x28(%rbp),%rax
    5f1b:	48 89 c7             	mov    %rax,%rdi
    5f1e:	e8 c5 ff ff ff       	call   5ee8 <_ZSt7forwardISt14default_deleteI10BipoloNodeEEOT_RNSt16remove_referenceIS3_E4typeE>
    5f23:	48 89 c2             	mov    %rax,%rdx
    5f26:	48 8d 45 e0          	lea    -0x20(%rbp),%rax
    5f2a:	48 89 c6             	mov    %rax,%rsi
    5f2d:	48 89 df             	mov    %rbx,%rdi
    5f30:	e8 27 11 00 00       	call   705c <_ZNSt5tupleIJP14ExpressionNodeSt14default_deleteIS0_EEEC1IRS1_S2_I10BipoloNodeELb1EEEOT_OT0_>
    5f35:	90                   	nop
    5f36:	48 8b 5d f8          	mov    -0x8(%rbp),%rbx
    5f3a:	c9                   	leave
    5f3b:	c3                   	ret

0000000000005f3c <_ZNKSt10unique_ptrI14ExpressionNodeSt14default_deleteIS0_EEcvbEv>:
    5f3c:	f3 0f 1e fa          	endbr64
    5f40:	55                   	push   %rbp
    5f41:	48 89 e5             	mov    %rsp,%rbp
    5f44:	48 83 ec 10          	sub    $0x10,%rsp
    5f48:	48 89 7d f8          	mov    %rdi,-0x8(%rbp)
    5f4c:	48 8b 45 f8          	mov    -0x8(%rbp),%rax
    5f50:	48 89 c7             	mov    %rax,%rdi
    5f53:	e8 18 fa ff ff       	call   5970 <_ZNKSt10unique_ptrI14ExpressionNodeSt14default_deleteIS0_EE3getEv>
    5f58:	48 85 c0             	test   %rax,%rax
    5f5b:	0f 95 c0             	setne  %al
    5f5e:	c9                   	leave
    5f5f:	c3                   	ret

0000000000005f60 <_ZNSt15__uniq_ptr_implI14ExpressionNodeSt14default_deleteIS0_EE5resetEPS0_>:
    5f60:	f3 0f 1e fa          	endbr64
    5f64:	55                   	push   %rbp
    5f65:	48 89 e5             	mov    %rsp,%rbp
    5f68:	53                   	push   %rbx
    5f69:	48 83 ec 28          	sub    $0x28,%rsp
    5f6d:	48 89 7d d8          	mov    %rdi,-0x28(%rbp)
    5f71:	48 89 75 d0          	mov    %rsi,-0x30(%rbp)
    5f75:	48 8b 45 d8          	mov    -0x28(%rbp),%rax
    5f79:	48 89 c7             	mov    %rax,%rdi
    5f7c:	e8 71 f9 ff ff       	call   58f2 <_ZNSt15__uniq_ptr_implI14ExpressionNodeSt14default_deleteIS0_EE6_M_ptrEv>
    5f81:	48 8b 00             	mov    (%rax),%rax
    5f84:	48 89 45 e8          	mov    %rax,-0x18(%rbp)
    5f88:	48 8b 5d d0          	mov    -0x30(%rbp),%rbx
    5f8c:	48 8b 45 d8          	mov    -0x28(%rbp),%rax
    5f90:	48 89 c7             	mov    %rax,%rdi
    5f93:	e8 5a f9 ff ff       	call   58f2 <_ZNSt15__uniq_ptr_implI14ExpressionNodeSt14default_deleteIS0_EE6_M_ptrEv>
    5f98:	48 89 18             	mov    %rbx,(%rax)
    5f9b:	48 83 7d e8 00       	cmpq   $0x0,-0x18(%rbp)
    5fa0:	74 1e                	je     5fc0 <_ZNSt15__uniq_ptr_implI14ExpressionNodeSt14default_deleteIS0_EE5resetEPS0_+0x60>
    5fa2:	48 8b 45 d8          	mov    -0x28(%rbp),%rax
    5fa6:	48 89 c7             	mov    %rax,%rdi
    5fa9:	e8 56 00 00 00       	call   6004 <_ZNSt15__uniq_ptr_implI14ExpressionNodeSt14default_deleteIS0_EE10_M_deleterEv>
    5fae:	48 89 c2             	mov    %rax,%rdx
    5fb1:	48 8b 45 e8          	mov    -0x18(%rbp),%rax
    5fb5:	48 89 c6             	mov    %rax,%rsi
    5fb8:	48 89 d7             	mov    %rdx,%rdi
    5fbb:	e8 80 f9 ff ff       	call   5940 <_ZNKSt14default_deleteI14ExpressionNodeEclEPS0_>
    5fc0:	90                   	nop
    5fc1:	48 8b 5d f8          	mov    -0x8(%rbp),%rbx
    5fc5:	c9                   	leave
    5fc6:	c3                   	ret
    5fc7:	90                   	nop

0000000000005fc8 <_ZNSt15__uniq_ptr_implI14ExpressionNodeSt14default_deleteIS0_EE7releaseEv>:
    5fc8:	f3 0f 1e fa          	endbr64
    5fcc:	55                   	push   %rbp
    5fcd:	48 89 e5             	mov    %rsp,%rbp
    5fd0:	48 83 ec 20          	sub    $0x20,%rsp
    5fd4:	48 89 7d e8          	mov    %rdi,-0x18(%rbp)
    5fd8:	48 8b 45 e8          	mov    -0x18(%rbp),%rax
    5fdc:	48 89 c7             	mov    %rax,%rdi
    5fdf:	e8 0e f9 ff ff       	call   58f2 <_ZNSt15__uniq_ptr_implI14ExpressionNodeSt14default_deleteIS0_EE6_M_ptrEv>
    5fe4:	48 8b 00             	mov    (%rax),%rax
    5fe7:	48 89 45 f8          	mov    %rax,-0x8(%rbp)
    5feb:	48 8b 45 e8          	mov    -0x18(%rbp),%rax
    5fef:	48 89 c7             	mov    %rax,%rdi
    5ff2:	e8 fb f8 ff ff       	call   58f2 <_ZNSt15__uniq_ptr_implI14ExpressionNodeSt14default_deleteIS0_EE6_M_ptrEv>
    5ff7:	48 c7 00 00 00 00 00 	movq   $0x0,(%rax)
    5ffe:	48 8b 45 f8          	mov    -0x8(%rbp),%rax
    6002:	c9                   	leave
    6003:	c3                   	ret

0000000000006004 <_ZNSt15__uniq_ptr_implI14ExpressionNodeSt14default_deleteIS0_EE10_M_deleterEv>:
    6004:	f3 0f 1e fa          	endbr64
    6008:	55                   	push   %rbp
    6009:	48 89 e5             	mov    %rsp,%rbp
    600c:	48 83 ec 10          	sub    $0x10,%rsp
    6010:	48 89 7d f8          	mov    %rdi,-0x8(%rbp)
    6014:	48 8b 45 f8          	mov    -0x8(%rbp),%rax
    6018:	48 89 c7             	mov    %rax,%rdi
    601b:	e8 8e 10 00 00       	call   70ae <_ZSt3getILm1EJP14ExpressionNodeSt14default_deleteIS0_EEERNSt13tuple_elementIXT_ESt5tupleIJDpT0_EEE4typeERS8_>
    6020:	c9                   	leave
    6021:	c3                   	ret

0000000000006022 <_ZSt7forwardISt14default_deleteI14ExpressionNodeEEOT_RNSt16remove_referenceIS3_E4typeE>:
    6022:	f3 0f 1e fa          	endbr64
    6026:	55                   	push   %rbp
    6027:	48 89 e5             	mov    %rsp,%rbp
    602a:	48 89 7d f8          	mov    %rdi,-0x8(%rbp)
    602e:	48 8b 45 f8          	mov    -0x8(%rbp),%rax
    6032:	5d                   	pop    %rbp
    6033:	c3                   	ret

0000000000006034 <_ZSt7forwardISt10unique_ptrI14ExpressionNodeSt14default_deleteIS1_EEEOT_RNSt16remove_referenceIS5_E4typeE>:
    6034:	f3 0f 1e fa          	endbr64
    6038:	55                   	push   %rbp
    6039:	48 89 e5             	mov    %rsp,%rbp
    603c:	48 89 7d f8          	mov    %rdi,-0x8(%rbp)
    6040:	48 8b 45 f8          	mov    -0x8(%rbp),%rax
    6044:	5d                   	pop    %rbp
    6045:	c3                   	ret

0000000000006046 <_ZSt7forwardIRcEOT_RNSt16remove_referenceIS1_E4typeE>:
    6046:	f3 0f 1e fa          	endbr64
    604a:	55                   	push   %rbp
    604b:	48 89 e5             	mov    %rsp,%rbp
    604e:	48 89 7d f8          	mov    %rdi,-0x8(%rbp)
    6052:	48 8b 45 f8          	mov    -0x8(%rbp),%rax
    6056:	5d                   	pop    %rbp
    6057:	c3                   	ret

0000000000006058 <_ZNSt15__uniq_ptr_dataI13OperationNodeSt14default_deleteIS0_ELb1ELb1EECI1St15__uniq_ptr_implIS0_S2_EEPS0_>:
    6058:	f3 0f 1e fa          	endbr64
    605c:	55                   	push   %rbp
    605d:	48 89 e5             	mov    %rsp,%rbp
    6060:	48 83 ec 10          	sub    $0x10,%rsp
    6064:	48 89 7d f8          	mov    %rdi,-0x8(%rbp)
    6068:	48 89 75 f0          	mov    %rsi,-0x10(%rbp)
    606c:	48 8b 45 f8          	mov    -0x8(%rbp),%rax
    6070:	48 8b 55 f0          	mov    -0x10(%rbp),%rdx
    6074:	48 89 d6             	mov    %rdx,%rsi
    6077:	48 89 c7             	mov    %rax,%rdi
    607a:	e8 4d 10 00 00       	call   70cc <_ZNSt15__uniq_ptr_implI13OperationNodeSt14default_deleteIS0_EEC1EPS0_>
    607f:	90                   	nop
    6080:	c9                   	leave
    6081:	c3                   	ret

0000000000006082 <_ZNSt10unique_ptrI13OperationNodeSt14default_deleteIS0_EEC1IS2_vEEPS0_>:
    6082:	f3 0f 1e fa          	endbr64
    6086:	55                   	push   %rbp
    6087:	48 89 e5             	mov    %rsp,%rbp
    608a:	48 83 ec 10          	sub    $0x10,%rsp
    608e:	48 89 7d f8          	mov    %rdi,-0x8(%rbp)
    6092:	48 89 75 f0          	mov    %rsi,-0x10(%rbp)
    6096:	48 8b 45 f8          	mov    -0x8(%rbp),%rax
    609a:	48 8b 55 f0          	mov    -0x10(%rbp),%rdx
    609e:	48 89 d6             	mov    %rdx,%rsi
    60a1:	48 89 c7             	mov    %rax,%rdi
    60a4:	e8 af ff ff ff       	call   6058 <_ZNSt15__uniq_ptr_dataI13OperationNodeSt14default_deleteIS0_ELb1ELb1EECI1St15__uniq_ptr_implIS0_S2_EEPS0_>
    60a9:	90                   	nop
    60aa:	c9                   	leave
    60ab:	c3                   	ret

00000000000060ac <_ZNSt15__uniq_ptr_implI13OperationNodeSt14default_deleteIS0_EE6_M_ptrEv>:
    60ac:	f3 0f 1e fa          	endbr64
    60b0:	55                   	push   %rbp
    60b1:	48 89 e5             	mov    %rsp,%rbp
    60b4:	48 83 ec 10          	sub    $0x10,%rsp
    60b8:	48 89 7d f8          	mov    %rdi,-0x8(%rbp)
    60bc:	48 8b 45 f8          	mov    -0x8(%rbp),%rax
    60c0:	48 89 c7             	mov    %rax,%rdi
    60c3:	e8 3f 10 00 00       	call   7107 <_ZSt3getILm0EJP13OperationNodeSt14default_deleteIS0_EEERNSt13tuple_elementIXT_ESt5tupleIJDpT0_EEE4typeERS8_>
    60c8:	c9                   	leave
    60c9:	c3                   	ret

00000000000060ca <_ZNSt10unique_ptrI13OperationNodeSt14default_deleteIS0_EE11get_deleterEv>:
    60ca:	f3 0f 1e fa          	endbr64
    60ce:	55                   	push   %rbp
    60cf:	48 89 e5             	mov    %rsp,%rbp
    60d2:	48 83 ec 10          	sub    $0x10,%rsp
    60d6:	48 89 7d f8          	mov    %rdi,-0x8(%rbp)
    60da:	48 8b 45 f8          	mov    -0x8(%rbp),%rax
    60de:	48 89 c7             	mov    %rax,%rdi
    60e1:	e8 40 10 00 00       	call   7126 <_ZNSt15__uniq_ptr_implI13OperationNodeSt14default_deleteIS0_EE10_M_deleterEv>
    60e6:	c9                   	leave
    60e7:	c3                   	ret

00000000000060e8 <_ZSt4moveIRP13OperationNodeEONSt16remove_referenceIT_E4typeEOS4_>:
    60e8:	f3 0f 1e fa          	endbr64
    60ec:	55                   	push   %rbp
    60ed:	48 89 e5             	mov    %rsp,%rbp
    60f0:	48 89 7d f8          	mov    %rdi,-0x8(%rbp)
    60f4:	48 8b 45 f8          	mov    -0x8(%rbp),%rax
    60f8:	5d                   	pop    %rbp
    60f9:	c3                   	ret

00000000000060fa <_ZN13OperationNodeD1Ev>:
    60fa:	f3 0f 1e fa          	endbr64
    60fe:	55                   	push   %rbp
    60ff:	48 89 e5             	mov    %rsp,%rbp
    6102:	48 83 ec 10          	sub    $0x10,%rsp
    6106:	48 89 7d f8          	mov    %rdi,-0x8(%rbp)
    610a:	48 8d 15 0f 7b 00 00 	lea    0x7b0f(%rip),%rdx        # dc20 <_ZTV13OperationNode+0x10>
    6111:	48 8b 45 f8          	mov    -0x8(%rbp),%rax
    6115:	48 89 10             	mov    %rdx,(%rax)
    6118:	48 8b 45 f8          	mov    -0x8(%rbp),%rax
    611c:	48 83 c0 10          	add    $0x10,%rax
    6120:	48 89 c7             	mov    %rax,%rdi
    6123:	e8 f8 e2 ff ff       	call   4420 <_ZNSt10unique_ptrI14ExpressionNodeSt14default_deleteIS0_EED1Ev>
    6128:	48 8b 45 f8          	mov    -0x8(%rbp),%rax
    612c:	48 83 c0 08          	add    $0x8,%rax
    6130:	48 89 c7             	mov    %rax,%rdi
    6133:	e8 e8 e2 ff ff       	call   4420 <_ZNSt10unique_ptrI14ExpressionNodeSt14default_deleteIS0_EED1Ev>
    6138:	48 8b 45 f8          	mov    -0x8(%rbp),%rax
    613c:	48 89 c7             	mov    %rax,%rdi
    613f:	e8 50 d1 ff ff       	call   3294 <_ZN14ExpressionNodeD1Ev>
    6144:	90                   	nop
    6145:	c9                   	leave
    6146:	c3                   	ret
    6147:	90                   	nop

0000000000006148 <_ZN13OperationNodeD0Ev>:
    6148:	f3 0f 1e fa          	endbr64
    614c:	55                   	push   %rbp
    614d:	48 89 e5             	mov    %rsp,%rbp
    6150:	48 83 ec 10          	sub    $0x10,%rsp
    6154:	48 89 7d f8          	mov    %rdi,-0x8(%rbp)
    6158:	48 8b 45 f8          	mov    -0x8(%rbp),%rax
    615c:	48 89 c7             	mov    %rax,%rdi
    615f:	e8 96 ff ff ff       	call   60fa <_ZN13OperationNodeD1Ev>
    6164:	48 8b 45 f8          	mov    -0x8(%rbp),%rax
    6168:	be 20 00 00 00       	mov    $0x20,%esi
    616d:	48 89 c7             	mov    %rax,%rdi
    6170:	e8 7b c1 ff ff       	call   22f0 <_ZdlPvm@plt>
    6175:	c9                   	leave
    6176:	c3                   	ret
    6177:	90                   	nop

0000000000006178 <_ZNKSt14default_deleteI13OperationNodeEclEPS0_>:
    6178:	f3 0f 1e fa          	endbr64
    617c:	55                   	push   %rbp
    617d:	48 89 e5             	mov    %rsp,%rbp
    6180:	48 83 ec 10          	sub    $0x10,%rsp
    6184:	48 89 7d f8          	mov    %rdi,-0x8(%rbp)
    6188:	48 89 75 f0          	mov    %rsi,-0x10(%rbp)
    618c:	48 8b 45 f0          	mov    -0x10(%rbp),%rax
    6190:	48 85 c0             	test   %rax,%rax
    6193:	74 0f                	je     61a4 <_ZNKSt14default_deleteI13OperationNodeEclEPS0_+0x2c>
    6195:	48 8b 10             	mov    (%rax),%rdx
    6198:	48 83 c2 10          	add    $0x10,%rdx
    619c:	48 8b 12             	mov    (%rdx),%rdx
    619f:	48 89 c7             	mov    %rax,%rdi
    61a2:	ff d2                	call   *%rdx
    61a4:	90                   	nop
    61a5:	c9                   	leave
    61a6:	c3                   	ret
    61a7:	90                   	nop

00000000000061a8 <_ZNSt10unique_ptrI14ExpressionNodeSt14default_deleteIS0_EE5resetEPS0_>:
    61a8:	f3 0f 1e fa          	endbr64
    61ac:	55                   	push   %rbp
    61ad:	48 89 e5             	mov    %rsp,%rbp
    61b0:	53                   	push   %rbx
    61b1:	48 83 ec 18          	sub    $0x18,%rsp
    61b5:	48 89 7d e8          	mov    %rdi,-0x18(%rbp)
    61b9:	48 89 75 e0          	mov    %rsi,-0x20(%rbp)
    61bd:	48 8b 5d e8          	mov    -0x18(%rbp),%rbx
    61c1:	48 8d 45 e0          	lea    -0x20(%rbp),%rax
    61c5:	48 89 c7             	mov    %rax,%rdi
    61c8:	e8 61 f7 ff ff       	call   592e <_ZSt4moveIRP14ExpressionNodeEONSt16remove_referenceIT_E4typeEOS4_>
    61cd:	48 8b 00             	mov    (%rax),%rax
    61d0:	48 89 c6             	mov    %rax,%rsi
    61d3:	48 89 df             	mov    %rbx,%rdi
    61d6:	e8 85 fd ff ff       	call   5f60 <_ZNSt15__uniq_ptr_implI14ExpressionNodeSt14default_deleteIS0_EE5resetEPS0_>
    61db:	90                   	nop
    61dc:	48 8b 5d f8          	mov    -0x8(%rbp),%rbx
    61e0:	c9                   	leave
    61e1:	c3                   	ret

00000000000061e2 <_ZNSt10unique_ptrI13OperationNodeSt14default_deleteIS0_EE7releaseEv>:
    61e2:	f3 0f 1e fa          	endbr64
    61e6:	55                   	push   %rbp
    61e7:	48 89 e5             	mov    %rsp,%rbp
    61ea:	48 83 ec 10          	sub    $0x10,%rsp
    61ee:	48 89 7d f8          	mov    %rdi,-0x8(%rbp)
    61f2:	48 8b 45 f8          	mov    -0x8(%rbp),%rax
    61f6:	48 89 c7             	mov    %rax,%rdi
    61f9:	e8 46 0f 00 00       	call   7144 <_ZNSt15__uniq_ptr_implI13OperationNodeSt14default_deleteIS0_EE7releaseEv>
    61fe:	c9                   	leave
    61ff:	c3                   	ret

0000000000006200 <_ZSt7forwardISt14default_deleteI13OperationNodeEEOT_RNSt16remove_referenceIS3_E4typeE>:
    6200:	f3 0f 1e fa          	endbr64
    6204:	55                   	push   %rbp
    6205:	48 89 e5             	mov    %rsp,%rbp
    6208:	48 89 7d f8          	mov    %rdi,-0x8(%rbp)
    620c:	48 8b 45 f8          	mov    -0x8(%rbp),%rax
    6210:	5d                   	pop    %rbp
    6211:	c3                   	ret

0000000000006212 <_ZNSt14default_deleteI14ExpressionNodeEC1I13OperationNodevEERKS_IT_E>:
    6212:	f3 0f 1e fa          	endbr64
    6216:	55                   	push   %rbp
    6217:	48 89 e5             	mov    %rsp,%rbp
    621a:	48 89 7d f8          	mov    %rdi,-0x8(%rbp)
    621e:	48 89 75 f0          	mov    %rsi,-0x10(%rbp)
    6222:	90                   	nop
    6223:	5d                   	pop    %rbp
    6224:	c3                   	ret
    6225:	90                   	nop

0000000000006226 <_ZNKSt8_Rb_treeIiiSt9_IdentityIiESt4lessIiESaIiEE4sizeEv>:
    6226:	f3 0f 1e fa          	endbr64
    622a:	55                   	push   %rbp
    622b:	48 89 e5             	mov    %rsp,%rbp
    622e:	48 89 7d f8          	mov    %rdi,-0x8(%rbp)
    6232:	48 8b 45 f8          	mov    -0x8(%rbp),%rax
    6236:	48 8b 40 28          	mov    0x28(%rax),%rax
    623a:	5d                   	pop    %rbp
    623b:	c3                   	ret

000000000000623c <_ZNSt15__uniq_ptr_dataI8CircuitoSt14default_deleteIS0_ELb1ELb1EECI1St15__uniq_ptr_implIS0_S2_EEPS0_>:
    623c:	f3 0f 1e fa          	endbr64
    6240:	55                   	push   %rbp
    6241:	48 89 e5             	mov    %rsp,%rbp
    6244:	48 83 ec 10          	sub    $0x10,%rsp
    6248:	48 89 7d f8          	mov    %rdi,-0x8(%rbp)
    624c:	48 89 75 f0          	mov    %rsi,-0x10(%rbp)
    6250:	48 8b 45 f8          	mov    -0x8(%rbp),%rax
    6254:	48 8b 55 f0          	mov    -0x10(%rbp),%rdx
    6258:	48 89 d6             	mov    %rdx,%rsi
    625b:	48 89 c7             	mov    %rax,%rdi
    625e:	e8 1d 0f 00 00       	call   7180 <_ZNSt15__uniq_ptr_implI8CircuitoSt14default_deleteIS0_EEC1EPS0_>
    6263:	90                   	nop
    6264:	c9                   	leave
    6265:	c3                   	ret

0000000000006266 <_ZNSt10unique_ptrI8CircuitoSt14default_deleteIS0_EEC1IS2_vEEPS0_>:
    6266:	f3 0f 1e fa          	endbr64
    626a:	55                   	push   %rbp
    626b:	48 89 e5             	mov    %rsp,%rbp
    626e:	48 83 ec 10          	sub    $0x10,%rsp
    6272:	48 89 7d f8          	mov    %rdi,-0x8(%rbp)
    6276:	48 89 75 f0          	mov    %rsi,-0x10(%rbp)
    627a:	48 8b 45 f8          	mov    -0x8(%rbp),%rax
    627e:	48 8b 55 f0          	mov    -0x10(%rbp),%rdx
    6282:	48 89 d6             	mov    %rdx,%rsi
    6285:	48 89 c7             	mov    %rax,%rdi
    6288:	e8 af ff ff ff       	call   623c <_ZNSt15__uniq_ptr_dataI8CircuitoSt14default_deleteIS0_ELb1ELb1EECI1St15__uniq_ptr_implIS0_S2_EEPS0_>
    628d:	90                   	nop
    628e:	c9                   	leave
    628f:	c3                   	ret

0000000000006290 <_ZNSt15__uniq_ptr_implI8CircuitoSt14default_deleteIS0_EE6_M_ptrEv>:
    6290:	f3 0f 1e fa          	endbr64
    6294:	55                   	push   %rbp
    6295:	48 89 e5             	mov    %rsp,%rbp
    6298:	48 83 ec 10          	sub    $0x10,%rsp
    629c:	48 89 7d f8          	mov    %rdi,-0x8(%rbp)
    62a0:	48 8b 45 f8          	mov    -0x8(%rbp),%rax
    62a4:	48 89 c7             	mov    %rax,%rdi
    62a7:	e8 0f 0f 00 00       	call   71bb <_ZSt3getILm0EJP8CircuitoSt14default_deleteIS0_EEERNSt13tuple_elementIXT_ESt5tupleIJDpT0_EEE4typeERS8_>
    62ac:	c9                   	leave
    62ad:	c3                   	ret

00000000000062ae <_ZNSt10unique_ptrI8CircuitoSt14default_deleteIS0_EE11get_deleterEv>:
    62ae:	f3 0f 1e fa          	endbr64
    62b2:	55                   	push   %rbp
    62b3:	48 89 e5             	mov    %rsp,%rbp
    62b6:	48 83 ec 10          	sub    $0x10,%rsp
    62ba:	48 89 7d f8          	mov    %rdi,-0x8(%rbp)
    62be:	48 8b 45 f8          	mov    -0x8(%rbp),%rax
    62c2:	48 89 c7             	mov    %rax,%rdi
    62c5:	e8 10 0f 00 00       	call   71da <_ZNSt15__uniq_ptr_implI8CircuitoSt14default_deleteIS0_EE10_M_deleterEv>
    62ca:	c9                   	leave
    62cb:	c3                   	ret

00000000000062cc <_ZSt4moveIRP8CircuitoEONSt16remove_referenceIT_E4typeEOS4_>:
    62cc:	f3 0f 1e fa          	endbr64
    62d0:	55                   	push   %rbp
    62d1:	48 89 e5             	mov    %rsp,%rbp
    62d4:	48 89 7d f8          	mov    %rdi,-0x8(%rbp)
    62d8:	48 8b 45 f8          	mov    -0x8(%rbp),%rax
    62dc:	5d                   	pop    %rbp
    62dd:	c3                   	ret

00000000000062de <_ZNKSt14default_deleteI8CircuitoEclEPS0_>:
    62de:	f3 0f 1e fa          	endbr64
    62e2:	55                   	push   %rbp
    62e3:	48 89 e5             	mov    %rsp,%rbp
    62e6:	53                   	push   %rbx
    62e7:	48 83 ec 18          	sub    $0x18,%rsp
    62eb:	48 89 7d e8          	mov    %rdi,-0x18(%rbp)
    62ef:	48 89 75 e0          	mov    %rsi,-0x20(%rbp)
    62f3:	48 8b 5d e0          	mov    -0x20(%rbp),%rbx
    62f7:	48 85 db             	test   %rbx,%rbx
    62fa:	74 15                	je     6311 <_ZNKSt14default_deleteI8CircuitoEclEPS0_+0x33>
    62fc:	48 89 df             	mov    %rbx,%rdi
    62ff:	e8 fc d4 ff ff       	call   3800 <_ZN8CircuitoD1Ev>
    6304:	be 20 00 00 00       	mov    $0x20,%esi
    6309:	48 89 df             	mov    %rbx,%rdi
    630c:	e8 df bf ff ff       	call   22f0 <_ZdlPvm@plt>
    6311:	90                   	nop
    6312:	48 8b 5d f8          	mov    -0x8(%rbp),%rbx
    6316:	c9                   	leave
    6317:	c3                   	ret

0000000000006318 <_ZNKSt8_Rb_treeI6bipoloS0_St9_IdentityIS0_ESt4lessIS0_ESaIS0_EE5beginEv>:
    6318:	f3 0f 1e fa          	endbr64
    631c:	55                   	push   %rbp
    631d:	48 89 e5             	mov    %rsp,%rbp
    6320:	48 83 ec 20          	sub    $0x20,%rsp
    6324:	48 89 7d e8          	mov    %rdi,-0x18(%rbp)
    6328:	64 48 8b 04 25 28 00 	mov    %fs:0x28,%rax
    632f:	00 00 
    6331:	48 89 45 f8          	mov    %rax,-0x8(%rbp)
    6335:	31 c0                	xor    %eax,%eax
    6337:	48 8b 45 e8          	mov    -0x18(%rbp),%rax
    633b:	48 8b 50 18          	mov    0x18(%rax),%rdx
    633f:	48 8d 45 f0          	lea    -0x10(%rbp),%rax
    6343:	48 89 d6             	mov    %rdx,%rsi
    6346:	48 89 c7             	mov    %rax,%rdi
    6349:	e8 aa 0e 00 00       	call   71f8 <_ZNSt23_Rb_tree_const_iteratorI6bipoloEC1EPKSt18_Rb_tree_node_base>
    634e:	48 8b 45 f0          	mov    -0x10(%rbp),%rax
    6352:	48 8b 55 f8          	mov    -0x8(%rbp),%rdx
    6356:	64 48 2b 14 25 28 00 	sub    %fs:0x28,%rdx
    635d:	00 00 
    635f:	74 05                	je     6366 <_ZNKSt8_Rb_treeI6bipoloS0_St9_IdentityIS0_ESt4lessIS0_ESaIS0_EE5beginEv+0x4e>
    6361:	e8 ca bf ff ff       	call   2330 <__stack_chk_fail@plt>
    6366:	c9                   	leave
    6367:	c3                   	ret

0000000000006368 <_ZNKSt8_Rb_treeI6bipoloS0_St9_IdentityIS0_ESt4lessIS0_ESaIS0_EE3endEv>:
    6368:	f3 0f 1e fa          	endbr64
    636c:	55                   	push   %rbp
    636d:	48 89 e5             	mov    %rsp,%rbp
    6370:	48 83 ec 20          	sub    $0x20,%rsp
    6374:	48 89 7d e8          	mov    %rdi,-0x18(%rbp)
    6378:	64 48 8b 04 25 28 00 	mov    %fs:0x28,%rax
    637f:	00 00 
    6381:	48 89 45 f8          	mov    %rax,-0x8(%rbp)
    6385:	31 c0                	xor    %eax,%eax
    6387:	48 8b 45 e8          	mov    -0x18(%rbp),%rax
    638b:	48 8d 50 08          	lea    0x8(%rax),%rdx
    638f:	48 8d 45 f0          	lea    -0x10(%rbp),%rax
    6393:	48 89 d6             	mov    %rdx,%rsi
    6396:	48 89 c7             	mov    %rax,%rdi
    6399:	e8 5a 0e 00 00       	call   71f8 <_ZNSt23_Rb_tree_const_iteratorI6bipoloEC1EPKSt18_Rb_tree_node_base>
    639e:	48 8b 45 f0          	mov    -0x10(%rbp),%rax
    63a2:	48 8b 55 f8          	mov    -0x8(%rbp),%rdx
    63a6:	64 48 2b 14 25 28 00 	sub    %fs:0x28,%rdx
    63ad:	00 00 
    63af:	74 05                	je     63b6 <_ZNKSt8_Rb_treeI6bipoloS0_St9_IdentityIS0_ESt4lessIS0_ESaIS0_EE3endEv+0x4e>
    63b1:	e8 7a bf ff ff       	call   2330 <__stack_chk_fail@plt>
    63b6:	c9                   	leave
    63b7:	c3                   	ret

00000000000063b8 <_ZNKSt13_Rb_tree_nodeI6bipoloE9_M_valptrEv>:
    63b8:	f3 0f 1e fa          	endbr64
    63bc:	55                   	push   %rbp
    63bd:	48 89 e5             	mov    %rsp,%rbp
    63c0:	48 83 ec 10          	sub    $0x10,%rsp
    63c4:	48 89 7d f8          	mov    %rdi,-0x8(%rbp)
    63c8:	48 8b 45 f8          	mov    -0x8(%rbp),%rax
    63cc:	48 83 c0 20          	add    $0x20,%rax
    63d0:	48 89 c7             	mov    %rax,%rdi
    63d3:	e8 3e 0e 00 00       	call   7216 <_ZNK9__gnu_cxx16__aligned_membufI6bipoloE6_M_ptrEv>
    63d8:	c9                   	leave
    63d9:	c3                   	ret

00000000000063da <_ZNKSt10unique_ptrI8CircuitoSt14default_deleteIS0_EE3getEv>:
    63da:	f3 0f 1e fa          	endbr64
    63de:	55                   	push   %rbp
    63df:	48 89 e5             	mov    %rsp,%rbp
    63e2:	48 83 ec 10          	sub    $0x10,%rsp
    63e6:	48 89 7d f8          	mov    %rdi,-0x8(%rbp)
    63ea:	48 8b 45 f8          	mov    -0x8(%rbp),%rax
    63ee:	48 89 c7             	mov    %rax,%rdi
    63f1:	e8 3e 0e 00 00       	call   7234 <_ZNKSt15__uniq_ptr_implI8CircuitoSt14default_deleteIS0_EE6_M_ptrEv>
    63f6:	c9                   	leave
    63f7:	c3                   	ret

00000000000063f8 <_ZSt7forwardISt10unique_ptrI8CircuitoSt14default_deleteIS1_EEEOT_RNSt16remove_referenceIS5_E4typeE>:
    63f8:	f3 0f 1e fa          	endbr64
    63fc:	55                   	push   %rbp
    63fd:	48 89 e5             	mov    %rsp,%rbp
    6400:	48 89 7d f8          	mov    %rdi,-0x8(%rbp)
    6404:	48 8b 45 f8          	mov    -0x8(%rbp),%rax
    6408:	5d                   	pop    %rbp
    6409:	c3                   	ret

000000000000640a <_ZNSt15__uniq_ptr_dataI8CircuitoSt14default_deleteIS0_ELb1ELb1EEC1EOS3_>:
    640a:	f3 0f 1e fa          	endbr64
    640e:	55                   	push   %rbp
    640f:	48 89 e5             	mov    %rsp,%rbp
    6412:	48 83 ec 10          	sub    $0x10,%rsp
    6416:	48 89 7d f8          	mov    %rdi,-0x8(%rbp)
    641a:	48 89 75 f0          	mov    %rsi,-0x10(%rbp)
    641e:	48 8b 45 f8          	mov    -0x8(%rbp),%rax
    6422:	48 8b 55 f0          	mov    -0x10(%rbp),%rdx
    6426:	48 89 d6             	mov    %rdx,%rsi
    6429:	48 89 c7             	mov    %rax,%rdi
    642c:	e8 87 0e 00 00       	call   72b8 <_ZNSt15__uniq_ptr_implI8CircuitoSt14default_deleteIS0_EEC1EOS3_>
    6431:	90                   	nop
    6432:	c9                   	leave
    6433:	c3                   	ret

0000000000006434 <_ZNSt10unique_ptrI8CircuitoSt14default_deleteIS0_EEC1EOS3_>:
    6434:	f3 0f 1e fa          	endbr64
    6438:	55                   	push   %rbp
    6439:	48 89 e5             	mov    %rsp,%rbp
    643c:	48 83 ec 10          	sub    $0x10,%rsp
    6440:	48 89 7d f8          	mov    %rdi,-0x8(%rbp)
    6444:	48 89 75 f0          	mov    %rsi,-0x10(%rbp)
    6448:	48 8b 45 f8          	mov    -0x8(%rbp),%rax
    644c:	48 8b 55 f0          	mov    -0x10(%rbp),%rdx
    6450:	48 89 d6             	mov    %rdx,%rsi
    6453:	48 89 c7             	mov    %rax,%rdi
    6456:	e8 af ff ff ff       	call   640a <_ZNSt15__uniq_ptr_dataI8CircuitoSt14default_deleteIS0_ELb1ELb1EEC1EOS3_>
    645b:	90                   	nop
    645c:	c9                   	leave
    645d:	c3                   	ret

000000000000645e <_ZNSt4pairISt10unique_ptrI14ExpressionNodeSt14default_deleteIS1_EES0_I8CircuitoS2_IS5_EEEC1IS4_S7_Lb1EEEOT_OT0_>:
    645e:	f3 0f 1e fa          	endbr64
    6462:	55                   	push   %rbp
    6463:	48 89 e5             	mov    %rsp,%rbp
    6466:	53                   	push   %rbx
    6467:	48 83 ec 28          	sub    $0x28,%rsp
    646b:	48 89 7d e8          	mov    %rdi,-0x18(%rbp)
    646f:	48 89 75 e0          	mov    %rsi,-0x20(%rbp)
    6473:	48 89 55 d8          	mov    %rdx,-0x28(%rbp)
    6477:	48 8b 5d e8          	mov    -0x18(%rbp),%rbx
    647b:	48 8b 45 e0          	mov    -0x20(%rbp),%rax
    647f:	48 89 c7             	mov    %rax,%rdi
    6482:	e8 ad fb ff ff       	call   6034 <_ZSt7forwardISt10unique_ptrI14ExpressionNodeSt14default_deleteIS1_EEEOT_RNSt16remove_referenceIS5_E4typeE>
    6487:	48 89 c6             	mov    %rax,%rsi
    648a:	48 89 df             	mov    %rbx,%rdi
    648d:	e8 9c cf ff ff       	call   342e <_ZNSt10unique_ptrI14ExpressionNodeSt14default_deleteIS0_EEC1EOS3_>
    6492:	48 8b 45 e8          	mov    -0x18(%rbp),%rax
    6496:	48 8d 58 08          	lea    0x8(%rax),%rbx
    649a:	48 8b 45 d8          	mov    -0x28(%rbp),%rax
    649e:	48 89 c7             	mov    %rax,%rdi
    64a1:	e8 52 ff ff ff       	call   63f8 <_ZSt7forwardISt10unique_ptrI8CircuitoSt14default_deleteIS1_EEEOT_RNSt16remove_referenceIS5_E4typeE>
    64a6:	48 89 c6             	mov    %rax,%rsi
    64a9:	48 89 df             	mov    %rbx,%rdi
    64ac:	e8 83 ff ff ff       	call   6434 <_ZNSt10unique_ptrI8CircuitoSt14default_deleteIS0_EEC1EOS3_>
    64b1:	90                   	nop
    64b2:	48 8b 5d f8          	mov    -0x8(%rbp),%rbx
    64b6:	c9                   	leave
    64b7:	c3                   	ret

00000000000064b8 <_ZSt8_DestroyIP6bipoloEvT_S2_>:
    64b8:	f3 0f 1e fa          	endbr64
    64bc:	55                   	push   %rbp
    64bd:	48 89 e5             	mov    %rsp,%rbp
    64c0:	48 83 ec 10          	sub    $0x10,%rsp
    64c4:	48 89 7d f8          	mov    %rdi,-0x8(%rbp)
    64c8:	48 89 75 f0          	mov    %rsi,-0x10(%rbp)
    64cc:	48 8b 55 f0          	mov    -0x10(%rbp),%rdx
    64d0:	48 8b 45 f8          	mov    -0x8(%rbp),%rax
    64d4:	48 89 d6             	mov    %rdx,%rsi
    64d7:	48 89 c7             	mov    %rax,%rdi
    64da:	e8 61 0e 00 00       	call   7340 <_ZNSt12_Destroy_auxILb0EE9__destroyIP6bipoloEEvT_S4_>
    64df:	90                   	nop
    64e0:	c9                   	leave
    64e1:	c3                   	ret

00000000000064e2 <_ZNKSt6vectorI6bipoloSaIS0_EE12_M_check_lenEmPKc>:
    64e2:	f3 0f 1e fa          	endbr64
    64e6:	55                   	push   %rbp
    64e7:	48 89 e5             	mov    %rsp,%rbp
    64ea:	53                   	push   %rbx
    64eb:	48 83 ec 48          	sub    $0x48,%rsp
    64ef:	48 89 7d c8          	mov    %rdi,-0x38(%rbp)
    64f3:	48 89 75 c0          	mov    %rsi,-0x40(%rbp)
    64f7:	48 89 55 b8          	mov    %rdx,-0x48(%rbp)
    64fb:	64 48 8b 04 25 28 00 	mov    %fs:0x28,%rax
    6502:	00 00 
    6504:	48 89 45 e8          	mov    %rax,-0x18(%rbp)
    6508:	31 c0                	xor    %eax,%eax
    650a:	48 8b 45 c8          	mov    -0x38(%rbp),%rax
    650e:	48 89 c7             	mov    %rax,%rdi
    6511:	e8 68 0e 00 00       	call   737e <_ZNKSt6vectorI6bipoloSaIS0_EE8max_sizeEv>
    6516:	48 89 c3             	mov    %rax,%rbx
    6519:	48 8b 45 c8          	mov    -0x38(%rbp),%rax
    651d:	48 89 c7             	mov    %rax,%rdi
    6520:	e8 7f 0e 00 00       	call   73a4 <_ZNKSt6vectorI6bipoloSaIS0_EE4sizeEv>
    6525:	48 29 c3             	sub    %rax,%rbx
    6528:	48 89 da             	mov    %rbx,%rdx
    652b:	48 8b 45 c0          	mov    -0x40(%rbp),%rax
    652f:	48 39 c2             	cmp    %rax,%rdx
    6532:	0f 92 c0             	setb   %al
    6535:	84 c0                	test   %al,%al
    6537:	74 20                	je     6559 <_ZNKSt6vectorI6bipoloSaIS0_EE12_M_check_lenEmPKc+0x77>
    6539:	48 8b 45 e8          	mov    -0x18(%rbp),%rax
    653d:	64 48 2b 04 25 28 00 	sub    %fs:0x28,%rax
    6544:	00 00 
    6546:	74 05                	je     654d <_ZNKSt6vectorI6bipoloSaIS0_EE12_M_check_lenEmPKc+0x6b>
    6548:	e8 e3 bd ff ff       	call   2330 <__stack_chk_fail@plt>
    654d:	48 8b 45 b8          	mov    -0x48(%rbp),%rax
    6551:	48 89 c7             	mov    %rax,%rdi
    6554:	e8 07 bd ff ff       	call   2260 <_ZSt20__throw_length_errorPKc@plt>
    6559:	48 8b 45 c8          	mov    -0x38(%rbp),%rax
    655d:	48 89 c7             	mov    %rax,%rdi
    6560:	e8 3f 0e 00 00       	call   73a4 <_ZNKSt6vectorI6bipoloSaIS0_EE4sizeEv>
    6565:	48 89 c3             	mov    %rax,%rbx
    6568:	48 8b 45 c8          	mov    -0x38(%rbp),%rax
    656c:	48 89 c7             	mov    %rax,%rdi
    656f:	e8 30 0e 00 00       	call   73a4 <_ZNKSt6vectorI6bipoloSaIS0_EE4sizeEv>
    6574:	48 89 45 d8          	mov    %rax,-0x28(%rbp)
    6578:	48 8d 55 c0          	lea    -0x40(%rbp),%rdx
    657c:	48 8d 45 d8          	lea    -0x28(%rbp),%rax
    6580:	48 89 d6             	mov    %rdx,%rsi
    6583:	48 89 c7             	mov    %rax,%rdi
    6586:	e8 05 d7 ff ff       	call   3c90 <_ZSt3maxImERKT_S2_S2_>
    658b:	48 8b 00             	mov    (%rax),%rax
    658e:	48 01 d8             	add    %rbx,%rax
    6591:	48 89 45 e0          	mov    %rax,-0x20(%rbp)
    6595:	48 8b 45 c8          	mov    -0x38(%rbp),%rax
    6599:	48 89 c7             	mov    %rax,%rdi
    659c:	e8 03 0e 00 00       	call   73a4 <_ZNKSt6vectorI6bipoloSaIS0_EE4sizeEv>
    65a1:	48 39 45 e0          	cmp    %rax,-0x20(%rbp)
    65a5:	72 12                	jb     65b9 <_ZNKSt6vectorI6bipoloSaIS0_EE12_M_check_lenEmPKc+0xd7>
    65a7:	48 8b 45 c8          	mov    -0x38(%rbp),%rax
    65ab:	48 89 c7             	mov    %rax,%rdi
    65ae:	e8 cb 0d 00 00       	call   737e <_ZNKSt6vectorI6bipoloSaIS0_EE8max_sizeEv>
    65b3:	48 3b 45 e0          	cmp    -0x20(%rbp),%rax
    65b7:	73 0e                	jae    65c7 <_ZNKSt6vectorI6bipoloSaIS0_EE12_M_check_lenEmPKc+0xe5>
    65b9:	48 8b 45 c8          	mov    -0x38(%rbp),%rax
    65bd:	48 89 c7             	mov    %rax,%rdi
    65c0:	e8 b9 0d 00 00       	call   737e <_ZNKSt6vectorI6bipoloSaIS0_EE8max_sizeEv>
    65c5:	eb 04                	jmp    65cb <_ZNKSt6vectorI6bipoloSaIS0_EE12_M_check_lenEmPKc+0xe9>
    65c7:	48 8b 45 e0          	mov    -0x20(%rbp),%rax
    65cb:	48 8b 55 e8          	mov    -0x18(%rbp),%rdx
    65cf:	64 48 2b 14 25 28 00 	sub    %fs:0x28,%rdx
    65d6:	00 00 
    65d8:	74 05                	je     65df <_ZNKSt6vectorI6bipoloSaIS0_EE12_M_check_lenEmPKc+0xfd>
    65da:	e8 51 bd ff ff       	call   2330 <__stack_chk_fail@plt>
    65df:	48 8b 5d f8          	mov    -0x8(%rbp),%rbx
    65e3:	c9                   	leave
    65e4:	c3                   	ret

00000000000065e5 <_ZN9__gnu_cxxmiIP6bipoloSt6vectorIS1_SaIS1_EEEENS_17__normal_iteratorIT_T0_E15difference_typeERKS9_SC_>:
    65e5:	f3 0f 1e fa          	endbr64
    65e9:	55                   	push   %rbp
    65ea:	48 89 e5             	mov    %rsp,%rbp
    65ed:	53                   	push   %rbx
    65ee:	48 83 ec 18          	sub    $0x18,%rsp
    65f2:	48 89 7d e8          	mov    %rdi,-0x18(%rbp)
    65f6:	48 89 75 e0          	mov    %rsi,-0x20(%rbp)
    65fa:	48 8b 45 e8          	mov    -0x18(%rbp),%rax
    65fe:	48 89 c7             	mov    %rax,%rdi
    6601:	e8 8c f2 ff ff       	call   5892 <_ZNK9__gnu_cxx17__normal_iteratorIP6bipoloSt6vectorIS1_SaIS1_EEE4baseEv>
    6606:	48 8b 18             	mov    (%rax),%rbx
    6609:	48 8b 45 e0          	mov    -0x20(%rbp),%rax
    660d:	48 89 c7             	mov    %rax,%rdi
    6610:	e8 7d f2 ff ff       	call   5892 <_ZNK9__gnu_cxx17__normal_iteratorIP6bipoloSt6vectorIS1_SaIS1_EEE4baseEv>
    6615:	48 8b 00             	mov    (%rax),%rax
    6618:	48 29 c3             	sub    %rax,%rbx
    661b:	48 89 da             	mov    %rbx,%rdx
    661e:	48 c1 fa 03          	sar    $0x3,%rdx
    6622:	48 b8 b7 6d db b6 6d 	movabs $0x6db6db6db6db6db7,%rax
    6629:	db b6 6d 
    662c:	48 0f af c2          	imul   %rdx,%rax
    6630:	48 8b 5d f8          	mov    -0x8(%rbp),%rbx
    6634:	c9                   	leave
    6635:	c3                   	ret

0000000000006636 <_ZNSt12_Vector_baseI6bipoloSaIS0_EE11_M_allocateEm>:
    6636:	f3 0f 1e fa          	endbr64
    663a:	55                   	push   %rbp
    663b:	48 89 e5             	mov    %rsp,%rbp
    663e:	48 83 ec 20          	sub    $0x20,%rsp
    6642:	48 89 7d e8          	mov    %rdi,-0x18(%rbp)
    6646:	48 89 75 e0          	mov    %rsi,-0x20(%rbp)
    664a:	48 83 7d e0 00       	cmpq   $0x0,-0x20(%rbp)
    664f:	74 2b                	je     667c <_ZNSt12_Vector_baseI6bipoloSaIS0_EE11_M_allocateEm+0x46>
    6651:	48 8b 45 e8          	mov    -0x18(%rbp),%rax
    6655:	48 89 45 f0          	mov    %rax,-0x10(%rbp)
    6659:	48 8b 45 e0          	mov    -0x20(%rbp),%rax
    665d:	48 89 45 f8          	mov    %rax,-0x8(%rbp)
    6661:	48 8b 4d f8          	mov    -0x8(%rbp),%rcx
    6665:	48 8b 45 f0          	mov    -0x10(%rbp),%rax
    6669:	ba 00 00 00 00       	mov    $0x0,%edx
    666e:	48 89 ce             	mov    %rcx,%rsi
    6671:	48 89 c7             	mov    %rax,%rdi
    6674:	e8 e7 15 00 00       	call   7c60 <_ZNSt15__new_allocatorI6bipoloE8allocateEmPKv>
    6679:	90                   	nop
    667a:	eb 05                	jmp    6681 <_ZNSt12_Vector_baseI6bipoloSaIS0_EE11_M_allocateEm+0x4b>
    667c:	b8 00 00 00 00       	mov    $0x0,%eax
    6681:	c9                   	leave
    6682:	c3                   	ret

0000000000006683 <_ZNSt6vectorI6bipoloSaIS0_EE11_S_relocateEPS0_S3_S3_RS1_>:
    6683:	f3 0f 1e fa          	endbr64
    6687:	55                   	push   %rbp
    6688:	48 89 e5             	mov    %rsp,%rbp
    668b:	48 83 ec 20          	sub    $0x20,%rsp
    668f:	48 89 7d f8          	mov    %rdi,-0x8(%rbp)
    6693:	48 89 75 f0          	mov    %rsi,-0x10(%rbp)
    6697:	48 89 55 e8          	mov    %rdx,-0x18(%rbp)
    669b:	48 89 4d e0          	mov    %rcx,-0x20(%rbp)
    669f:	48 8b 4d e0          	mov    -0x20(%rbp),%rcx
    66a3:	48 8b 55 e8          	mov    -0x18(%rbp),%rdx
    66a7:	48 8b 75 f0          	mov    -0x10(%rbp),%rsi
    66ab:	48 8b 45 f8          	mov    -0x8(%rbp),%rax
    66af:	48 89 c7             	mov    %rax,%rdi
    66b2:	e8 1f 0d 00 00       	call   73d6 <_ZSt12__relocate_aIP6bipoloS1_SaIS0_EET0_T_S4_S3_RT1_>
    66b7:	c9                   	leave
    66b8:	c3                   	ret
    66b9:	90                   	nop

00000000000066ba <_ZNK9__gnu_cxx17__normal_iteratorIP6bipoloSt6vectorIS1_SaIS1_EEEmiEl>:
    66ba:	f3 0f 1e fa          	endbr64
    66be:	55                   	push   %rbp
    66bf:	48 89 e5             	mov    %rsp,%rbp
    66c2:	48 83 ec 30          	sub    $0x30,%rsp
    66c6:	48 89 7d d8          	mov    %rdi,-0x28(%rbp)
    66ca:	48 89 75 d0          	mov    %rsi,-0x30(%rbp)
    66ce:	64 48 8b 04 25 28 00 	mov    %fs:0x28,%rax
    66d5:	00 00 
    66d7:	48 89 45 f8          	mov    %rax,-0x8(%rbp)
    66db:	31 c0                	xor    %eax,%eax
    66dd:	48 8b 45 d8          	mov    -0x28(%rbp),%rax
    66e1:	48 8b 08             	mov    (%rax),%rcx
    66e4:	48 8b 55 d0          	mov    -0x30(%rbp),%rdx
    66e8:	48 89 d0             	mov    %rdx,%rax
    66eb:	48 c1 e0 03          	shl    $0x3,%rax
    66ef:	48 29 d0             	sub    %rdx,%rax
    66f2:	48 c1 e0 03          	shl    $0x3,%rax
    66f6:	48 f7 d8             	neg    %rax
    66f9:	48 01 c8             	add    %rcx,%rax
    66fc:	48 89 45 e8          	mov    %rax,-0x18(%rbp)
    6700:	48 8d 55 e8          	lea    -0x18(%rbp),%rdx
    6704:	48 8d 45 f0          	lea    -0x10(%rbp),%rax
    6708:	48 89 d6             	mov    %rdx,%rsi
    670b:	48 89 c7             	mov    %rax,%rdi
    670e:	e8 5d f1 ff ff       	call   5870 <_ZN9__gnu_cxx17__normal_iteratorIP6bipoloSt6vectorIS1_SaIS1_EEEC1ERKS2_>
    6713:	48 8b 45 f0          	mov    -0x10(%rbp),%rax
    6717:	48 8b 55 f8          	mov    -0x8(%rbp),%rdx
    671b:	64 48 2b 14 25 28 00 	sub    %fs:0x28,%rdx
    6722:	00 00 
    6724:	74 05                	je     672b <_ZNK9__gnu_cxx17__normal_iteratorIP6bipoloSt6vectorIS1_SaIS1_EEEmiEl+0x71>
    6726:	e8 05 bc ff ff       	call   2330 <__stack_chk_fail@plt>
    672b:	c9                   	leave
    672c:	c3                   	ret

000000000000672d <_ZSt3getILm0EJP14ExpressionNodeSt14default_deleteIS0_EEERNSt13tuple_elementIXT_ESt5tupleIJDpT0_EEE4typeERS8_>:
    672d:	f3 0f 1e fa          	endbr64
    6731:	55                   	push   %rbp
    6732:	48 89 e5             	mov    %rsp,%rbp
    6735:	48 83 ec 10          	sub    $0x10,%rsp
    6739:	48 89 7d f8          	mov    %rdi,-0x8(%rbp)
    673d:	48 8b 45 f8          	mov    -0x8(%rbp),%rax
    6741:	48 89 c7             	mov    %rax,%rdi
    6744:	e8 29 0d 00 00       	call   7472 <_ZSt12__get_helperILm0EP14ExpressionNodeJSt14default_deleteIS0_EEERT0_RSt11_Tuple_implIXT_EJS4_DpT1_EE>
    6749:	c9                   	leave
    674a:	c3                   	ret
    674b:	90                   	nop

000000000000674c <_ZNKSt15__uniq_ptr_implI14ExpressionNodeSt14default_deleteIS0_EE6_M_ptrEv>:
    674c:	f3 0f 1e fa          	endbr64
    6750:	55                   	push   %rbp
    6751:	48 89 e5             	mov    %rsp,%rbp
    6754:	48 83 ec 10          	sub    $0x10,%rsp
    6758:	48 89 7d f8          	mov    %rdi,-0x8(%rbp)
    675c:	48 8b 45 f8          	mov    -0x8(%rbp),%rax
    6760:	48 89 c7             	mov    %rax,%rdi
    6763:	e8 28 0d 00 00       	call   7490 <_ZSt3getILm0EJP14ExpressionNodeSt14default_deleteIS0_EEERKNSt13tuple_elementIXT_ESt5tupleIJDpT0_EEE4typeERKS8_>
    6768:	48 8b 00             	mov    (%rax),%rax
    676b:	c9                   	leave
    676c:	c3                   	ret

000000000000676d <_ZNSt8_Rb_treeI6bipoloS0_St9_IdentityIS0_ESt4lessIS0_ESaIS0_EE8_S_rightEPSt18_Rb_tree_node_base>:
    676d:	f3 0f 1e fa          	endbr64
    6771:	55                   	push   %rbp
    6772:	48 89 e5             	mov    %rsp,%rbp
    6775:	48 89 7d f8          	mov    %rdi,-0x8(%rbp)
    6779:	48 8b 45 f8          	mov    -0x8(%rbp),%rax
    677d:	48 8b 40 18          	mov    0x18(%rax),%rax
    6781:	5d                   	pop    %rbp
    6782:	c3                   	ret

0000000000006783 <_ZNSt8_Rb_treeI6bipoloS0_St9_IdentityIS0_ESt4lessIS0_ESaIS0_EE7_S_leftEPSt18_Rb_tree_node_base>:
    6783:	f3 0f 1e fa          	endbr64
    6787:	55                   	push   %rbp
    6788:	48 89 e5             	mov    %rsp,%rbp
    678b:	48 89 7d f8          	mov    %rdi,-0x8(%rbp)
    678f:	48 8b 45 f8          	mov    -0x8(%rbp),%rax
    6793:	48 8b 40 10          	mov    0x10(%rax),%rax
    6797:	5d                   	pop    %rbp
    6798:	c3                   	ret
    6799:	90                   	nop

000000000000679a <_ZNSt8_Rb_treeI6bipoloS0_St9_IdentityIS0_ESt4lessIS0_ESaIS0_EE12_M_drop_nodeEPSt13_Rb_tree_nodeIS0_E>:
    679a:	f3 0f 1e fa          	endbr64
    679e:	55                   	push   %rbp
    679f:	48 89 e5             	mov    %rsp,%rbp
    67a2:	48 83 ec 10          	sub    $0x10,%rsp
    67a6:	48 89 7d f8          	mov    %rdi,-0x8(%rbp)
    67aa:	48 89 75 f0          	mov    %rsi,-0x10(%rbp)
    67ae:	48 8b 55 f0          	mov    -0x10(%rbp),%rdx
    67b2:	48 8b 45 f8          	mov    -0x8(%rbp),%rax
    67b6:	48 89 d6             	mov    %rdx,%rsi
    67b9:	48 89 c7             	mov    %rax,%rdi
    67bc:	e8 ed 0c 00 00       	call   74ae <_ZNSt8_Rb_treeI6bipoloS0_St9_IdentityIS0_ESt4lessIS0_ESaIS0_EE15_M_destroy_nodeEPSt13_Rb_tree_nodeIS0_E>
    67c1:	48 8b 55 f0          	mov    -0x10(%rbp),%rdx
    67c5:	48 8b 45 f8          	mov    -0x8(%rbp),%rax
    67c9:	48 89 d6             	mov    %rdx,%rsi
    67cc:	48 89 c7             	mov    %rax,%rdi
    67cf:	e8 38 0d 00 00       	call   750c <_ZNSt8_Rb_treeI6bipoloS0_St9_IdentityIS0_ESt4lessIS0_ESaIS0_EE11_M_put_nodeEPSt13_Rb_tree_nodeIS0_E>
    67d4:	90                   	nop
    67d5:	c9                   	leave
    67d6:	c3                   	ret
    67d7:	90                   	nop

00000000000067d8 <_ZNKSt8_Rb_treeI6bipoloS0_St9_IdentityIS0_ESt4lessIS0_ESaIS0_EE9_M_mbeginEv>:
    67d8:	f3 0f 1e fa          	endbr64
    67dc:	55                   	push   %rbp
    67dd:	48 89 e5             	mov    %rsp,%rbp
    67e0:	48 89 7d f8          	mov    %rdi,-0x8(%rbp)
    67e4:	48 8b 45 f8          	mov    -0x8(%rbp),%rax
    67e8:	48 8b 40 10          	mov    0x10(%rax),%rax
    67ec:	5d                   	pop    %rbp
    67ed:	c3                   	ret

00000000000067ee <_ZNSt8_Rb_treeIiiSt9_IdentityIiESt4lessIiESaIiEE8_S_rightEPSt18_Rb_tree_node_base>:
    67ee:	f3 0f 1e fa          	endbr64
    67f2:	55                   	push   %rbp
    67f3:	48 89 e5             	mov    %rsp,%rbp
    67f6:	48 89 7d f8          	mov    %rdi,-0x8(%rbp)
    67fa:	48 8b 45 f8          	mov    -0x8(%rbp),%rax
    67fe:	48 8b 40 18          	mov    0x18(%rax),%rax
    6802:	5d                   	pop    %rbp
    6803:	c3                   	ret

0000000000006804 <_ZNSt8_Rb_treeIiiSt9_IdentityIiESt4lessIiESaIiEE7_S_leftEPSt18_Rb_tree_node_base>:
    6804:	f3 0f 1e fa          	endbr64
    6808:	55                   	push   %rbp
    6809:	48 89 e5             	mov    %rsp,%rbp
    680c:	48 89 7d f8          	mov    %rdi,-0x8(%rbp)
    6810:	48 8b 45 f8          	mov    -0x8(%rbp),%rax
    6814:	48 8b 40 10          	mov    0x10(%rax),%rax
    6818:	5d                   	pop    %rbp
    6819:	c3                   	ret

000000000000681a <_ZNSt8_Rb_treeIiiSt9_IdentityIiESt4lessIiESaIiEE12_M_drop_nodeEPSt13_Rb_tree_nodeIiE>:
    681a:	f3 0f 1e fa          	endbr64
    681e:	55                   	push   %rbp
    681f:	48 89 e5             	mov    %rsp,%rbp
    6822:	48 83 ec 10          	sub    $0x10,%rsp
    6826:	48 89 7d f8          	mov    %rdi,-0x8(%rbp)
    682a:	48 89 75 f0          	mov    %rsi,-0x10(%rbp)
    682e:	48 8b 55 f0          	mov    -0x10(%rbp),%rdx
    6832:	48 8b 45 f8          	mov    -0x8(%rbp),%rax
    6836:	48 89 d6             	mov    %rdx,%rsi
    6839:	48 89 c7             	mov    %rax,%rdi
    683c:	e8 1b 0d 00 00       	call   755c <_ZNSt8_Rb_treeIiiSt9_IdentityIiESt4lessIiESaIiEE15_M_destroy_nodeEPSt13_Rb_tree_nodeIiE>
    6841:	48 8b 55 f0          	mov    -0x10(%rbp),%rdx
    6845:	48 8b 45 f8          	mov    -0x8(%rbp),%rax
    6849:	48 89 d6             	mov    %rdx,%rsi
    684c:	48 89 c7             	mov    %rax,%rdi
    684f:	e8 5a 0d 00 00       	call   75ae <_ZNSt8_Rb_treeIiiSt9_IdentityIiESt4lessIiESaIiEE11_M_put_nodeEPSt13_Rb_tree_nodeIiE>
    6854:	90                   	nop
    6855:	c9                   	leave
    6856:	c3                   	ret
    6857:	90                   	nop

0000000000006858 <_ZNKSt8_Rb_treeIiiSt9_IdentityIiESt4lessIiESaIiEE9_M_mbeginEv>:
    6858:	f3 0f 1e fa          	endbr64
    685c:	55                   	push   %rbp
    685d:	48 89 e5             	mov    %rsp,%rbp
    6860:	48 89 7d f8          	mov    %rdi,-0x8(%rbp)
    6864:	48 8b 45 f8          	mov    -0x8(%rbp),%rax
    6868:	48 8b 40 10          	mov    0x10(%rax),%rax
    686c:	5d                   	pop    %rbp
    686d:	c3                   	ret

000000000000686e <_ZNSt8_Rb_treeIiiSt9_IdentityIiESt4lessIiESaIiEE24_M_get_insert_unique_posERKi>:
    686e:	f3 0f 1e fa          	endbr64
    6872:	55                   	push   %rbp
    6873:	48 89 e5             	mov    %rsp,%rbp
    6876:	53                   	push   %rbx
    6877:	48 83 ec 68          	sub    $0x68,%rsp
    687b:	48 89 7d 98          	mov    %rdi,-0x68(%rbp)
    687f:	48 89 75 90          	mov    %rsi,-0x70(%rbp)
    6883:	64 48 8b 04 25 28 00 	mov    %fs:0x28,%rax
    688a:	00 00 
    688c:	48 89 45 e8          	mov    %rax,-0x18(%rbp)
    6890:	31 c0                	xor    %eax,%eax
    6892:	48 8b 45 98          	mov    -0x68(%rbp),%rax
    6896:	48 89 c7             	mov    %rax,%rdi
    6899:	e8 12 f2 ff ff       	call   5ab0 <_ZNSt8_Rb_treeIiiSt9_IdentityIiESt4lessIiESaIiEE8_M_beginEv>
    689e:	48 89 45 b0          	mov    %rax,-0x50(%rbp)
    68a2:	48 8b 45 98          	mov    -0x68(%rbp),%rax
    68a6:	48 89 c7             	mov    %rax,%rdi
    68a9:	e8 50 0d 00 00       	call   75fe <_ZNSt8_Rb_treeIiiSt9_IdentityIiESt4lessIiESaIiEE6_M_endEv>
    68ae:	48 89 45 b8          	mov    %rax,-0x48(%rbp)
    68b2:	c6 45 af 01          	movb   $0x1,-0x51(%rbp)
    68b6:	eb 51                	jmp    6909 <_ZNSt8_Rb_treeIiiSt9_IdentityIiESt4lessIiESaIiEE24_M_get_insert_unique_posERKi+0x9b>
    68b8:	48 8b 45 b0          	mov    -0x50(%rbp),%rax
    68bc:	48 89 45 b8          	mov    %rax,-0x48(%rbp)
    68c0:	48 8b 5d 98          	mov    -0x68(%rbp),%rbx
    68c4:	48 8b 45 b0          	mov    -0x50(%rbp),%rax
    68c8:	48 89 c7             	mov    %rax,%rdi
    68cb:	e8 44 0d 00 00       	call   7614 <_ZNSt8_Rb_treeIiiSt9_IdentityIiESt4lessIiESaIiEE6_S_keyEPKSt13_Rb_tree_nodeIiE>
    68d0:	48 89 c2             	mov    %rax,%rdx
    68d3:	48 8b 45 90          	mov    -0x70(%rbp),%rax
    68d7:	48 89 c6             	mov    %rax,%rsi
    68da:	48 89 df             	mov    %rbx,%rdi
    68dd:	e8 c2 ef ff ff       	call   58a4 <_ZNKSt4lessIiEclERKiS2_>
    68e2:	88 45 af             	mov    %al,-0x51(%rbp)
    68e5:	80 7d af 00          	cmpb   $0x0,-0x51(%rbp)
    68e9:	74 0e                	je     68f9 <_ZNSt8_Rb_treeIiiSt9_IdentityIiESt4lessIiESaIiEE24_M_get_insert_unique_posERKi+0x8b>
    68eb:	48 8b 45 b0          	mov    -0x50(%rbp),%rax
    68ef:	48 89 c7             	mov    %rax,%rdi
    68f2:	e8 0d ff ff ff       	call   6804 <_ZNSt8_Rb_treeIiiSt9_IdentityIiESt4lessIiESaIiEE7_S_leftEPSt18_Rb_tree_node_base>
    68f7:	eb 0c                	jmp    6905 <_ZNSt8_Rb_treeIiiSt9_IdentityIiESt4lessIiESaIiEE24_M_get_insert_unique_posERKi+0x97>
    68f9:	48 8b 45 b0          	mov    -0x50(%rbp),%rax
    68fd:	48 89 c7             	mov    %rax,%rdi
    6900:	e8 e9 fe ff ff       	call   67ee <_ZNSt8_Rb_treeIiiSt9_IdentityIiESt4lessIiESaIiEE8_S_rightEPSt18_Rb_tree_node_base>
    6905:	48 89 45 b0          	mov    %rax,-0x50(%rbp)
    6909:	48 8b 45 b0          	mov    -0x50(%rbp),%rax
    690d:	48 85 c0             	test   %rax,%rax
    6910:	75 a6                	jne    68b8 <_ZNSt8_Rb_treeIiiSt9_IdentityIiESt4lessIiESaIiEE24_M_get_insert_unique_posERKi+0x4a>
    6912:	48 8b 55 b8          	mov    -0x48(%rbp),%rdx
    6916:	48 8d 45 c0          	lea    -0x40(%rbp),%rax
    691a:	48 89 d6             	mov    %rdx,%rsi
    691d:	48 89 c7             	mov    %rax,%rdi
    6920:	e8 8b 02 00 00       	call   6bb0 <_ZNSt17_Rb_tree_iteratorIiEC1EPSt18_Rb_tree_node_base>
    6925:	80 7d af 00          	cmpb   $0x0,-0x51(%rbp)
    6929:	74 54                	je     697f <_ZNSt8_Rb_treeIiiSt9_IdentityIiESt4lessIiESaIiEE24_M_get_insert_unique_posERKi+0x111>
    692b:	48 8b 45 98          	mov    -0x68(%rbp),%rax
    692f:	48 89 c7             	mov    %rax,%rdi
    6932:	e8 31 0d 00 00       	call   7668 <_ZNSt8_Rb_treeIiiSt9_IdentityIiESt4lessIiESaIiEE5beginEv>
    6937:	48 89 45 d0          	mov    %rax,-0x30(%rbp)
    693b:	48 8d 55 d0          	lea    -0x30(%rbp),%rdx
    693f:	48 8d 45 c0          	lea    -0x40(%rbp),%rax
    6943:	48 89 d6             	mov    %rdx,%rsi
    6946:	48 89 c7             	mov    %rax,%rdi
    6949:	e8 6a 0d 00 00       	call   76b8 <_ZSteqRKSt17_Rb_tree_iteratorIiES2_>
    694e:	84 c0                	test   %al,%al
    6950:	74 21                	je     6973 <_ZNSt8_Rb_treeIiiSt9_IdentityIiESt4lessIiESaIiEE24_M_get_insert_unique_posERKi+0x105>
    6952:	48 8d 55 b8          	lea    -0x48(%rbp),%rdx
    6956:	48 8d 4d b0          	lea    -0x50(%rbp),%rcx
    695a:	48 8d 45 d0          	lea    -0x30(%rbp),%rax
    695e:	48 89 ce             	mov    %rcx,%rsi
    6961:	48 89 c7             	mov    %rax,%rdi
    6964:	e8 75 0d 00 00       	call   76de <_ZNSt4pairIPSt18_Rb_tree_node_baseS1_EC1IRPSt13_Rb_tree_nodeIiERS1_Lb1EEEOT_OT0_>
    6969:	48 8b 45 d0          	mov    -0x30(%rbp),%rax
    696d:	48 8b 55 d8          	mov    -0x28(%rbp),%rdx
    6971:	eb 7d                	jmp    69f0 <_ZNSt8_Rb_treeIiiSt9_IdentityIiESt4lessIiESaIiEE24_M_get_insert_unique_posERKi+0x182>
    6973:	48 8d 45 c0          	lea    -0x40(%rbp),%rax
    6977:	48 89 c7             	mov    %rax,%rdi
    697a:	e8 a7 0d 00 00       	call   7726 <_ZNSt17_Rb_tree_iteratorIiEmmEv>
    697f:	48 8b 5d 98          	mov    -0x68(%rbp),%rbx
    6983:	48 8b 45 c0          	mov    -0x40(%rbp),%rax
    6987:	48 89 c7             	mov    %rax,%rdi
    698a:	e8 c3 0d 00 00       	call   7752 <_ZNSt8_Rb_treeIiiSt9_IdentityIiESt4lessIiESaIiEE6_S_keyEPKSt18_Rb_tree_node_base>
    698f:	48 89 c1             	mov    %rax,%rcx
    6992:	48 8b 45 90          	mov    -0x70(%rbp),%rax
    6996:	48 89 c2             	mov    %rax,%rdx
    6999:	48 89 ce             	mov    %rcx,%rsi
    699c:	48 89 df             	mov    %rbx,%rdi
    699f:	e8 00 ef ff ff       	call   58a4 <_ZNKSt4lessIiEclERKiS2_>
    69a4:	84 c0                	test   %al,%al
    69a6:	74 21                	je     69c9 <_ZNSt8_Rb_treeIiiSt9_IdentityIiESt4lessIiESaIiEE24_M_get_insert_unique_posERKi+0x15b>
    69a8:	48 8d 55 b8          	lea    -0x48(%rbp),%rdx
    69ac:	48 8d 4d b0          	lea    -0x50(%rbp),%rcx
    69b0:	48 8d 45 d0          	lea    -0x30(%rbp),%rax
    69b4:	48 89 ce             	mov    %rcx,%rsi
    69b7:	48 89 c7             	mov    %rax,%rdi
    69ba:	e8 1f 0d 00 00       	call   76de <_ZNSt4pairIPSt18_Rb_tree_node_baseS1_EC1IRPSt13_Rb_tree_nodeIiERS1_Lb1EEEOT_OT0_>
    69bf:	48 8b 45 d0          	mov    -0x30(%rbp),%rax
    69c3:	48 8b 55 d8          	mov    -0x28(%rbp),%rdx
    69c7:	eb 27                	jmp    69f0 <_ZNSt8_Rb_treeIiiSt9_IdentityIiESt4lessIiESaIiEE24_M_get_insert_unique_posERKi+0x182>
    69c9:	48 c7 45 c8 00 00 00 	movq   $0x0,-0x38(%rbp)
    69d0:	00 
    69d1:	48 8d 55 c8          	lea    -0x38(%rbp),%rdx
    69d5:	48 8d 4d c0          	lea    -0x40(%rbp),%rcx
    69d9:	48 8d 45 d0          	lea    -0x30(%rbp),%rax
    69dd:	48 89 ce             	mov    %rcx,%rsi
    69e0:	48 89 c7             	mov    %rax,%rdi
    69e3:	e8 56 0a 00 00       	call   743e <_ZNSt4pairIPSt18_Rb_tree_node_baseS1_EC1IS1_S1_Lb1EEERKS1_S5_>
    69e8:	48 8b 45 d0          	mov    -0x30(%rbp),%rax
    69ec:	48 8b 55 d8          	mov    -0x28(%rbp),%rdx
    69f0:	48 8b 4d e8          	mov    -0x18(%rbp),%rcx
    69f4:	64 48 2b 0c 25 28 00 	sub    %fs:0x28,%rcx
    69fb:	00 00 
    69fd:	74 05                	je     6a04 <_ZNSt8_Rb_treeIiiSt9_IdentityIiESt4lessIiESaIiEE24_M_get_insert_unique_posERKi+0x196>
    69ff:	e8 2c b9 ff ff       	call   2330 <__stack_chk_fail@plt>
    6a04:	48 8b 5d f8          	mov    -0x8(%rbp),%rbx
    6a08:	c9                   	leave
    6a09:	c3                   	ret

0000000000006a0a <_ZNKSt9_IdentityIiEclERKi>:
    6a0a:	f3 0f 1e fa          	endbr64
    6a0e:	55                   	push   %rbp
    6a0f:	48 89 e5             	mov    %rsp,%rbp
    6a12:	48 89 7d f8          	mov    %rdi,-0x8(%rbp)
    6a16:	48 89 75 f0          	mov    %rsi,-0x10(%rbp)
    6a1a:	48 8b 45 f0          	mov    -0x10(%rbp),%rax
    6a1e:	5d                   	pop    %rbp
    6a1f:	c3                   	ret

0000000000006a20 <_ZNSt8_Rb_treeIiiSt9_IdentityIiESt4lessIiESaIiEE11_Alloc_nodeC1ERS5_>:
    6a20:	f3 0f 1e fa          	endbr64
    6a24:	55                   	push   %rbp
    6a25:	48 89 e5             	mov    %rsp,%rbp
    6a28:	48 89 7d f8          	mov    %rdi,-0x8(%rbp)
    6a2c:	48 89 75 f0          	mov    %rsi,-0x10(%rbp)
    6a30:	48 8b 45 f8          	mov    -0x8(%rbp),%rax
    6a34:	48 8b 55 f0          	mov    -0x10(%rbp),%rdx
    6a38:	48 89 10             	mov    %rdx,(%rax)
    6a3b:	90                   	nop
    6a3c:	5d                   	pop    %rbp
    6a3d:	c3                   	ret

0000000000006a3e <_ZSt7forwardIRKiEOT_RNSt16remove_referenceIS2_E4typeE>:
    6a3e:	f3 0f 1e fa          	endbr64
    6a42:	55                   	push   %rbp
    6a43:	48 89 e5             	mov    %rsp,%rbp
    6a46:	48 89 7d f8          	mov    %rdi,-0x8(%rbp)
    6a4a:	48 8b 45 f8          	mov    -0x8(%rbp),%rax
    6a4e:	5d                   	pop    %rbp
    6a4f:	c3                   	ret

0000000000006a50 <_ZNSt8_Rb_treeIiiSt9_IdentityIiESt4lessIiESaIiEE10_M_insert_IRKiNS5_11_Alloc_nodeEEESt17_Rb_tree_iteratorIiEPSt18_Rb_tree_node_baseSD_OT_RT0_>:
    6a50:	f3 0f 1e fa          	endbr64
    6a54:	55                   	push   %rbp
    6a55:	48 89 e5             	mov    %rsp,%rbp
    6a58:	41 54                	push   %r12
    6a5a:	53                   	push   %rbx
    6a5b:	48 83 ec 50          	sub    $0x50,%rsp
    6a5f:	48 89 7d c8          	mov    %rdi,-0x38(%rbp)
    6a63:	48 89 75 c0          	mov    %rsi,-0x40(%rbp)
    6a67:	48 89 55 b8          	mov    %rdx,-0x48(%rbp)
    6a6b:	48 89 4d b0          	mov    %rcx,-0x50(%rbp)
    6a6f:	4c 89 45 a8          	mov    %r8,-0x58(%rbp)
    6a73:	64 48 8b 04 25 28 00 	mov    %fs:0x28,%rax
    6a7a:	00 00 
    6a7c:	48 89 45 e8          	mov    %rax,-0x18(%rbp)
    6a80:	31 c0                	xor    %eax,%eax
    6a82:	48 83 7d c0 00       	cmpq   $0x0,-0x40(%rbp)
    6a87:	75 4a                	jne    6ad3 <_ZNSt8_Rb_treeIiiSt9_IdentityIiESt4lessIiESaIiEE10_M_insert_IRKiNS5_11_Alloc_nodeEEESt17_Rb_tree_iteratorIiEPSt18_Rb_tree_node_baseSD_OT_RT0_+0x83>
    6a89:	48 8b 45 c8          	mov    -0x38(%rbp),%rax
    6a8d:	48 89 c7             	mov    %rax,%rdi
    6a90:	e8 69 0b 00 00       	call   75fe <_ZNSt8_Rb_treeIiiSt9_IdentityIiESt4lessIiESaIiEE6_M_endEv>
    6a95:	48 39 45 b8          	cmp    %rax,-0x48(%rbp)
    6a99:	74 38                	je     6ad3 <_ZNSt8_Rb_treeIiiSt9_IdentityIiESt4lessIiESaIiEE10_M_insert_IRKiNS5_11_Alloc_nodeEEESt17_Rb_tree_iteratorIiEPSt18_Rb_tree_node_baseSD_OT_RT0_+0x83>
    6a9b:	48 8b 5d c8          	mov    -0x38(%rbp),%rbx
    6a9f:	48 8b 45 b8          	mov    -0x48(%rbp),%rax
    6aa3:	48 89 c7             	mov    %rax,%rdi
    6aa6:	e8 a7 0c 00 00       	call   7752 <_ZNSt8_Rb_treeIiiSt9_IdentityIiESt4lessIiESaIiEE6_S_keyEPKSt18_Rb_tree_node_base>
    6aab:	49 89 c4             	mov    %rax,%r12
    6aae:	48 8b 55 b0          	mov    -0x50(%rbp),%rdx
    6ab2:	48 8d 45 d8          	lea    -0x28(%rbp),%rax
    6ab6:	48 89 d6             	mov    %rdx,%rsi
    6ab9:	48 89 c7             	mov    %rax,%rdi
    6abc:	e8 49 ff ff ff       	call   6a0a <_ZNKSt9_IdentityIiEclERKi>
    6ac1:	4c 89 e2             	mov    %r12,%rdx
    6ac4:	48 89 c6             	mov    %rax,%rsi
    6ac7:	48 89 df             	mov    %rbx,%rdi
    6aca:	e8 d5 ed ff ff       	call   58a4 <_ZNKSt4lessIiEclERKiS2_>
    6acf:	84 c0                	test   %al,%al
    6ad1:	74 07                	je     6ada <_ZNSt8_Rb_treeIiiSt9_IdentityIiESt4lessIiESaIiEE10_M_insert_IRKiNS5_11_Alloc_nodeEEESt17_Rb_tree_iteratorIiEPSt18_Rb_tree_node_baseSD_OT_RT0_+0x8a>
    6ad3:	b8 01 00 00 00       	mov    $0x1,%eax
    6ad8:	eb 05                	jmp    6adf <_ZNSt8_Rb_treeIiiSt9_IdentityIiESt4lessIiESaIiEE10_M_insert_IRKiNS5_11_Alloc_nodeEEESt17_Rb_tree_iteratorIiEPSt18_Rb_tree_node_baseSD_OT_RT0_+0x8f>
    6ada:	b8 00 00 00 00       	mov    $0x0,%eax
    6adf:	88 45 d7             	mov    %al,-0x29(%rbp)
    6ae2:	48 8b 45 b0          	mov    -0x50(%rbp),%rax
    6ae6:	48 89 c7             	mov    %rax,%rdi
    6ae9:	e8 50 ff ff ff       	call   6a3e <_ZSt7forwardIRKiEOT_RNSt16remove_referenceIS2_E4typeE>
    6aee:	48 89 c2             	mov    %rax,%rdx
    6af1:	48 8b 45 a8          	mov    -0x58(%rbp),%rax
    6af5:	48 89 d6             	mov    %rdx,%rsi
    6af8:	48 89 c7             	mov    %rax,%rdi
    6afb:	e8 70 0c 00 00       	call   7770 <_ZNKSt8_Rb_treeIiiSt9_IdentityIiESt4lessIiESaIiEE11_Alloc_nodeclIRKiEEPSt13_Rb_tree_nodeIiEOT_>
    6b00:	48 89 45 e0          	mov    %rax,-0x20(%rbp)
    6b04:	48 8b 45 c8          	mov    -0x38(%rbp),%rax
    6b08:	48 8d 48 08          	lea    0x8(%rax),%rcx
    6b0c:	0f b6 45 d7          	movzbl -0x29(%rbp),%eax
    6b10:	48 8b 55 b8          	mov    -0x48(%rbp),%rdx
    6b14:	48 8b 75 e0          	mov    -0x20(%rbp),%rsi
    6b18:	89 c7                	mov    %eax,%edi
    6b1a:	e8 e1 b6 ff ff       	call   2200 <_ZSt29_Rb_tree_insert_and_rebalancebPSt18_Rb_tree_node_baseS0_RS_@plt>
    6b1f:	48 8b 45 c8          	mov    -0x38(%rbp),%rax
    6b23:	48 8b 40 28          	mov    0x28(%rax),%rax
    6b27:	48 8d 50 01          	lea    0x1(%rax),%rdx
    6b2b:	48 8b 45 c8          	mov    -0x38(%rbp),%rax
    6b2f:	48 89 50 28          	mov    %rdx,0x28(%rax)
    6b33:	48 8b 55 e0          	mov    -0x20(%rbp),%rdx
    6b37:	48 8d 45 d8          	lea    -0x28(%rbp),%rax
    6b3b:	48 89 d6             	mov    %rdx,%rsi
    6b3e:	48 89 c7             	mov    %rax,%rdi
    6b41:	e8 6a 00 00 00       	call   6bb0 <_ZNSt17_Rb_tree_iteratorIiEC1EPSt18_Rb_tree_node_base>
    6b46:	48 8b 45 d8          	mov    -0x28(%rbp),%rax
    6b4a:	48 8b 55 e8          	mov    -0x18(%rbp),%rdx
    6b4e:	64 48 2b 14 25 28 00 	sub    %fs:0x28,%rdx
    6b55:	00 00 
    6b57:	74 05                	je     6b5e <_ZNSt8_Rb_treeIiiSt9_IdentityIiESt4lessIiESaIiEE10_M_insert_IRKiNS5_11_Alloc_nodeEEESt17_Rb_tree_iteratorIiEPSt18_Rb_tree_node_baseSD_OT_RT0_+0x10e>
    6b59:	e8 d2 b7 ff ff       	call   2330 <__stack_chk_fail@plt>
    6b5e:	48 83 c4 50          	add    $0x50,%rsp
    6b62:	5b                   	pop    %rbx
    6b63:	41 5c                	pop    %r12
    6b65:	5d                   	pop    %rbp
    6b66:	c3                   	ret
    6b67:	90                   	nop

0000000000006b68 <_ZNSt4pairISt17_Rb_tree_iteratorIiEbEC1IS1_bLb1EEEOT_OT0_>:
    6b68:	f3 0f 1e fa          	endbr64
    6b6c:	55                   	push   %rbp
    6b6d:	48 89 e5             	mov    %rsp,%rbp
    6b70:	48 83 ec 20          	sub    $0x20,%rsp
    6b74:	48 89 7d f8          	mov    %rdi,-0x8(%rbp)
    6b78:	48 89 75 f0          	mov    %rsi,-0x10(%rbp)
    6b7c:	48 89 55 e8          	mov    %rdx,-0x18(%rbp)
    6b80:	48 8b 45 f0          	mov    -0x10(%rbp),%rax
    6b84:	48 89 c7             	mov    %rax,%rdi
    6b87:	e8 1d 0c 00 00       	call   77a9 <_ZSt7forwardISt17_Rb_tree_iteratorIiEEOT_RNSt16remove_referenceIS2_E4typeE>
    6b8c:	48 8b 55 f8          	mov    -0x8(%rbp),%rdx
    6b90:	48 8b 00             	mov    (%rax),%rax
    6b93:	48 89 02             	mov    %rax,(%rdx)
    6b96:	48 8b 45 e8          	mov    -0x18(%rbp),%rax
    6b9a:	48 89 c7             	mov    %rax,%rdi
    6b9d:	e8 45 e1 ff ff       	call   4ce7 <_ZSt7forwardIbEOT_RNSt16remove_referenceIS0_E4typeE>
    6ba2:	0f b6 10             	movzbl (%rax),%edx
    6ba5:	48 8b 45 f8          	mov    -0x8(%rbp),%rax
    6ba9:	88 50 08             	mov    %dl,0x8(%rax)
    6bac:	90                   	nop
    6bad:	c9                   	leave
    6bae:	c3                   	ret
    6baf:	90                   	nop

0000000000006bb0 <_ZNSt17_Rb_tree_iteratorIiEC1EPSt18_Rb_tree_node_base>:
    6bb0:	f3 0f 1e fa          	endbr64
    6bb4:	55                   	push   %rbp
    6bb5:	48 89 e5             	mov    %rsp,%rbp
    6bb8:	48 89 7d f8          	mov    %rdi,-0x8(%rbp)
    6bbc:	48 89 75 f0          	mov    %rsi,-0x10(%rbp)
    6bc0:	48 8b 45 f8          	mov    -0x8(%rbp),%rax
    6bc4:	48 8b 55 f0          	mov    -0x10(%rbp),%rdx
    6bc8:	48 89 10             	mov    %rdx,(%rax)
    6bcb:	90                   	nop
    6bcc:	5d                   	pop    %rbp
    6bcd:	c3                   	ret

0000000000006bce <_ZSt7forwardIRSt17_Rb_tree_iteratorIiEEOT_RNSt16remove_referenceIS3_E4typeE>:
    6bce:	f3 0f 1e fa          	endbr64
    6bd2:	55                   	push   %rbp
    6bd3:	48 89 e5             	mov    %rsp,%rbp
    6bd6:	48 89 7d f8          	mov    %rdi,-0x8(%rbp)
    6bda:	48 8b 45 f8          	mov    -0x8(%rbp),%rax
    6bde:	5d                   	pop    %rbp
    6bdf:	c3                   	ret

0000000000006be0 <_ZSt7forwardIRbEOT_RNSt16remove_referenceIS1_E4typeE>:
    6be0:	f3 0f 1e fa          	endbr64
    6be4:	55                   	push   %rbp
    6be5:	48 89 e5             	mov    %rsp,%rbp
    6be8:	48 89 7d f8          	mov    %rdi,-0x8(%rbp)
    6bec:	48 8b 45 f8          	mov    -0x8(%rbp),%rax
    6bf0:	5d                   	pop    %rbp
    6bf1:	c3                   	ret

0000000000006bf2 <_ZNSt23_Rb_tree_const_iteratorIiEC1ERKSt17_Rb_tree_iteratorIiE>:
    6bf2:	f3 0f 1e fa          	endbr64
    6bf6:	55                   	push   %rbp
    6bf7:	48 89 e5             	mov    %rsp,%rbp
    6bfa:	48 89 7d f8          	mov    %rdi,-0x8(%rbp)
    6bfe:	48 89 75 f0          	mov    %rsi,-0x10(%rbp)
    6c02:	48 8b 45 f0          	mov    -0x10(%rbp),%rax
    6c06:	48 8b 10             	mov    (%rax),%rdx
    6c09:	48 8b 45 f8          	mov    -0x8(%rbp),%rax
    6c0d:	48 89 10             	mov    %rdx,(%rax)
    6c10:	90                   	nop
    6c11:	5d                   	pop    %rbp
    6c12:	c3                   	ret
    6c13:	90                   	nop

0000000000006c14 <_ZNSt8_Rb_treeI6bipoloS0_St9_IdentityIS0_ESt4lessIS0_ESaIS0_EE24_M_get_insert_unique_posERKS0_>:
    6c14:	f3 0f 1e fa          	endbr64
    6c18:	55                   	push   %rbp
    6c19:	48 89 e5             	mov    %rsp,%rbp
    6c1c:	53                   	push   %rbx
    6c1d:	48 83 ec 68          	sub    $0x68,%rsp
    6c21:	48 89 7d 98          	mov    %rdi,-0x68(%rbp)
    6c25:	48 89 75 90          	mov    %rsi,-0x70(%rbp)
    6c29:	64 48 8b 04 25 28 00 	mov    %fs:0x28,%rax
    6c30:	00 00 
    6c32:	48 89 45 e8          	mov    %rax,-0x18(%rbp)
    6c36:	31 c0                	xor    %eax,%eax
    6c38:	48 8b 45 98          	mov    -0x68(%rbp),%rax
    6c3c:	48 89 c7             	mov    %rax,%rdi
    6c3f:	e8 d4 ed ff ff       	call   5a18 <_ZNSt8_Rb_treeI6bipoloS0_St9_IdentityIS0_ESt4lessIS0_ESaIS0_EE8_M_beginEv>
    6c44:	48 89 45 b0          	mov    %rax,-0x50(%rbp)
    6c48:	48 8b 45 98          	mov    -0x68(%rbp),%rax
    6c4c:	48 89 c7             	mov    %rax,%rdi
    6c4f:	e8 68 0b 00 00       	call   77bc <_ZNSt8_Rb_treeI6bipoloS0_St9_IdentityIS0_ESt4lessIS0_ESaIS0_EE6_M_endEv>
    6c54:	48 89 45 b8          	mov    %rax,-0x48(%rbp)
    6c58:	c6 45 af 01          	movb   $0x1,-0x51(%rbp)
    6c5c:	eb 51                	jmp    6caf <_ZNSt8_Rb_treeI6bipoloS0_St9_IdentityIS0_ESt4lessIS0_ESaIS0_EE24_M_get_insert_unique_posERKS0_+0x9b>
    6c5e:	48 8b 45 b0          	mov    -0x50(%rbp),%rax
    6c62:	48 89 45 b8          	mov    %rax,-0x48(%rbp)
    6c66:	48 8b 5d 98          	mov    -0x68(%rbp),%rbx
    6c6a:	48 8b 45 b0          	mov    -0x50(%rbp),%rax
    6c6e:	48 89 c7             	mov    %rax,%rdi
    6c71:	e8 5c 0b 00 00       	call   77d2 <_ZNSt8_Rb_treeI6bipoloS0_St9_IdentityIS0_ESt4lessIS0_ESaIS0_EE6_S_keyEPKSt13_Rb_tree_nodeIS0_E>
    6c76:	48 89 c2             	mov    %rax,%rdx
    6c79:	48 8b 45 90          	mov    -0x70(%rbp),%rax
    6c7d:	48 89 c6             	mov    %rax,%rsi
    6c80:	48 89 df             	mov    %rbx,%rdi
    6c83:	e8 9e 0b 00 00       	call   7826 <_ZNKSt4lessI6bipoloEclERKS0_S3_>
    6c88:	88 45 af             	mov    %al,-0x51(%rbp)
    6c8b:	80 7d af 00          	cmpb   $0x0,-0x51(%rbp)
    6c8f:	74 0e                	je     6c9f <_ZNSt8_Rb_treeI6bipoloS0_St9_IdentityIS0_ESt4lessIS0_ESaIS0_EE24_M_get_insert_unique_posERKS0_+0x8b>
    6c91:	48 8b 45 b0          	mov    -0x50(%rbp),%rax
    6c95:	48 89 c7             	mov    %rax,%rdi
    6c98:	e8 e6 fa ff ff       	call   6783 <_ZNSt8_Rb_treeI6bipoloS0_St9_IdentityIS0_ESt4lessIS0_ESaIS0_EE7_S_leftEPSt18_Rb_tree_node_base>
    6c9d:	eb 0c                	jmp    6cab <_ZNSt8_Rb_treeI6bipoloS0_St9_IdentityIS0_ESt4lessIS0_ESaIS0_EE24_M_get_insert_unique_posERKS0_+0x97>
    6c9f:	48 8b 45 b0          	mov    -0x50(%rbp),%rax
    6ca3:	48 89 c7             	mov    %rax,%rdi
    6ca6:	e8 c2 fa ff ff       	call   676d <_ZNSt8_Rb_treeI6bipoloS0_St9_IdentityIS0_ESt4lessIS0_ESaIS0_EE8_S_rightEPSt18_Rb_tree_node_base>
    6cab:	48 89 45 b0          	mov    %rax,-0x50(%rbp)
    6caf:	48 8b 45 b0          	mov    -0x50(%rbp),%rax
    6cb3:	48 85 c0             	test   %rax,%rax
    6cb6:	75 a6                	jne    6c5e <_ZNSt8_Rb_treeI6bipoloS0_St9_IdentityIS0_ESt4lessIS0_ESaIS0_EE24_M_get_insert_unique_posERKS0_+0x4a>
    6cb8:	48 8b 55 b8          	mov    -0x48(%rbp),%rdx
    6cbc:	48 8d 45 c0          	lea    -0x40(%rbp),%rax
    6cc0:	48 89 d6             	mov    %rdx,%rsi
    6cc3:	48 89 c7             	mov    %rax,%rdi
    6cc6:	e8 8b 02 00 00       	call   6f56 <_ZNSt17_Rb_tree_iteratorI6bipoloEC1EPSt18_Rb_tree_node_base>
    6ccb:	80 7d af 00          	cmpb   $0x0,-0x51(%rbp)
    6ccf:	74 54                	je     6d25 <_ZNSt8_Rb_treeI6bipoloS0_St9_IdentityIS0_ESt4lessIS0_ESaIS0_EE24_M_get_insert_unique_posERKS0_+0x111>
    6cd1:	48 8b 45 98          	mov    -0x68(%rbp),%rax
    6cd5:	48 89 c7             	mov    %rax,%rdi
    6cd8:	e8 77 0b 00 00       	call   7854 <_ZNSt8_Rb_treeI6bipoloS0_St9_IdentityIS0_ESt4lessIS0_ESaIS0_EE5beginEv>
    6cdd:	48 89 45 d0          	mov    %rax,-0x30(%rbp)
    6ce1:	48 8d 55 d0          	lea    -0x30(%rbp),%rdx
    6ce5:	48 8d 45 c0          	lea    -0x40(%rbp),%rax
    6ce9:	48 89 d6             	mov    %rdx,%rsi
    6cec:	48 89 c7             	mov    %rax,%rdi
    6cef:	e8 b0 0b 00 00       	call   78a4 <_ZSteqRKSt17_Rb_tree_iteratorI6bipoloES3_>
    6cf4:	84 c0                	test   %al,%al
    6cf6:	74 21                	je     6d19 <_ZNSt8_Rb_treeI6bipoloS0_St9_IdentityIS0_ESt4lessIS0_ESaIS0_EE24_M_get_insert_unique_posERKS0_+0x105>
    6cf8:	48 8d 55 b8          	lea    -0x48(%rbp),%rdx
    6cfc:	48 8d 4d b0          	lea    -0x50(%rbp),%rcx
    6d00:	48 8d 45 d0          	lea    -0x30(%rbp),%rax
    6d04:	48 89 ce             	mov    %rcx,%rsi
    6d07:	48 89 c7             	mov    %rax,%rdi
    6d0a:	e8 bb 0b 00 00       	call   78ca <_ZNSt4pairIPSt18_Rb_tree_node_baseS1_EC1IRPSt13_Rb_tree_nodeI6bipoloERS1_Lb1EEEOT_OT0_>
    6d0f:	48 8b 45 d0          	mov    -0x30(%rbp),%rax
    6d13:	48 8b 55 d8          	mov    -0x28(%rbp),%rdx
    6d17:	eb 7d                	jmp    6d96 <_ZNSt8_Rb_treeI6bipoloS0_St9_IdentityIS0_ESt4lessIS0_ESaIS0_EE24_M_get_insert_unique_posERKS0_+0x182>
    6d19:	48 8d 45 c0          	lea    -0x40(%rbp),%rax
    6d1d:	48 89 c7             	mov    %rax,%rdi
    6d20:	e8 ed 0b 00 00       	call   7912 <_ZNSt17_Rb_tree_iteratorI6bipoloEmmEv>
    6d25:	48 8b 5d 98          	mov    -0x68(%rbp),%rbx
    6d29:	48 8b 45 c0          	mov    -0x40(%rbp),%rax
    6d2d:	48 89 c7             	mov    %rax,%rdi
    6d30:	e8 09 0c 00 00       	call   793e <_ZNSt8_Rb_treeI6bipoloS0_St9_IdentityIS0_ESt4lessIS0_ESaIS0_EE6_S_keyEPKSt18_Rb_tree_node_base>
    6d35:	48 89 c1             	mov    %rax,%rcx
    6d38:	48 8b 45 90          	mov    -0x70(%rbp),%rax
    6d3c:	48 89 c2             	mov    %rax,%rdx
    6d3f:	48 89 ce             	mov    %rcx,%rsi
    6d42:	48 89 df             	mov    %rbx,%rdi
    6d45:	e8 dc 0a 00 00       	call   7826 <_ZNKSt4lessI6bipoloEclERKS0_S3_>
    6d4a:	84 c0                	test   %al,%al
    6d4c:	74 21                	je     6d6f <_ZNSt8_Rb_treeI6bipoloS0_St9_IdentityIS0_ESt4lessIS0_ESaIS0_EE24_M_get_insert_unique_posERKS0_+0x15b>
    6d4e:	48 8d 55 b8          	lea    -0x48(%rbp),%rdx
    6d52:	48 8d 4d b0          	lea    -0x50(%rbp),%rcx
    6d56:	48 8d 45 d0          	lea    -0x30(%rbp),%rax
    6d5a:	48 89 ce             	mov    %rcx,%rsi
    6d5d:	48 89 c7             	mov    %rax,%rdi
    6d60:	e8 65 0b 00 00       	call   78ca <_ZNSt4pairIPSt18_Rb_tree_node_baseS1_EC1IRPSt13_Rb_tree_nodeI6bipoloERS1_Lb1EEEOT_OT0_>
    6d65:	48 8b 45 d0          	mov    -0x30(%rbp),%rax
    6d69:	48 8b 55 d8          	mov    -0x28(%rbp),%rdx
    6d6d:	eb 27                	jmp    6d96 <_ZNSt8_Rb_treeI6bipoloS0_St9_IdentityIS0_ESt4lessIS0_ESaIS0_EE24_M_get_insert_unique_posERKS0_+0x182>
    6d6f:	48 c7 45 c8 00 00 00 	movq   $0x0,-0x38(%rbp)
    6d76:	00 
    6d77:	48 8d 55 c8          	lea    -0x38(%rbp),%rdx
    6d7b:	48 8d 4d c0          	lea    -0x40(%rbp),%rcx
    6d7f:	48 8d 45 d0          	lea    -0x30(%rbp),%rax
    6d83:	48 89 ce             	mov    %rcx,%rsi
    6d86:	48 89 c7             	mov    %rax,%rdi
    6d89:	e8 b0 06 00 00       	call   743e <_ZNSt4pairIPSt18_Rb_tree_node_baseS1_EC1IS1_S1_Lb1EEERKS1_S5_>
    6d8e:	48 8b 45 d0          	mov    -0x30(%rbp),%rax
    6d92:	48 8b 55 d8          	mov    -0x28(%rbp),%rdx
    6d96:	48 8b 4d e8          	mov    -0x18(%rbp),%rcx
    6d9a:	64 48 2b 0c 25 28 00 	sub    %fs:0x28,%rcx
    6da1:	00 00 
    6da3:	74 05                	je     6daa <_ZNSt8_Rb_treeI6bipoloS0_St9_IdentityIS0_ESt4lessIS0_ESaIS0_EE24_M_get_insert_unique_posERKS0_+0x196>
    6da5:	e8 86 b5 ff ff       	call   2330 <__stack_chk_fail@plt>
    6daa:	48 8b 5d f8          	mov    -0x8(%rbp),%rbx
    6dae:	c9                   	leave
    6daf:	c3                   	ret

0000000000006db0 <_ZNKSt9_IdentityI6bipoloEclERKS0_>:
    6db0:	f3 0f 1e fa          	endbr64
    6db4:	55                   	push   %rbp
    6db5:	48 89 e5             	mov    %rsp,%rbp
    6db8:	48 89 7d f8          	mov    %rdi,-0x8(%rbp)
    6dbc:	48 89 75 f0          	mov    %rsi,-0x10(%rbp)
    6dc0:	48 8b 45 f0          	mov    -0x10(%rbp),%rax
    6dc4:	5d                   	pop    %rbp
    6dc5:	c3                   	ret

0000000000006dc6 <_ZNSt8_Rb_treeI6bipoloS0_St9_IdentityIS0_ESt4lessIS0_ESaIS0_EE11_Alloc_nodeC1ERS6_>:
    6dc6:	f3 0f 1e fa          	endbr64
    6dca:	55                   	push   %rbp
    6dcb:	48 89 e5             	mov    %rsp,%rbp
    6dce:	48 89 7d f8          	mov    %rdi,-0x8(%rbp)
    6dd2:	48 89 75 f0          	mov    %rsi,-0x10(%rbp)
    6dd6:	48 8b 45 f8          	mov    -0x8(%rbp),%rax
    6dda:	48 8b 55 f0          	mov    -0x10(%rbp),%rdx
    6dde:	48 89 10             	mov    %rdx,(%rax)
    6de1:	90                   	nop
    6de2:	5d                   	pop    %rbp
    6de3:	c3                   	ret

0000000000006de4 <_ZSt7forwardIRK6bipoloEOT_RNSt16remove_referenceIS3_E4typeE>:
    6de4:	f3 0f 1e fa          	endbr64
    6de8:	55                   	push   %rbp
    6de9:	48 89 e5             	mov    %rsp,%rbp
    6dec:	48 89 7d f8          	mov    %rdi,-0x8(%rbp)
    6df0:	48 8b 45 f8          	mov    -0x8(%rbp),%rax
    6df4:	5d                   	pop    %rbp
    6df5:	c3                   	ret

0000000000006df6 <_ZNSt8_Rb_treeI6bipoloS0_St9_IdentityIS0_ESt4lessIS0_ESaIS0_EE10_M_insert_IRKS0_NS6_11_Alloc_nodeEEESt17_Rb_tree_iteratorIS0_EPSt18_Rb_tree_node_baseSE_OT_RT0_>:
    6df6:	f3 0f 1e fa          	endbr64
    6dfa:	55                   	push   %rbp
    6dfb:	48 89 e5             	mov    %rsp,%rbp
    6dfe:	41 54                	push   %r12
    6e00:	53                   	push   %rbx
    6e01:	48 83 ec 50          	sub    $0x50,%rsp
    6e05:	48 89 7d c8          	mov    %rdi,-0x38(%rbp)
    6e09:	48 89 75 c0          	mov    %rsi,-0x40(%rbp)
    6e0d:	48 89 55 b8          	mov    %rdx,-0x48(%rbp)
    6e11:	48 89 4d b0          	mov    %rcx,-0x50(%rbp)
    6e15:	4c 89 45 a8          	mov    %r8,-0x58(%rbp)
    6e19:	64 48 8b 04 25 28 00 	mov    %fs:0x28,%rax
    6e20:	00 00 
    6e22:	48 89 45 e8          	mov    %rax,-0x18(%rbp)
    6e26:	31 c0                	xor    %eax,%eax
    6e28:	48 83 7d c0 00       	cmpq   $0x0,-0x40(%rbp)
    6e2d:	75 4a                	jne    6e79 <_ZNSt8_Rb_treeI6bipoloS0_St9_IdentityIS0_ESt4lessIS0_ESaIS0_EE10_M_insert_IRKS0_NS6_11_Alloc_nodeEEESt17_Rb_tree_iteratorIS0_EPSt18_Rb_tree_node_baseSE_OT_RT0_+0x83>
    6e2f:	48 8b 45 c8          	mov    -0x38(%rbp),%rax
    6e33:	48 89 c7             	mov    %rax,%rdi
    6e36:	e8 81 09 00 00       	call   77bc <_ZNSt8_Rb_treeI6bipoloS0_St9_IdentityIS0_ESt4lessIS0_ESaIS0_EE6_M_endEv>
    6e3b:	48 39 45 b8          	cmp    %rax,-0x48(%rbp)
    6e3f:	74 38                	je     6e79 <_ZNSt8_Rb_treeI6bipoloS0_St9_IdentityIS0_ESt4lessIS0_ESaIS0_EE10_M_insert_IRKS0_NS6_11_Alloc_nodeEEESt17_Rb_tree_iteratorIS0_EPSt18_Rb_tree_node_baseSE_OT_RT0_+0x83>
    6e41:	48 8b 5d c8          	mov    -0x38(%rbp),%rbx
    6e45:	48 8b 45 b8          	mov    -0x48(%rbp),%rax
    6e49:	48 89 c7             	mov    %rax,%rdi
    6e4c:	e8 ed 0a 00 00       	call   793e <_ZNSt8_Rb_treeI6bipoloS0_St9_IdentityIS0_ESt4lessIS0_ESaIS0_EE6_S_keyEPKSt18_Rb_tree_node_base>
    6e51:	49 89 c4             	mov    %rax,%r12
    6e54:	48 8b 55 b0          	mov    -0x50(%rbp),%rdx
    6e58:	48 8d 45 d8          	lea    -0x28(%rbp),%rax
    6e5c:	48 89 d6             	mov    %rdx,%rsi
    6e5f:	48 89 c7             	mov    %rax,%rdi
    6e62:	e8 49 ff ff ff       	call   6db0 <_ZNKSt9_IdentityI6bipoloEclERKS0_>
    6e67:	4c 89 e2             	mov    %r12,%rdx
    6e6a:	48 89 c6             	mov    %rax,%rsi
    6e6d:	48 89 df             	mov    %rbx,%rdi
    6e70:	e8 b1 09 00 00       	call   7826 <_ZNKSt4lessI6bipoloEclERKS0_S3_>
    6e75:	84 c0                	test   %al,%al
    6e77:	74 07                	je     6e80 <_ZNSt8_Rb_treeI6bipoloS0_St9_IdentityIS0_ESt4lessIS0_ESaIS0_EE10_M_insert_IRKS0_NS6_11_Alloc_nodeEEESt17_Rb_tree_iteratorIS0_EPSt18_Rb_tree_node_baseSE_OT_RT0_+0x8a>
    6e79:	b8 01 00 00 00       	mov    $0x1,%eax
    6e7e:	eb 05                	jmp    6e85 <_ZNSt8_Rb_treeI6bipoloS0_St9_IdentityIS0_ESt4lessIS0_ESaIS0_EE10_M_insert_IRKS0_NS6_11_Alloc_nodeEEESt17_Rb_tree_iteratorIS0_EPSt18_Rb_tree_node_baseSE_OT_RT0_+0x8f>
    6e80:	b8 00 00 00 00       	mov    $0x0,%eax
    6e85:	88 45 d7             	mov    %al,-0x29(%rbp)
    6e88:	48 8b 45 b0          	mov    -0x50(%rbp),%rax
    6e8c:	48 89 c7             	mov    %rax,%rdi
    6e8f:	e8 50 ff ff ff       	call   6de4 <_ZSt7forwardIRK6bipoloEOT_RNSt16remove_referenceIS3_E4typeE>
    6e94:	48 89 c2             	mov    %rax,%rdx
    6e97:	48 8b 45 a8          	mov    -0x58(%rbp),%rax
    6e9b:	48 89 d6             	mov    %rdx,%rsi
    6e9e:	48 89 c7             	mov    %rax,%rdi
    6ea1:	e8 b6 0a 00 00       	call   795c <_ZNKSt8_Rb_treeI6bipoloS0_St9_IdentityIS0_ESt4lessIS0_ESaIS0_EE11_Alloc_nodeclIRKS0_EEPSt13_Rb_tree_nodeIS0_EOT_>
    6ea6:	48 89 45 e0          	mov    %rax,-0x20(%rbp)
    6eaa:	48 8b 45 c8          	mov    -0x38(%rbp),%rax
    6eae:	48 8d 48 08          	lea    0x8(%rax),%rcx
    6eb2:	0f b6 45 d7          	movzbl -0x29(%rbp),%eax
    6eb6:	48 8b 55 b8          	mov    -0x48(%rbp),%rdx
    6eba:	48 8b 75 e0          	mov    -0x20(%rbp),%rsi
    6ebe:	89 c7                	mov    %eax,%edi
    6ec0:	e8 3b b3 ff ff       	call   2200 <_ZSt29_Rb_tree_insert_and_rebalancebPSt18_Rb_tree_node_baseS0_RS_@plt>
    6ec5:	48 8b 45 c8          	mov    -0x38(%rbp),%rax
    6ec9:	48 8b 40 28          	mov    0x28(%rax),%rax
    6ecd:	48 8d 50 01          	lea    0x1(%rax),%rdx
    6ed1:	48 8b 45 c8          	mov    -0x38(%rbp),%rax
    6ed5:	48 89 50 28          	mov    %rdx,0x28(%rax)
    6ed9:	48 8b 55 e0          	mov    -0x20(%rbp),%rdx
    6edd:	48 8d 45 d8          	lea    -0x28(%rbp),%rax
    6ee1:	48 89 d6             	mov    %rdx,%rsi
    6ee4:	48 89 c7             	mov    %rax,%rdi
    6ee7:	e8 6a 00 00 00       	call   6f56 <_ZNSt17_Rb_tree_iteratorI6bipoloEC1EPSt18_Rb_tree_node_base>
    6eec:	48 8b 45 d8          	mov    -0x28(%rbp),%rax
    6ef0:	48 8b 55 e8          	mov    -0x18(%rbp),%rdx
    6ef4:	64 48 2b 14 25 28 00 	sub    %fs:0x28,%rdx
    6efb:	00 00 
    6efd:	74 05                	je     6f04 <_ZNSt8_Rb_treeI6bipoloS0_St9_IdentityIS0_ESt4lessIS0_ESaIS0_EE10_M_insert_IRKS0_NS6_11_Alloc_nodeEEESt17_Rb_tree_iteratorIS0_EPSt18_Rb_tree_node_baseSE_OT_RT0_+0x10e>
    6eff:	e8 2c b4 ff ff       	call   2330 <__stack_chk_fail@plt>
    6f04:	48 83 c4 50          	add    $0x50,%rsp
    6f08:	5b                   	pop    %rbx
    6f09:	41 5c                	pop    %r12
    6f0b:	5d                   	pop    %rbp
    6f0c:	c3                   	ret
    6f0d:	90                   	nop

0000000000006f0e <_ZNSt4pairISt17_Rb_tree_iteratorI6bipoloEbEC1IS2_bLb1EEEOT_OT0_>:
    6f0e:	f3 0f 1e fa          	endbr64
    6f12:	55                   	push   %rbp
    6f13:	48 89 e5             	mov    %rsp,%rbp
    6f16:	48 83 ec 20          	sub    $0x20,%rsp
    6f1a:	48 89 7d f8          	mov    %rdi,-0x8(%rbp)
    6f1e:	48 89 75 f0          	mov    %rsi,-0x10(%rbp)
    6f22:	48 89 55 e8          	mov    %rdx,-0x18(%rbp)
    6f26:	48 8b 45 f0          	mov    -0x10(%rbp),%rax
    6f2a:	48 89 c7             	mov    %rax,%rdi
    6f2d:	e8 63 0a 00 00       	call   7995 <_ZSt7forwardISt17_Rb_tree_iteratorI6bipoloEEOT_RNSt16remove_referenceIS3_E4typeE>
    6f32:	48 8b 55 f8          	mov    -0x8(%rbp),%rdx
    6f36:	48 8b 00             	mov    (%rax),%rax
    6f39:	48 89 02             	mov    %rax,(%rdx)
    6f3c:	48 8b 45 e8          	mov    -0x18(%rbp),%rax
    6f40:	48 89 c7             	mov    %rax,%rdi
    6f43:	e8 9f dd ff ff       	call   4ce7 <_ZSt7forwardIbEOT_RNSt16remove_referenceIS0_E4typeE>
    6f48:	0f b6 10             	movzbl (%rax),%edx
    6f4b:	48 8b 45 f8          	mov    -0x8(%rbp),%rax
    6f4f:	88 50 08             	mov    %dl,0x8(%rax)
    6f52:	90                   	nop
    6f53:	c9                   	leave
    6f54:	c3                   	ret
    6f55:	90                   	nop

0000000000006f56 <_ZNSt17_Rb_tree_iteratorI6bipoloEC1EPSt18_Rb_tree_node_base>:
    6f56:	f3 0f 1e fa          	endbr64
    6f5a:	55                   	push   %rbp
    6f5b:	48 89 e5             	mov    %rsp,%rbp
    6f5e:	48 89 7d f8          	mov    %rdi,-0x8(%rbp)
    6f62:	48 89 75 f0          	mov    %rsi,-0x10(%rbp)
    6f66:	48 8b 45 f8          	mov    -0x8(%rbp),%rax
    6f6a:	48 8b 55 f0          	mov    -0x10(%rbp),%rdx
    6f6e:	48 89 10             	mov    %rdx,(%rax)
    6f71:	90                   	nop
    6f72:	5d                   	pop    %rbp
    6f73:	c3                   	ret

0000000000006f74 <_ZSt7forwardIRSt17_Rb_tree_iteratorI6bipoloEEOT_RNSt16remove_referenceIS4_E4typeE>:
    6f74:	f3 0f 1e fa          	endbr64
    6f78:	55                   	push   %rbp
    6f79:	48 89 e5             	mov    %rsp,%rbp
    6f7c:	48 89 7d f8          	mov    %rdi,-0x8(%rbp)
    6f80:	48 8b 45 f8          	mov    -0x8(%rbp),%rax
    6f84:	5d                   	pop    %rbp
    6f85:	c3                   	ret

0000000000006f86 <_ZNSt23_Rb_tree_const_iteratorI6bipoloEC1ERKSt17_Rb_tree_iteratorIS0_E>:
    6f86:	f3 0f 1e fa          	endbr64
    6f8a:	55                   	push   %rbp
    6f8b:	48 89 e5             	mov    %rsp,%rbp
    6f8e:	48 89 7d f8          	mov    %rdi,-0x8(%rbp)
    6f92:	48 89 75 f0          	mov    %rsi,-0x10(%rbp)
    6f96:	48 8b 45 f0          	mov    -0x10(%rbp),%rax
    6f9a:	48 8b 10             	mov    (%rax),%rdx
    6f9d:	48 8b 45 f8          	mov    -0x8(%rbp),%rax
    6fa1:	48 89 10             	mov    %rdx,(%rax)
    6fa4:	90                   	nop
    6fa5:	5d                   	pop    %rbp
    6fa6:	c3                   	ret
    6fa7:	90                   	nop

0000000000006fa8 <_ZNSt15__uniq_ptr_implI10BipoloNodeSt14default_deleteIS0_EEC1EPS0_>:
    6fa8:	f3 0f 1e fa          	endbr64
    6fac:	55                   	push   %rbp
    6fad:	48 89 e5             	mov    %rsp,%rbp
    6fb0:	53                   	push   %rbx
    6fb1:	48 83 ec 18          	sub    $0x18,%rsp
    6fb5:	48 89 7d e8          	mov    %rdi,-0x18(%rbp)
    6fb9:	48 89 75 e0          	mov    %rsi,-0x20(%rbp)
    6fbd:	48 8b 45 e8          	mov    -0x18(%rbp),%rax
    6fc1:	48 89 c7             	mov    %rax,%rdi
    6fc4:	e8 df 09 00 00       	call   79a8 <_ZNSt5tupleIJP10BipoloNodeSt14default_deleteIS0_EEEC1ILb1ELb1EEEv>
    6fc9:	48 8b 5d e0          	mov    -0x20(%rbp),%rbx
    6fcd:	48 8b 45 e8          	mov    -0x18(%rbp),%rax
    6fd1:	48 89 c7             	mov    %rax,%rdi
    6fd4:	e8 05 ee ff ff       	call   5dde <_ZNSt15__uniq_ptr_implI10BipoloNodeSt14default_deleteIS0_EE6_M_ptrEv>
    6fd9:	48 89 18             	mov    %rbx,(%rax)
    6fdc:	90                   	nop
    6fdd:	48 8b 5d f8          	mov    -0x8(%rbp),%rbx
    6fe1:	c9                   	leave
    6fe2:	c3                   	ret

0000000000006fe3 <_ZSt3getILm0EJP10BipoloNodeSt14default_deleteIS0_EEERNSt13tuple_elementIXT_ESt5tupleIJDpT0_EEE4typeERS8_>:
    6fe3:	f3 0f 1e fa          	endbr64
    6fe7:	55                   	push   %rbp
    6fe8:	48 89 e5             	mov    %rsp,%rbp
    6feb:	48 83 ec 10          	sub    $0x10,%rsp
    6fef:	48 89 7d f8          	mov    %rdi,-0x8(%rbp)
    6ff3:	48 8b 45 f8          	mov    -0x8(%rbp),%rax
    6ff7:	48 89 c7             	mov    %rax,%rdi
    6ffa:	e8 c8 09 00 00       	call   79c7 <_ZSt12__get_helperILm0EP10BipoloNodeJSt14default_deleteIS0_EEERT0_RSt11_Tuple_implIXT_EJS4_DpT1_EE>
    6fff:	c9                   	leave
    7000:	c3                   	ret
    7001:	90                   	nop

0000000000007002 <_ZNSt15__uniq_ptr_implI10BipoloNodeSt14default_deleteIS0_EE10_M_deleterEv>:
    7002:	f3 0f 1e fa          	endbr64
    7006:	55                   	push   %rbp
    7007:	48 89 e5             	mov    %rsp,%rbp
    700a:	48 83 ec 10          	sub    $0x10,%rsp
    700e:	48 89 7d f8          	mov    %rdi,-0x8(%rbp)
    7012:	48 8b 45 f8          	mov    -0x8(%rbp),%rax
    7016:	48 89 c7             	mov    %rax,%rdi
    7019:	e8 c7 09 00 00       	call   79e5 <_ZSt3getILm1EJP10BipoloNodeSt14default_deleteIS0_EEERNSt13tuple_elementIXT_ESt5tupleIJDpT0_EEE4typeERS8_>
    701e:	c9                   	leave
    701f:	c3                   	ret

0000000000007020 <_ZNSt15__uniq_ptr_implI10BipoloNodeSt14default_deleteIS0_EE7releaseEv>:
    7020:	f3 0f 1e fa          	endbr64
    7024:	55                   	push   %rbp
    7025:	48 89 e5             	mov    %rsp,%rbp
    7028:	48 83 ec 20          	sub    $0x20,%rsp
    702c:	48 89 7d e8          	mov    %rdi,-0x18(%rbp)
    7030:	48 8b 45 e8          	mov    -0x18(%rbp),%rax
    7034:	48 89 c7             	mov    %rax,%rdi
    7037:	e8 a2 ed ff ff       	call   5dde <_ZNSt15__uniq_ptr_implI10BipoloNodeSt14default_deleteIS0_EE6_M_ptrEv>
    703c:	48 8b 00             	mov    (%rax),%rax
    703f:	48 89 45 f8          	mov    %rax,-0x8(%rbp)
    7043:	48 8b 45 e8          	mov    -0x18(%rbp),%rax
    7047:	48 89 c7             	mov    %rax,%rdi
    704a:	e8 8f ed ff ff       	call   5dde <_ZNSt15__uniq_ptr_implI10BipoloNodeSt14default_deleteIS0_EE6_M_ptrEv>
    704f:	48 c7 00 00 00 00 00 	movq   $0x0,(%rax)
    7056:	48 8b 45 f8          	mov    -0x8(%rbp),%rax
    705a:	c9                   	leave
    705b:	c3                   	ret

000000000000705c <_ZNSt5tupleIJP14ExpressionNodeSt14default_deleteIS0_EEEC1IRS1_S2_I10BipoloNodeELb1EEEOT_OT0_>:
    705c:	f3 0f 1e fa          	endbr64
    7060:	55                   	push   %rbp
    7061:	48 89 e5             	mov    %rsp,%rbp
    7064:	41 54                	push   %r12
    7066:	53                   	push   %rbx
    7067:	48 83 ec 20          	sub    $0x20,%rsp
    706b:	48 89 7d e8          	mov    %rdi,-0x18(%rbp)
    706f:	48 89 75 e0          	mov    %rsi,-0x20(%rbp)
    7073:	48 89 55 d8          	mov    %rdx,-0x28(%rbp)
    7077:	48 8b 5d e8          	mov    -0x18(%rbp),%rbx
    707b:	48 8b 45 d8          	mov    -0x28(%rbp),%rax
    707f:	48 89 c7             	mov    %rax,%rdi
    7082:	e8 61 ee ff ff       	call   5ee8 <_ZSt7forwardISt14default_deleteI10BipoloNodeEEOT_RNSt16remove_referenceIS3_E4typeE>
    7087:	49 89 c4             	mov    %rax,%r12
    708a:	48 8b 45 e0          	mov    -0x20(%rbp),%rax
    708e:	48 89 c7             	mov    %rax,%rdi
    7091:	e8 6d 09 00 00       	call   7a03 <_ZSt7forwardIRP14ExpressionNodeEOT_RNSt16remove_referenceIS3_E4typeE>
    7096:	4c 89 e2             	mov    %r12,%rdx
    7099:	48 89 c6             	mov    %rax,%rsi
    709c:	48 89 df             	mov    %rbx,%rdi
    709f:	e8 72 09 00 00       	call   7a16 <_ZNSt11_Tuple_implILm0EJP14ExpressionNodeSt14default_deleteIS0_EEEC1IRS1_JS2_I10BipoloNodeEEvEEOT_DpOT0_>
    70a4:	90                   	nop
    70a5:	48 83 c4 20          	add    $0x20,%rsp
    70a9:	5b                   	pop    %rbx
    70aa:	41 5c                	pop    %r12
    70ac:	5d                   	pop    %rbp
    70ad:	c3                   	ret

00000000000070ae <_ZSt3getILm1EJP14ExpressionNodeSt14default_deleteIS0_EEERNSt13tuple_elementIXT_ESt5tupleIJDpT0_EEE4typeERS8_>:
    70ae:	f3 0f 1e fa          	endbr64
    70b2:	55                   	push   %rbp
    70b3:	48 89 e5             	mov    %rsp,%rbp
    70b6:	48 83 ec 10          	sub    $0x10,%rsp
    70ba:	48 89 7d f8          	mov    %rdi,-0x8(%rbp)
    70be:	48 8b 45 f8          	mov    -0x8(%rbp),%rax
    70c2:	48 89 c7             	mov    %rax,%rdi
    70c5:	e8 a5 09 00 00       	call   7a6f <_ZSt12__get_helperILm1ESt14default_deleteI14ExpressionNodeEJEERT0_RSt11_Tuple_implIXT_EJS3_DpT1_EE>
    70ca:	c9                   	leave
    70cb:	c3                   	ret

00000000000070cc <_ZNSt15__uniq_ptr_implI13OperationNodeSt14default_deleteIS0_EEC1EPS0_>:
    70cc:	f3 0f 1e fa          	endbr64
    70d0:	55                   	push   %rbp
    70d1:	48 89 e5             	mov    %rsp,%rbp
    70d4:	53                   	push   %rbx
    70d5:	48 83 ec 18          	sub    $0x18,%rsp
    70d9:	48 89 7d e8          	mov    %rdi,-0x18(%rbp)
    70dd:	48 89 75 e0          	mov    %rsi,-0x20(%rbp)
    70e1:	48 8b 45 e8          	mov    -0x18(%rbp),%rax
    70e5:	48 89 c7             	mov    %rax,%rdi
    70e8:	e8 a1 09 00 00       	call   7a8e <_ZNSt5tupleIJP13OperationNodeSt14default_deleteIS0_EEEC1ILb1ELb1EEEv>
    70ed:	48 8b 5d e0          	mov    -0x20(%rbp),%rbx
    70f1:	48 8b 45 e8          	mov    -0x18(%rbp),%rax
    70f5:	48 89 c7             	mov    %rax,%rdi
    70f8:	e8 af ef ff ff       	call   60ac <_ZNSt15__uniq_ptr_implI13OperationNodeSt14default_deleteIS0_EE6_M_ptrEv>
    70fd:	48 89 18             	mov    %rbx,(%rax)
    7100:	90                   	nop
    7101:	48 8b 5d f8          	mov    -0x8(%rbp),%rbx
    7105:	c9                   	leave
    7106:	c3                   	ret

0000000000007107 <_ZSt3getILm0EJP13OperationNodeSt14default_deleteIS0_EEERNSt13tuple_elementIXT_ESt5tupleIJDpT0_EEE4typeERS8_>:
    7107:	f3 0f 1e fa          	endbr64
    710b:	55                   	push   %rbp
    710c:	48 89 e5             	mov    %rsp,%rbp
    710f:	48 83 ec 10          	sub    $0x10,%rsp
    7113:	48 89 7d f8          	mov    %rdi,-0x8(%rbp)
    7117:	48 8b 45 f8          	mov    -0x8(%rbp),%rax
    711b:	48 89 c7             	mov    %rax,%rdi
    711e:	e8 8a 09 00 00       	call   7aad <_ZSt12__get_helperILm0EP13OperationNodeJSt14default_deleteIS0_EEERT0_RSt11_Tuple_implIXT_EJS4_DpT1_EE>
    7123:	c9                   	leave
    7124:	c3                   	ret
    7125:	90                   	nop

0000000000007126 <_ZNSt15__uniq_ptr_implI13OperationNodeSt14default_deleteIS0_EE10_M_deleterEv>:
    7126:	f3 0f 1e fa          	endbr64
    712a:	55                   	push   %rbp
    712b:	48 89 e5             	mov    %rsp,%rbp
    712e:	48 83 ec 10          	sub    $0x10,%rsp
    7132:	48 89 7d f8          	mov    %rdi,-0x8(%rbp)
    7136:	48 8b 45 f8          	mov    -0x8(%rbp),%rax
    713a:	48 89 c7             	mov    %rax,%rdi
    713d:	e8 89 09 00 00       	call   7acb <_ZSt3getILm1EJP13OperationNodeSt14default_deleteIS0_EEERNSt13tuple_elementIXT_ESt5tupleIJDpT0_EEE4typeERS8_>
    7142:	c9                   	leave
    7143:	c3                   	ret

0000000000007144 <_ZNSt15__uniq_ptr_implI13OperationNodeSt14default_deleteIS0_EE7releaseEv>:
    7144:	f3 0f 1e fa          	endbr64
    7148:	55                   	push   %rbp
    7149:	48 89 e5             	mov    %rsp,%rbp
    714c:	48 83 ec 20          	sub    $0x20,%rsp
    7150:	48 89 7d e8          	mov    %rdi,-0x18(%rbp)
    7154:	48 8b 45 e8          	mov    -0x18(%rbp),%rax
    7158:	48 89 c7             	mov    %rax,%rdi
    715b:	e8 4c ef ff ff       	call   60ac <_ZNSt15__uniq_ptr_implI13OperationNodeSt14default_deleteIS0_EE6_M_ptrEv>
    7160:	48 8b 00             	mov    (%rax),%rax
    7163:	48 89 45 f8          	mov    %rax,-0x8(%rbp)
    7167:	48 8b 45 e8          	mov    -0x18(%rbp),%rax
    716b:	48 89 c7             	mov    %rax,%rdi
    716e:	e8 39 ef ff ff       	call   60ac <_ZNSt15__uniq_ptr_implI13OperationNodeSt14default_deleteIS0_EE6_M_ptrEv>
    7173:	48 c7 00 00 00 00 00 	movq   $0x0,(%rax)
    717a:	48 8b 45 f8          	mov    -0x8(%rbp),%rax
    717e:	c9                   	leave
    717f:	c3                   	ret

0000000000007180 <_ZNSt15__uniq_ptr_implI8CircuitoSt14default_deleteIS0_EEC1EPS0_>:
    7180:	f3 0f 1e fa          	endbr64
    7184:	55                   	push   %rbp
    7185:	48 89 e5             	mov    %rsp,%rbp
    7188:	53                   	push   %rbx
    7189:	48 83 ec 18          	sub    $0x18,%rsp
    718d:	48 89 7d e8          	mov    %rdi,-0x18(%rbp)
    7191:	48 89 75 e0          	mov    %rsi,-0x20(%rbp)
    7195:	48 8b 45 e8          	mov    -0x18(%rbp),%rax
    7199:	48 89 c7             	mov    %rax,%rdi
    719c:	e8 49 09 00 00       	call   7aea <_ZNSt5tupleIJP8CircuitoSt14default_deleteIS0_EEEC1ILb1ELb1EEEv>
    71a1:	48 8b 5d e0          	mov    -0x20(%rbp),%rbx
    71a5:	48 8b 45 e8          	mov    -0x18(%rbp),%rax
    71a9:	48 89 c7             	mov    %rax,%rdi
    71ac:	e8 df f0 ff ff       	call   6290 <_ZNSt15__uniq_ptr_implI8CircuitoSt14default_deleteIS0_EE6_M_ptrEv>
    71b1:	48 89 18             	mov    %rbx,(%rax)
    71b4:	90                   	nop
    71b5:	48 8b 5d f8          	mov    -0x8(%rbp),%rbx
    71b9:	c9                   	leave
    71ba:	c3                   	ret

00000000000071bb <_ZSt3getILm0EJP8CircuitoSt14default_deleteIS0_EEERNSt13tuple_elementIXT_ESt5tupleIJDpT0_EEE4typeERS8_>:
    71bb:	f3 0f 1e fa          	endbr64
    71bf:	55                   	push   %rbp
    71c0:	48 89 e5             	mov    %rsp,%rbp
    71c3:	48 83 ec 10          	sub    $0x10,%rsp
    71c7:	48 89 7d f8          	mov    %rdi,-0x8(%rbp)
    71cb:	48 8b 45 f8          	mov    -0x8(%rbp),%rax
    71cf:	48 89 c7             	mov    %rax,%rdi
    71d2:	e8 32 09 00 00       	call   7b09 <_ZSt12__get_helperILm0EP8CircuitoJSt14default_deleteIS0_EEERT0_RSt11_Tuple_implIXT_EJS4_DpT1_EE>
    71d7:	c9                   	leave
    71d8:	c3                   	ret
    71d9:	90                   	nop

00000000000071da <_ZNSt15__uniq_ptr_implI8CircuitoSt14default_deleteIS0_EE10_M_deleterEv>:
    71da:	f3 0f 1e fa          	endbr64
    71de:	55                   	push   %rbp
    71df:	48 89 e5             	mov    %rsp,%rbp
    71e2:	48 83 ec 10          	sub    $0x10,%rsp
    71e6:	48 89 7d f8          	mov    %rdi,-0x8(%rbp)
    71ea:	48 8b 45 f8          	mov    -0x8(%rbp),%rax
    71ee:	48 89 c7             	mov    %rax,%rdi
    71f1:	e8 31 09 00 00       	call   7b27 <_ZSt3getILm1EJP8CircuitoSt14default_deleteIS0_EEERNSt13tuple_elementIXT_ESt5tupleIJDpT0_EEE4typeERS8_>
    71f6:	c9                   	leave
    71f7:	c3                   	ret

00000000000071f8 <_ZNSt23_Rb_tree_const_iteratorI6bipoloEC1EPKSt18_Rb_tree_node_base>:
    71f8:	f3 0f 1e fa          	endbr64
    71fc:	55                   	push   %rbp
    71fd:	48 89 e5             	mov    %rsp,%rbp
    7200:	48 89 7d f8          	mov    %rdi,-0x8(%rbp)
    7204:	48 89 75 f0          	mov    %rsi,-0x10(%rbp)
    7208:	48 8b 45 f8          	mov    -0x8(%rbp),%rax
    720c:	48 8b 55 f0          	mov    -0x10(%rbp),%rdx
    7210:	48 89 10             	mov    %rdx,(%rax)
    7213:	90                   	nop
    7214:	5d                   	pop    %rbp
    7215:	c3                   	ret

0000000000007216 <_ZNK9__gnu_cxx16__aligned_membufI6bipoloE6_M_ptrEv>:
    7216:	f3 0f 1e fa          	endbr64
    721a:	55                   	push   %rbp
    721b:	48 89 e5             	mov    %rsp,%rbp
    721e:	48 83 ec 10          	sub    $0x10,%rsp
    7222:	48 89 7d f8          	mov    %rdi,-0x8(%rbp)
    7226:	48 8b 45 f8          	mov    -0x8(%rbp),%rax
    722a:	48 89 c7             	mov    %rax,%rdi
    722d:	e8 14 09 00 00       	call   7b46 <_ZNK9__gnu_cxx16__aligned_membufI6bipoloE7_M_addrEv>
    7232:	c9                   	leave
    7233:	c3                   	ret

0000000000007234 <_ZNKSt15__uniq_ptr_implI8CircuitoSt14default_deleteIS0_EE6_M_ptrEv>:
    7234:	f3 0f 1e fa          	endbr64
    7238:	55                   	push   %rbp
    7239:	48 89 e5             	mov    %rsp,%rbp
    723c:	48 83 ec 10          	sub    $0x10,%rsp
    7240:	48 89 7d f8          	mov    %rdi,-0x8(%rbp)
    7244:	48 8b 45 f8          	mov    -0x8(%rbp),%rax
    7248:	48 89 c7             	mov    %rax,%rdi
    724b:	e8 08 09 00 00       	call   7b58 <_ZSt3getILm0EJP8CircuitoSt14default_deleteIS0_EEERKNSt13tuple_elementIXT_ESt5tupleIJDpT0_EEE4typeERKS8_>
    7250:	48 8b 00             	mov    (%rax),%rax
    7253:	c9                   	leave
    7254:	c3                   	ret
    7255:	90                   	nop

0000000000007256 <_ZNSt11_Tuple_implILm0EJP8CircuitoSt14default_deleteIS0_EEEC1EOS4_>:
    7256:	f3 0f 1e fa          	endbr64
    725a:	55                   	push   %rbp
    725b:	48 89 e5             	mov    %rsp,%rbp
    725e:	48 83 ec 10          	sub    $0x10,%rsp
    7262:	48 89 7d f8          	mov    %rdi,-0x8(%rbp)
    7266:	48 89 75 f0          	mov    %rsi,-0x10(%rbp)
    726a:	48 8b 55 f0          	mov    -0x10(%rbp),%rdx
    726e:	48 8b 45 f8          	mov    -0x8(%rbp),%rax
    7272:	48 89 d6             	mov    %rdx,%rsi
    7275:	48 89 c7             	mov    %rax,%rdi
    7278:	e8 0b 09 00 00       	call   7b88 <_ZNSt11_Tuple_implILm1EJSt14default_deleteI8CircuitoEEEC1EOS3_>
    727d:	48 8b 45 f8          	mov    -0x8(%rbp),%rax
    7281:	48 8b 55 f0          	mov    -0x10(%rbp),%rdx
    7285:	48 8b 12             	mov    (%rdx),%rdx
    7288:	48 89 10             	mov    %rdx,(%rax)
    728b:	90                   	nop
    728c:	c9                   	leave
    728d:	c3                   	ret

000000000000728e <_ZNSt5tupleIJP8CircuitoSt14default_deleteIS0_EEEC1EOS4_>:
    728e:	f3 0f 1e fa          	endbr64
    7292:	55                   	push   %rbp
    7293:	48 89 e5             	mov    %rsp,%rbp
    7296:	48 83 ec 10          	sub    $0x10,%rsp
    729a:	48 89 7d f8          	mov    %rdi,-0x8(%rbp)
    729e:	48 89 75 f0          	mov    %rsi,-0x10(%rbp)
    72a2:	48 8b 45 f8          	mov    -0x8(%rbp),%rax
    72a6:	48 8b 55 f0          	mov    -0x10(%rbp),%rdx
    72aa:	48 89 d6             	mov    %rdx,%rsi
    72ad:	48 89 c7             	mov    %rax,%rdi
    72b0:	e8 a1 ff ff ff       	call   7256 <_ZNSt11_Tuple_implILm0EJP8CircuitoSt14default_deleteIS0_EEEC1EOS4_>
    72b5:	90                   	nop
    72b6:	c9                   	leave
    72b7:	c3                   	ret

00000000000072b8 <_ZNSt15__uniq_ptr_implI8CircuitoSt14default_deleteIS0_EEC1EOS3_>:
    72b8:	f3 0f 1e fa          	endbr64
    72bc:	55                   	push   %rbp
    72bd:	48 89 e5             	mov    %rsp,%rbp
    72c0:	53                   	push   %rbx
    72c1:	48 83 ec 18          	sub    $0x18,%rsp
    72c5:	48 89 7d e8          	mov    %rdi,-0x18(%rbp)
    72c9:	48 89 75 e0          	mov    %rsi,-0x20(%rbp)
    72cd:	48 8b 5d e8          	mov    -0x18(%rbp),%rbx
    72d1:	48 8b 45 e0          	mov    -0x20(%rbp),%rax
    72d5:	48 89 c7             	mov    %rax,%rdi
    72d8:	e8 99 08 00 00       	call   7b76 <_ZSt4moveIRSt5tupleIJP8CircuitoSt14default_deleteIS1_EEEEONSt16remove_referenceIT_E4typeEOS8_>
    72dd:	48 89 c6             	mov    %rax,%rsi
    72e0:	48 89 df             	mov    %rbx,%rdi
    72e3:	e8 a6 ff ff ff       	call   728e <_ZNSt5tupleIJP8CircuitoSt14default_deleteIS0_EEEC1EOS4_>
    72e8:	48 8b 45 e0          	mov    -0x20(%rbp),%rax
    72ec:	48 89 c7             	mov    %rax,%rdi
    72ef:	e8 9c ef ff ff       	call   6290 <_ZNSt15__uniq_ptr_implI8CircuitoSt14default_deleteIS0_EE6_M_ptrEv>
    72f4:	48 c7 00 00 00 00 00 	movq   $0x0,(%rax)
    72fb:	90                   	nop
    72fc:	48 8b 5d f8          	mov    -0x8(%rbp),%rbx
    7300:	c9                   	leave
    7301:	c3                   	ret

0000000000007302 <_ZNSt15__new_allocatorI6bipoloE10deallocateEPS0_m>:
    7302:	f3 0f 1e fa          	endbr64
    7306:	55                   	push   %rbp
    7307:	48 89 e5             	mov    %rsp,%rbp
    730a:	48 83 ec 20          	sub    $0x20,%rsp
    730e:	48 89 7d f8          	mov    %rdi,-0x8(%rbp)
    7312:	48 89 75 f0          	mov    %rsi,-0x10(%rbp)
    7316:	48 89 55 e8          	mov    %rdx,-0x18(%rbp)
    731a:	48 8b 55 e8          	mov    -0x18(%rbp),%rdx
    731e:	48 89 d0             	mov    %rdx,%rax
    7321:	48 c1 e0 03          	shl    $0x3,%rax
    7325:	48 29 d0             	sub    %rdx,%rax
    7328:	48 c1 e0 03          	shl    $0x3,%rax
    732c:	48 89 c2             	mov    %rax,%rdx
    732f:	48 8b 45 f0          	mov    -0x10(%rbp),%rax
    7333:	48 89 d6             	mov    %rdx,%rsi
    7336:	48 89 c7             	mov    %rax,%rdi
    7339:	e8 b2 af ff ff       	call   22f0 <_ZdlPvm@plt>
    733e:	c9                   	leave
    733f:	c3                   	ret

0000000000007340 <_ZNSt12_Destroy_auxILb0EE9__destroyIP6bipoloEEvT_S4_>:
    7340:	f3 0f 1e fa          	endbr64
    7344:	55                   	push   %rbp
    7345:	48 89 e5             	mov    %rsp,%rbp
    7348:	48 83 ec 10          	sub    $0x10,%rsp
    734c:	48 89 7d f8          	mov    %rdi,-0x8(%rbp)
    7350:	48 89 75 f0          	mov    %rsi,-0x10(%rbp)
    7354:	eb 19                	jmp    736f <_ZNSt12_Destroy_auxILb0EE9__destroyIP6bipoloEEvT_S4_+0x2f>
    7356:	48 8b 45 f8          	mov    -0x8(%rbp),%rax
    735a:	48 89 c7             	mov    %rax,%rdi
    735d:	e8 39 08 00 00       	call   7b9b <_ZSt11__addressofI6bipoloEPT_RS1_>
    7362:	48 89 c7             	mov    %rax,%rdi
    7365:	e8 43 08 00 00       	call   7bad <_ZSt8_DestroyI6bipoloEvPT_>
    736a:	48 83 45 f8 38       	addq   $0x38,-0x8(%rbp)
    736f:	48 8b 45 f8          	mov    -0x8(%rbp),%rax
    7373:	48 3b 45 f0          	cmp    -0x10(%rbp),%rax
    7377:	75 dd                	jne    7356 <_ZNSt12_Destroy_auxILb0EE9__destroyIP6bipoloEEvT_S4_+0x16>
    7379:	90                   	nop
    737a:	90                   	nop
    737b:	c9                   	leave
    737c:	c3                   	ret
    737d:	90                   	nop

000000000000737e <_ZNKSt6vectorI6bipoloSaIS0_EE8max_sizeEv>:
    737e:	f3 0f 1e fa          	endbr64
    7382:	55                   	push   %rbp
    7383:	48 89 e5             	mov    %rsp,%rbp
    7386:	48 83 ec 10          	sub    $0x10,%rsp
    738a:	48 89 7d f8          	mov    %rdi,-0x8(%rbp)
    738e:	48 8b 45 f8          	mov    -0x8(%rbp),%rax
    7392:	48 89 c7             	mov    %rax,%rdi
    7395:	e8 b4 08 00 00       	call   7c4e <_ZNKSt12_Vector_baseI6bipoloSaIS0_EE19_M_get_Tp_allocatorEv>
    739a:	48 89 c7             	mov    %rax,%rdi
    739d:	e8 2a 08 00 00       	call   7bcc <_ZNSt6vectorI6bipoloSaIS0_EE11_S_max_sizeERKS1_>
    73a2:	c9                   	leave
    73a3:	c3                   	ret

00000000000073a4 <_ZNKSt6vectorI6bipoloSaIS0_EE4sizeEv>:
    73a4:	f3 0f 1e fa          	endbr64
    73a8:	55                   	push   %rbp
    73a9:	48 89 e5             	mov    %rsp,%rbp
    73ac:	48 89 7d f8          	mov    %rdi,-0x8(%rbp)
    73b0:	48 8b 45 f8          	mov    -0x8(%rbp),%rax
    73b4:	48 8b 50 08          	mov    0x8(%rax),%rdx
    73b8:	48 8b 45 f8          	mov    -0x8(%rbp),%rax
    73bc:	48 8b 00             	mov    (%rax),%rax
    73bf:	48 29 c2             	sub    %rax,%rdx
    73c2:	48 c1 fa 03          	sar    $0x3,%rdx
    73c6:	48 b8 b7 6d db b6 6d 	movabs $0x6db6db6db6db6db7,%rax
    73cd:	db b6 6d 
    73d0:	48 0f af c2          	imul   %rdx,%rax
    73d4:	5d                   	pop    %rbp
    73d5:	c3                   	ret

00000000000073d6 <_ZSt12__relocate_aIP6bipoloS1_SaIS0_EET0_T_S4_S3_RT1_>:
    73d6:	f3 0f 1e fa          	endbr64
    73da:	55                   	push   %rbp
    73db:	48 89 e5             	mov    %rsp,%rbp
    73de:	41 54                	push   %r12
    73e0:	53                   	push   %rbx
    73e1:	48 83 ec 20          	sub    $0x20,%rsp
    73e5:	48 89 7d e8          	mov    %rdi,-0x18(%rbp)
    73e9:	48 89 75 e0          	mov    %rsi,-0x20(%rbp)
    73ed:	48 89 55 d8          	mov    %rdx,-0x28(%rbp)
    73f1:	48 89 4d d0          	mov    %rcx,-0x30(%rbp)
    73f5:	48 8b 45 d8          	mov    -0x28(%rbp),%rax
    73f9:	48 89 c7             	mov    %rax,%rdi
    73fc:	e8 d4 08 00 00       	call   7cd5 <_ZSt12__niter_baseIP6bipoloET_S2_>
    7401:	49 89 c4             	mov    %rax,%r12
    7404:	48 8b 45 e0          	mov    -0x20(%rbp),%rax
    7408:	48 89 c7             	mov    %rax,%rdi
    740b:	e8 c5 08 00 00       	call   7cd5 <_ZSt12__niter_baseIP6bipoloET_S2_>
    7410:	48 89 c3             	mov    %rax,%rbx
    7413:	48 8b 45 e8          	mov    -0x18(%rbp),%rax
    7417:	48 89 c7             	mov    %rax,%rdi
    741a:	e8 b6 08 00 00       	call   7cd5 <_ZSt12__niter_baseIP6bipoloET_S2_>
    741f:	48 89 c7             	mov    %rax,%rdi
    7422:	48 8b 45 d0          	mov    -0x30(%rbp),%rax
    7426:	48 89 c1             	mov    %rax,%rcx
    7429:	4c 89 e2             	mov    %r12,%rdx
    742c:	48 89 de             	mov    %rbx,%rsi
    742f:	e8 b3 08 00 00       	call   7ce7 <_ZSt14__relocate_a_1IP6bipoloS1_SaIS0_EET0_T_S4_S3_RT1_>
    7434:	48 83 c4 20          	add    $0x20,%rsp
    7438:	5b                   	pop    %rbx
    7439:	41 5c                	pop    %r12
    743b:	5d                   	pop    %rbp
    743c:	c3                   	ret
    743d:	90                   	nop

000000000000743e <_ZNSt4pairIPSt18_Rb_tree_node_baseS1_EC1IS1_S1_Lb1EEERKS1_S5_>:
    743e:	f3 0f 1e fa          	endbr64
    7442:	55                   	push   %rbp
    7443:	48 89 e5             	mov    %rsp,%rbp
    7446:	48 89 7d f8          	mov    %rdi,-0x8(%rbp)
    744a:	48 89 75 f0          	mov    %rsi,-0x10(%rbp)
    744e:	48 89 55 e8          	mov    %rdx,-0x18(%rbp)
    7452:	48 8b 45 f0          	mov    -0x10(%rbp),%rax
    7456:	48 8b 10             	mov    (%rax),%rdx
    7459:	48 8b 45 f8          	mov    -0x8(%rbp),%rax
    745d:	48 89 10             	mov    %rdx,(%rax)
    7460:	48 8b 45 e8          	mov    -0x18(%rbp),%rax
    7464:	48 8b 10             	mov    (%rax),%rdx
    7467:	48 8b 45 f8          	mov    -0x8(%rbp),%rax
    746b:	48 89 50 08          	mov    %rdx,0x8(%rax)
    746f:	90                   	nop
    7470:	5d                   	pop    %rbp
    7471:	c3                   	ret

0000000000007472 <_ZSt12__get_helperILm0EP14ExpressionNodeJSt14default_deleteIS0_EEERT0_RSt11_Tuple_implIXT_EJS4_DpT1_EE>:
    7472:	f3 0f 1e fa          	endbr64
    7476:	55                   	push   %rbp
    7477:	48 89 e5             	mov    %rsp,%rbp
    747a:	48 83 ec 10          	sub    $0x10,%rsp
    747e:	48 89 7d f8          	mov    %rdi,-0x8(%rbp)
    7482:	48 8b 45 f8          	mov    -0x8(%rbp),%rax
    7486:	48 89 c7             	mov    %rax,%rdi
    7489:	e8 e0 08 00 00       	call   7d6e <_ZNSt11_Tuple_implILm0EJP14ExpressionNodeSt14default_deleteIS0_EEE7_M_headERS4_>
    748e:	c9                   	leave
    748f:	c3                   	ret

0000000000007490 <_ZSt3getILm0EJP14ExpressionNodeSt14default_deleteIS0_EEERKNSt13tuple_elementIXT_ESt5tupleIJDpT0_EEE4typeERKS8_>:
    7490:	f3 0f 1e fa          	endbr64
    7494:	55                   	push   %rbp
    7495:	48 89 e5             	mov    %rsp,%rbp
    7498:	48 83 ec 10          	sub    $0x10,%rsp
    749c:	48 89 7d f8          	mov    %rdi,-0x8(%rbp)
    74a0:	48 8b 45 f8          	mov    -0x8(%rbp),%rax
    74a4:	48 89 c7             	mov    %rax,%rdi
    74a7:	e8 e0 08 00 00       	call   7d8c <_ZSt12__get_helperILm0EP14ExpressionNodeJSt14default_deleteIS0_EEERKT0_RKSt11_Tuple_implIXT_EJS4_DpT1_EE>
    74ac:	c9                   	leave
    74ad:	c3                   	ret

00000000000074ae <_ZNSt8_Rb_treeI6bipoloS0_St9_IdentityIS0_ESt4lessIS0_ESaIS0_EE15_M_destroy_nodeEPSt13_Rb_tree_nodeIS0_E>:
    74ae:	f3 0f 1e fa          	endbr64
    74b2:	55                   	push   %rbp
    74b3:	48 89 e5             	mov    %rsp,%rbp
    74b6:	53                   	push   %rbx
    74b7:	48 83 ec 38          	sub    $0x38,%rsp
    74bb:	48 89 7d c8          	mov    %rdi,-0x38(%rbp)
    74bf:	48 89 75 c0          	mov    %rsi,-0x40(%rbp)
    74c3:	48 8b 45 c0          	mov    -0x40(%rbp),%rax
    74c7:	48 89 c7             	mov    %rax,%rdi
    74ca:	e8 ed 08 00 00       	call   7dbc <_ZNSt13_Rb_tree_nodeI6bipoloE9_M_valptrEv>
    74cf:	48 89 c3             	mov    %rax,%rbx
    74d2:	48 8b 45 c8          	mov    -0x38(%rbp),%rax
    74d6:	48 89 c7             	mov    %rax,%rdi
    74d9:	e8 cc 08 00 00       	call   7daa <_ZNSt8_Rb_treeI6bipoloS0_St9_IdentityIS0_ESt4lessIS0_ESaIS0_EE21_M_get_Node_allocatorEv>
    74de:	48 89 45 d0          	mov    %rax,-0x30(%rbp)
    74e2:	48 89 5d d8          	mov    %rbx,-0x28(%rbp)
    74e6:	48 8b 45 d0          	mov    -0x30(%rbp),%rax
    74ea:	48 89 45 e0          	mov    %rax,-0x20(%rbp)
    74ee:	48 8b 45 d8          	mov    -0x28(%rbp),%rax
    74f2:	48 89 45 e8          	mov    %rax,-0x18(%rbp)
    74f6:	48 8b 45 e8          	mov    -0x18(%rbp),%rax
    74fa:	48 89 c7             	mov    %rax,%rdi
    74fd:	e8 5a be ff ff       	call   335c <_ZN6bipoloD1Ev>
    7502:	90                   	nop
    7503:	90                   	nop
    7504:	90                   	nop
    7505:	48 8b 5d f8          	mov    -0x8(%rbp),%rbx
    7509:	c9                   	leave
    750a:	c3                   	ret
    750b:	90                   	nop

000000000000750c <_ZNSt8_Rb_treeI6bipoloS0_St9_IdentityIS0_ESt4lessIS0_ESaIS0_EE11_M_put_nodeEPSt13_Rb_tree_nodeIS0_E>:
    750c:	f3 0f 1e fa          	endbr64
    7510:	55                   	push   %rbp
    7511:	48 89 e5             	mov    %rsp,%rbp
    7514:	48 83 ec 30          	sub    $0x30,%rsp
    7518:	48 89 7d d8          	mov    %rdi,-0x28(%rbp)
    751c:	48 89 75 d0          	mov    %rsi,-0x30(%rbp)
    7520:	48 8b 45 d8          	mov    -0x28(%rbp),%rax
    7524:	48 89 c7             	mov    %rax,%rdi
    7527:	e8 7e 08 00 00       	call   7daa <_ZNSt8_Rb_treeI6bipoloS0_St9_IdentityIS0_ESt4lessIS0_ESaIS0_EE21_M_get_Node_allocatorEv>
    752c:	48 89 45 e8          	mov    %rax,-0x18(%rbp)
    7530:	48 8b 45 d0          	mov    -0x30(%rbp),%rax
    7534:	48 89 45 f0          	mov    %rax,-0x10(%rbp)
    7538:	48 c7 45 f8 01 00 00 	movq   $0x1,-0x8(%rbp)
    753f:	00 
    7540:	48 8b 55 f8          	mov    -0x8(%rbp),%rdx
    7544:	48 8b 4d f0          	mov    -0x10(%rbp),%rcx
    7548:	48 8b 45 e8          	mov    -0x18(%rbp),%rax
    754c:	48 89 ce             	mov    %rcx,%rsi
    754f:	48 89 c7             	mov    %rax,%rdi
    7552:	e8 81 0c 00 00       	call   81d8 <_ZNSt15__new_allocatorISt13_Rb_tree_nodeI6bipoloEE10deallocateEPS2_m>
    7557:	90                   	nop
    7558:	90                   	nop
    7559:	c9                   	leave
    755a:	c3                   	ret
    755b:	90                   	nop

000000000000755c <_ZNSt8_Rb_treeIiiSt9_IdentityIiESt4lessIiESaIiEE15_M_destroy_nodeEPSt13_Rb_tree_nodeIiE>:
    755c:	f3 0f 1e fa          	endbr64
    7560:	55                   	push   %rbp
    7561:	48 89 e5             	mov    %rsp,%rbp
    7564:	53                   	push   %rbx
    7565:	48 83 ec 38          	sub    $0x38,%rsp
    7569:	48 89 7d c8          	mov    %rdi,-0x38(%rbp)
    756d:	48 89 75 c0          	mov    %rsi,-0x40(%rbp)
    7571:	48 8b 45 c0          	mov    -0x40(%rbp),%rax
    7575:	48 89 c7             	mov    %rax,%rdi
    7578:	e8 73 08 00 00       	call   7df0 <_ZNSt13_Rb_tree_nodeIiE9_M_valptrEv>
    757d:	48 89 c3             	mov    %rax,%rbx
    7580:	48 8b 45 c8          	mov    -0x38(%rbp),%rax
    7584:	48 89 c7             	mov    %rax,%rdi
    7587:	e8 52 08 00 00       	call   7dde <_ZNSt8_Rb_treeIiiSt9_IdentityIiESt4lessIiESaIiEE21_M_get_Node_allocatorEv>
    758c:	48 89 45 d0          	mov    %rax,-0x30(%rbp)
    7590:	48 89 5d d8          	mov    %rbx,-0x28(%rbp)
    7594:	48 8b 45 d0          	mov    -0x30(%rbp),%rax
    7598:	48 89 45 e0          	mov    %rax,-0x20(%rbp)
    759c:	48 8b 45 d8          	mov    -0x28(%rbp),%rax
    75a0:	48 89 45 e8          	mov    %rax,-0x18(%rbp)
    75a4:	90                   	nop
    75a5:	90                   	nop
    75a6:	90                   	nop
    75a7:	48 8b 5d f8          	mov    -0x8(%rbp),%rbx
    75ab:	c9                   	leave
    75ac:	c3                   	ret
    75ad:	90                   	nop

00000000000075ae <_ZNSt8_Rb_treeIiiSt9_IdentityIiESt4lessIiESaIiEE11_M_put_nodeEPSt13_Rb_tree_nodeIiE>:
    75ae:	f3 0f 1e fa          	endbr64
    75b2:	55                   	push   %rbp
    75b3:	48 89 e5             	mov    %rsp,%rbp
    75b6:	48 83 ec 30          	sub    $0x30,%rsp
    75ba:	48 89 7d d8          	mov    %rdi,-0x28(%rbp)
    75be:	48 89 75 d0          	mov    %rsi,-0x30(%rbp)
    75c2:	48 8b 45 d8          	mov    -0x28(%rbp),%rax
    75c6:	48 89 c7             	mov    %rax,%rdi
    75c9:	e8 10 08 00 00       	call   7dde <_ZNSt8_Rb_treeIiiSt9_IdentityIiESt4lessIiESaIiEE21_M_get_Node_allocatorEv>
    75ce:	48 89 45 e8          	mov    %rax,-0x18(%rbp)
    75d2:	48 8b 45 d0          	mov    -0x30(%rbp),%rax
    75d6:	48 89 45 f0          	mov    %rax,-0x10(%rbp)
    75da:	48 c7 45 f8 01 00 00 	movq   $0x1,-0x8(%rbp)
    75e1:	00 
    75e2:	48 8b 55 f8          	mov    -0x8(%rbp),%rdx
    75e6:	48 8b 4d f0          	mov    -0x10(%rbp),%rcx
    75ea:	48 8b 45 e8          	mov    -0x18(%rbp),%rax
    75ee:	48 89 ce             	mov    %rcx,%rsi
    75f1:	48 89 c7             	mov    %rax,%rdi
    75f4:	e8 41 0c 00 00       	call   823a <_ZNSt15__new_allocatorISt13_Rb_tree_nodeIiEE10deallocateEPS1_m>
    75f9:	90                   	nop
    75fa:	90                   	nop
    75fb:	c9                   	leave
    75fc:	c3                   	ret
    75fd:	90                   	nop

00000000000075fe <_ZNSt8_Rb_treeIiiSt9_IdentityIiESt4lessIiESaIiEE6_M_endEv>:
    75fe:	f3 0f 1e fa          	endbr64
    7602:	55                   	push   %rbp
    7603:	48 89 e5             	mov    %rsp,%rbp
    7606:	48 89 7d f8          	mov    %rdi,-0x8(%rbp)
    760a:	48 8b 45 f8          	mov    -0x8(%rbp),%rax
    760e:	48 83 c0 08          	add    $0x8,%rax
    7612:	5d                   	pop    %rbp
    7613:	c3                   	ret

0000000000007614 <_ZNSt8_Rb_treeIiiSt9_IdentityIiESt4lessIiESaIiEE6_S_keyEPKSt13_Rb_tree_nodeIiE>:
    7614:	f3 0f 1e fa          	endbr64
    7618:	55                   	push   %rbp
    7619:	48 89 e5             	mov    %rsp,%rbp
    761c:	48 83 ec 20          	sub    $0x20,%rsp
    7620:	48 89 7d e8          	mov    %rdi,-0x18(%rbp)
    7624:	64 48 8b 04 25 28 00 	mov    %fs:0x28,%rax
    762b:	00 00 
    762d:	48 89 45 f8          	mov    %rax,-0x8(%rbp)
    7631:	31 c0                	xor    %eax,%eax
    7633:	48 8b 45 e8          	mov    -0x18(%rbp),%rax
    7637:	48 89 c7             	mov    %rax,%rdi
    763a:	e8 d3 07 00 00       	call   7e12 <_ZNKSt13_Rb_tree_nodeIiE9_M_valptrEv>
    763f:	48 89 c2             	mov    %rax,%rdx
    7642:	48 8d 45 f7          	lea    -0x9(%rbp),%rax
    7646:	48 89 d6             	mov    %rdx,%rsi
    7649:	48 89 c7             	mov    %rax,%rdi
    764c:	e8 b9 f3 ff ff       	call   6a0a <_ZNKSt9_IdentityIiEclERKi>
    7651:	48 8b 55 f8          	mov    -0x8(%rbp),%rdx
    7655:	64 48 2b 14 25 28 00 	sub    %fs:0x28,%rdx
    765c:	00 00 
    765e:	74 05                	je     7665 <_ZNSt8_Rb_treeIiiSt9_IdentityIiESt4lessIiESaIiEE6_S_keyEPKSt13_Rb_tree_nodeIiE+0x51>
    7660:	e8 cb ac ff ff       	call   2330 <__stack_chk_fail@plt>
    7665:	c9                   	leave
    7666:	c3                   	ret
    7667:	90                   	nop

0000000000007668 <_ZNSt8_Rb_treeIiiSt9_IdentityIiESt4lessIiESaIiEE5beginEv>:
    7668:	f3 0f 1e fa          	endbr64
    766c:	55                   	push   %rbp
    766d:	48 89 e5             	mov    %rsp,%rbp
    7670:	48 83 ec 20          	sub    $0x20,%rsp
    7674:	48 89 7d e8          	mov    %rdi,-0x18(%rbp)
    7678:	64 48 8b 04 25 28 00 	mov    %fs:0x28,%rax
    767f:	00 00 
    7681:	48 89 45 f8          	mov    %rax,-0x8(%rbp)
    7685:	31 c0                	xor    %eax,%eax
    7687:	48 8b 45 e8          	mov    -0x18(%rbp),%rax
    768b:	48 8b 50 18          	mov    0x18(%rax),%rdx
    768f:	48 8d 45 f0          	lea    -0x10(%rbp),%rax
    7693:	48 89 d6             	mov    %rdx,%rsi
    7696:	48 89 c7             	mov    %rax,%rdi
    7699:	e8 12 f5 ff ff       	call   6bb0 <_ZNSt17_Rb_tree_iteratorIiEC1EPSt18_Rb_tree_node_base>
    769e:	48 8b 45 f0          	mov    -0x10(%rbp),%rax
    76a2:	48 8b 55 f8          	mov    -0x8(%rbp),%rdx
    76a6:	64 48 2b 14 25 28 00 	sub    %fs:0x28,%rdx
    76ad:	00 00 
    76af:	74 05                	je     76b6 <_ZNSt8_Rb_treeIiiSt9_IdentityIiESt4lessIiESaIiEE5beginEv+0x4e>
    76b1:	e8 7a ac ff ff       	call   2330 <__stack_chk_fail@plt>
    76b6:	c9                   	leave
    76b7:	c3                   	ret

00000000000076b8 <_ZSteqRKSt17_Rb_tree_iteratorIiES2_>:
    76b8:	f3 0f 1e fa          	endbr64
    76bc:	55                   	push   %rbp
    76bd:	48 89 e5             	mov    %rsp,%rbp
    76c0:	48 89 7d f8          	mov    %rdi,-0x8(%rbp)
    76c4:	48 89 75 f0          	mov    %rsi,-0x10(%rbp)
    76c8:	48 8b 45 f8          	mov    -0x8(%rbp),%rax
    76cc:	48 8b 10             	mov    (%rax),%rdx
    76cf:	48 8b 45 f0          	mov    -0x10(%rbp),%rax
    76d3:	48 8b 00             	mov    (%rax),%rax
    76d6:	48 39 c2             	cmp    %rax,%rdx
    76d9:	0f 94 c0             	sete   %al
    76dc:	5d                   	pop    %rbp
    76dd:	c3                   	ret

00000000000076de <_ZNSt4pairIPSt18_Rb_tree_node_baseS1_EC1IRPSt13_Rb_tree_nodeIiERS1_Lb1EEEOT_OT0_>:
    76de:	f3 0f 1e fa          	endbr64
    76e2:	55                   	push   %rbp
    76e3:	48 89 e5             	mov    %rsp,%rbp
    76e6:	48 83 ec 20          	sub    $0x20,%rsp
    76ea:	48 89 7d f8          	mov    %rdi,-0x8(%rbp)
    76ee:	48 89 75 f0          	mov    %rsi,-0x10(%rbp)
    76f2:	48 89 55 e8          	mov    %rdx,-0x18(%rbp)
    76f6:	48 8b 45 f0          	mov    -0x10(%rbp),%rax
    76fa:	48 89 c7             	mov    %rax,%rdi
    76fd:	e8 32 07 00 00       	call   7e34 <_ZSt7forwardIRPSt13_Rb_tree_nodeIiEEOT_RNSt16remove_referenceIS4_E4typeE>
    7702:	48 8b 10             	mov    (%rax),%rdx
    7705:	48 8b 45 f8          	mov    -0x8(%rbp),%rax
    7709:	48 89 10             	mov    %rdx,(%rax)
    770c:	48 8b 45 e8          	mov    -0x18(%rbp),%rax
    7710:	48 89 c7             	mov    %rax,%rdi
    7713:	e8 44 06 00 00       	call   7d5c <_ZSt7forwardIRPSt18_Rb_tree_node_baseEOT_RNSt16remove_referenceIS3_E4typeE>
    7718:	48 8b 10             	mov    (%rax),%rdx
    771b:	48 8b 45 f8          	mov    -0x8(%rbp),%rax
    771f:	48 89 50 08          	mov    %rdx,0x8(%rax)
    7723:	90                   	nop
    7724:	c9                   	leave
    7725:	c3                   	ret

0000000000007726 <_ZNSt17_Rb_tree_iteratorIiEmmEv>:
    7726:	f3 0f 1e fa          	endbr64
    772a:	55                   	push   %rbp
    772b:	48 89 e5             	mov    %rsp,%rbp
    772e:	48 83 ec 10          	sub    $0x10,%rsp
    7732:	48 89 7d f8          	mov    %rdi,-0x8(%rbp)
    7736:	48 8b 45 f8          	mov    -0x8(%rbp),%rax
    773a:	48 8b 00             	mov    (%rax),%rax
    773d:	48 89 c7             	mov    %rax,%rdi
    7740:	e8 bb ab ff ff       	call   2300 <_ZSt18_Rb_tree_decrementPSt18_Rb_tree_node_base@plt>
    7745:	48 8b 55 f8          	mov    -0x8(%rbp),%rdx
    7749:	48 89 02             	mov    %rax,(%rdx)
    774c:	48 8b 45 f8          	mov    -0x8(%rbp),%rax
    7750:	c9                   	leave
    7751:	c3                   	ret

0000000000007752 <_ZNSt8_Rb_treeIiiSt9_IdentityIiESt4lessIiESaIiEE6_S_keyEPKSt18_Rb_tree_node_base>:
    7752:	f3 0f 1e fa          	endbr64
    7756:	55                   	push   %rbp
    7757:	48 89 e5             	mov    %rsp,%rbp
    775a:	48 83 ec 10          	sub    $0x10,%rsp
    775e:	48 89 7d f8          	mov    %rdi,-0x8(%rbp)
    7762:	48 8b 45 f8          	mov    -0x8(%rbp),%rax
    7766:	48 89 c7             	mov    %rax,%rdi
    7769:	e8 a6 fe ff ff       	call   7614 <_ZNSt8_Rb_treeIiiSt9_IdentityIiESt4lessIiESaIiEE6_S_keyEPKSt13_Rb_tree_nodeIiE>
    776e:	c9                   	leave
    776f:	c3                   	ret

0000000000007770 <_ZNKSt8_Rb_treeIiiSt9_IdentityIiESt4lessIiESaIiEE11_Alloc_nodeclIRKiEEPSt13_Rb_tree_nodeIiEOT_>:
    7770:	f3 0f 1e fa          	endbr64
    7774:	55                   	push   %rbp
    7775:	48 89 e5             	mov    %rsp,%rbp
    7778:	53                   	push   %rbx
    7779:	48 83 ec 18          	sub    $0x18,%rsp
    777d:	48 89 7d e8          	mov    %rdi,-0x18(%rbp)
    7781:	48 89 75 e0          	mov    %rsi,-0x20(%rbp)
    7785:	48 8b 45 e8          	mov    -0x18(%rbp),%rax
    7789:	48 8b 18             	mov    (%rax),%rbx
    778c:	48 8b 45 e0          	mov    -0x20(%rbp),%rax
    7790:	48 89 c7             	mov    %rax,%rdi
    7793:	e8 a6 f2 ff ff       	call   6a3e <_ZSt7forwardIRKiEOT_RNSt16remove_referenceIS2_E4typeE>
    7798:	48 89 c6             	mov    %rax,%rsi
    779b:	48 89 df             	mov    %rbx,%rdi
    779e:	e8 a3 06 00 00       	call   7e46 <_ZNSt8_Rb_treeIiiSt9_IdentityIiESt4lessIiESaIiEE14_M_create_nodeIJRKiEEEPSt13_Rb_tree_nodeIiEDpOT_>
    77a3:	48 8b 5d f8          	mov    -0x8(%rbp),%rbx
    77a7:	c9                   	leave
    77a8:	c3                   	ret

00000000000077a9 <_ZSt7forwardISt17_Rb_tree_iteratorIiEEOT_RNSt16remove_referenceIS2_E4typeE>:
    77a9:	f3 0f 1e fa          	endbr64
    77ad:	55                   	push   %rbp
    77ae:	48 89 e5             	mov    %rsp,%rbp
    77b1:	48 89 7d f8          	mov    %rdi,-0x8(%rbp)
    77b5:	48 8b 45 f8          	mov    -0x8(%rbp),%rax
    77b9:	5d                   	pop    %rbp
    77ba:	c3                   	ret
    77bb:	90                   	nop

00000000000077bc <_ZNSt8_Rb_treeI6bipoloS0_St9_IdentityIS0_ESt4lessIS0_ESaIS0_EE6_M_endEv>:
    77bc:	f3 0f 1e fa          	endbr64
    77c0:	55                   	push   %rbp
    77c1:	48 89 e5             	mov    %rsp,%rbp
    77c4:	48 89 7d f8          	mov    %rdi,-0x8(%rbp)
    77c8:	48 8b 45 f8          	mov    -0x8(%rbp),%rax
    77cc:	48 83 c0 08          	add    $0x8,%rax
    77d0:	5d                   	pop    %rbp
    77d1:	c3                   	ret

00000000000077d2 <_ZNSt8_Rb_treeI6bipoloS0_St9_IdentityIS0_ESt4lessIS0_ESaIS0_EE6_S_keyEPKSt13_Rb_tree_nodeIS0_E>:
    77d2:	f3 0f 1e fa          	endbr64
    77d6:	55                   	push   %rbp
    77d7:	48 89 e5             	mov    %rsp,%rbp
    77da:	48 83 ec 20          	sub    $0x20,%rsp
    77de:	48 89 7d e8          	mov    %rdi,-0x18(%rbp)
    77e2:	64 48 8b 04 25 28 00 	mov    %fs:0x28,%rax
    77e9:	00 00 
    77eb:	48 89 45 f8          	mov    %rax,-0x8(%rbp)
    77ef:	31 c0                	xor    %eax,%eax
    77f1:	48 8b 45 e8          	mov    -0x18(%rbp),%rax
    77f5:	48 89 c7             	mov    %rax,%rdi
    77f8:	e8 bb eb ff ff       	call   63b8 <_ZNKSt13_Rb_tree_nodeI6bipoloE9_M_valptrEv>
    77fd:	48 89 c2             	mov    %rax,%rdx
    7800:	48 8d 45 f7          	lea    -0x9(%rbp),%rax
    7804:	48 89 d6             	mov    %rdx,%rsi
    7807:	48 89 c7             	mov    %rax,%rdi
    780a:	e8 a1 f5 ff ff       	call   6db0 <_ZNKSt9_IdentityI6bipoloEclERKS0_>
    780f:	48 8b 55 f8          	mov    -0x8(%rbp),%rdx
    7813:	64 48 2b 14 25 28 00 	sub    %fs:0x28,%rdx
    781a:	00 00 
    781c:	74 05                	je     7823 <_ZNSt8_Rb_treeI6bipoloS0_St9_IdentityIS0_ESt4lessIS0_ESaIS0_EE6_S_keyEPKSt13_Rb_tree_nodeIS0_E+0x51>
    781e:	e8 0d ab ff ff       	call   2330 <__stack_chk_fail@plt>
    7823:	c9                   	leave
    7824:	c3                   	ret
    7825:	90                   	nop

0000000000007826 <_ZNKSt4lessI6bipoloEclERKS0_S3_>:
    7826:	f3 0f 1e fa          	endbr64
    782a:	55                   	push   %rbp
    782b:	48 89 e5             	mov    %rsp,%rbp
    782e:	48 83 ec 20          	sub    $0x20,%rsp
    7832:	48 89 7d f8          	mov    %rdi,-0x8(%rbp)
    7836:	48 89 75 f0          	mov    %rsi,-0x10(%rbp)
    783a:	48 89 55 e8          	mov    %rdx,-0x18(%rbp)
    783e:	48 8b 55 e8          	mov    -0x18(%rbp),%rdx
    7842:	48 8b 45 f0          	mov    -0x10(%rbp),%rax
    7846:	48 89 d6             	mov    %rdx,%rsi
    7849:	48 89 c7             	mov    %rax,%rdi
    784c:	e8 75 b8 ff ff       	call   30c6 <_ZNK6bipololtERKS_>
    7851:	c9                   	leave
    7852:	c3                   	ret
    7853:	90                   	nop

0000000000007854 <_ZNSt8_Rb_treeI6bipoloS0_St9_IdentityIS0_ESt4lessIS0_ESaIS0_EE5beginEv>:
    7854:	f3 0f 1e fa          	endbr64
    7858:	55                   	push   %rbp
    7859:	48 89 e5             	mov    %rsp,%rbp
    785c:	48 83 ec 20          	sub    $0x20,%rsp
    7860:	48 89 7d e8          	mov    %rdi,-0x18(%rbp)
    7864:	64 48 8b 04 25 28 00 	mov    %fs:0x28,%rax
    786b:	00 00 
    786d:	48 89 45 f8          	mov    %rax,-0x8(%rbp)
    7871:	31 c0                	xor    %eax,%eax
    7873:	48 8b 45 e8          	mov    -0x18(%rbp),%rax
    7877:	48 8b 50 18          	mov    0x18(%rax),%rdx
    787b:	48 8d 45 f0          	lea    -0x10(%rbp),%rax
    787f:	48 89 d6             	mov    %rdx,%rsi
    7882:	48 89 c7             	mov    %rax,%rdi
    7885:	e8 cc f6 ff ff       	call   6f56 <_ZNSt17_Rb_tree_iteratorI6bipoloEC1EPSt18_Rb_tree_node_base>
    788a:	48 8b 45 f0          	mov    -0x10(%rbp),%rax
    788e:	48 8b 55 f8          	mov    -0x8(%rbp),%rdx
    7892:	64 48 2b 14 25 28 00 	sub    %fs:0x28,%rdx
    7899:	00 00 
    789b:	74 05                	je     78a2 <_ZNSt8_Rb_treeI6bipoloS0_St9_IdentityIS0_ESt4lessIS0_ESaIS0_EE5beginEv+0x4e>
    789d:	e8 8e aa ff ff       	call   2330 <__stack_chk_fail@plt>
    78a2:	c9                   	leave
    78a3:	c3                   	ret

00000000000078a4 <_ZSteqRKSt17_Rb_tree_iteratorI6bipoloES3_>:
    78a4:	f3 0f 1e fa          	endbr64
    78a8:	55                   	push   %rbp
    78a9:	48 89 e5             	mov    %rsp,%rbp
    78ac:	48 89 7d f8          	mov    %rdi,-0x8(%rbp)
    78b0:	48 89 75 f0          	mov    %rsi,-0x10(%rbp)
    78b4:	48 8b 45 f8          	mov    -0x8(%rbp),%rax
    78b8:	48 8b 10             	mov    (%rax),%rdx
    78bb:	48 8b 45 f0          	mov    -0x10(%rbp),%rax
    78bf:	48 8b 00             	mov    (%rax),%rax
    78c2:	48 39 c2             	cmp    %rax,%rdx
    78c5:	0f 94 c0             	sete   %al
    78c8:	5d                   	pop    %rbp
    78c9:	c3                   	ret

00000000000078ca <_ZNSt4pairIPSt18_Rb_tree_node_baseS1_EC1IRPSt13_Rb_tree_nodeI6bipoloERS1_Lb1EEEOT_OT0_>:
    78ca:	f3 0f 1e fa          	endbr64
    78ce:	55                   	push   %rbp
    78cf:	48 89 e5             	mov    %rsp,%rbp
    78d2:	48 83 ec 20          	sub    $0x20,%rsp
    78d6:	48 89 7d f8          	mov    %rdi,-0x8(%rbp)
    78da:	48 89 75 f0          	mov    %rsi,-0x10(%rbp)
    78de:	48 89 55 e8          	mov    %rdx,-0x18(%rbp)
    78e2:	48 8b 45 f0          	mov    -0x10(%rbp),%rax
    78e6:	48 89 c7             	mov    %rax,%rdi
    78e9:	e8 a4 05 00 00       	call   7e92 <_ZSt7forwardIRPSt13_Rb_tree_nodeI6bipoloEEOT_RNSt16remove_referenceIS5_E4typeE>
    78ee:	48 8b 10             	mov    (%rax),%rdx
    78f1:	48 8b 45 f8          	mov    -0x8(%rbp),%rax
    78f5:	48 89 10             	mov    %rdx,(%rax)
    78f8:	48 8b 45 e8          	mov    -0x18(%rbp),%rax
    78fc:	48 89 c7             	mov    %rax,%rdi
    78ff:	e8 58 04 00 00       	call   7d5c <_ZSt7forwardIRPSt18_Rb_tree_node_baseEOT_RNSt16remove_referenceIS3_E4typeE>
    7904:	48 8b 10             	mov    (%rax),%rdx
    7907:	48 8b 45 f8          	mov    -0x8(%rbp),%rax
    790b:	48 89 50 08          	mov    %rdx,0x8(%rax)
    790f:	90                   	nop
    7910:	c9                   	leave
    7911:	c3                   	ret

0000000000007912 <_ZNSt17_Rb_tree_iteratorI6bipoloEmmEv>:
    7912:	f3 0f 1e fa          	endbr64
    7916:	55                   	push   %rbp
    7917:	48 89 e5             	mov    %rsp,%rbp
    791a:	48 83 ec 10          	sub    $0x10,%rsp
    791e:	48 89 7d f8          	mov    %rdi,-0x8(%rbp)
    7922:	48 8b 45 f8          	mov    -0x8(%rbp),%rax
    7926:	48 8b 00             	mov    (%rax),%rax
    7929:	48 89 c7             	mov    %rax,%rdi
    792c:	e8 cf a9 ff ff       	call   2300 <_ZSt18_Rb_tree_decrementPSt18_Rb_tree_node_base@plt>
    7931:	48 8b 55 f8          	mov    -0x8(%rbp),%rdx
    7935:	48 89 02             	mov    %rax,(%rdx)
    7938:	48 8b 45 f8          	mov    -0x8(%rbp),%rax
    793c:	c9                   	leave
    793d:	c3                   	ret

000000000000793e <_ZNSt8_Rb_treeI6bipoloS0_St9_IdentityIS0_ESt4lessIS0_ESaIS0_EE6_S_keyEPKSt18_Rb_tree_node_base>:
    793e:	f3 0f 1e fa          	endbr64
    7942:	55                   	push   %rbp
    7943:	48 89 e5             	mov    %rsp,%rbp
    7946:	48 83 ec 10          	sub    $0x10,%rsp
    794a:	48 89 7d f8          	mov    %rdi,-0x8(%rbp)
    794e:	48 8b 45 f8          	mov    -0x8(%rbp),%rax
    7952:	48 89 c7             	mov    %rax,%rdi
    7955:	e8 78 fe ff ff       	call   77d2 <_ZNSt8_Rb_treeI6bipoloS0_St9_IdentityIS0_ESt4lessIS0_ESaIS0_EE6_S_keyEPKSt13_Rb_tree_nodeIS0_E>
    795a:	c9                   	leave
    795b:	c3                   	ret

000000000000795c <_ZNKSt8_Rb_treeI6bipoloS0_St9_IdentityIS0_ESt4lessIS0_ESaIS0_EE11_Alloc_nodeclIRKS0_EEPSt13_Rb_tree_nodeIS0_EOT_>:
    795c:	f3 0f 1e fa          	endbr64
    7960:	55                   	push   %rbp
    7961:	48 89 e5             	mov    %rsp,%rbp
    7964:	53                   	push   %rbx
    7965:	48 83 ec 18          	sub    $0x18,%rsp
    7969:	48 89 7d e8          	mov    %rdi,-0x18(%rbp)
    796d:	48 89 75 e0          	mov    %rsi,-0x20(%rbp)
    7971:	48 8b 45 e8          	mov    -0x18(%rbp),%rax
    7975:	48 8b 18             	mov    (%rax),%rbx
    7978:	48 8b 45 e0          	mov    -0x20(%rbp),%rax
    797c:	48 89 c7             	mov    %rax,%rdi
    797f:	e8 60 f4 ff ff       	call   6de4 <_ZSt7forwardIRK6bipoloEOT_RNSt16remove_referenceIS3_E4typeE>
    7984:	48 89 c6             	mov    %rax,%rsi
    7987:	48 89 df             	mov    %rbx,%rdi
    798a:	e8 15 05 00 00       	call   7ea4 <_ZNSt8_Rb_treeI6bipoloS0_St9_IdentityIS0_ESt4lessIS0_ESaIS0_EE14_M_create_nodeIJRKS0_EEEPSt13_Rb_tree_nodeIS0_EDpOT_>
    798f:	48 8b 5d f8          	mov    -0x8(%rbp),%rbx
    7993:	c9                   	leave
    7994:	c3                   	ret

0000000000007995 <_ZSt7forwardISt17_Rb_tree_iteratorI6bipoloEEOT_RNSt16remove_referenceIS3_E4typeE>:
    7995:	f3 0f 1e fa          	endbr64
    7999:	55                   	push   %rbp
    799a:	48 89 e5             	mov    %rsp,%rbp
    799d:	48 89 7d f8          	mov    %rdi,-0x8(%rbp)
    79a1:	48 8b 45 f8          	mov    -0x8(%rbp),%rax
    79a5:	5d                   	pop    %rbp
    79a6:	c3                   	ret
    79a7:	90                   	nop

00000000000079a8 <_ZNSt5tupleIJP10BipoloNodeSt14default_deleteIS0_EEEC1ILb1ELb1EEEv>:
    79a8:	f3 0f 1e fa          	endbr64
    79ac:	55                   	push   %rbp
    79ad:	48 89 e5             	mov    %rsp,%rbp
    79b0:	48 83 ec 10          	sub    $0x10,%rsp
    79b4:	48 89 7d f8          	mov    %rdi,-0x8(%rbp)
    79b8:	48 8b 45 f8          	mov    -0x8(%rbp),%rax
    79bc:	48 89 c7             	mov    %rax,%rdi
    79bf:	e8 2c 05 00 00       	call   7ef0 <_ZNSt11_Tuple_implILm0EJP10BipoloNodeSt14default_deleteIS0_EEEC1Ev>
    79c4:	90                   	nop
    79c5:	c9                   	leave
    79c6:	c3                   	ret

00000000000079c7 <_ZSt12__get_helperILm0EP10BipoloNodeJSt14default_deleteIS0_EEERT0_RSt11_Tuple_implIXT_EJS4_DpT1_EE>:
    79c7:	f3 0f 1e fa          	endbr64
    79cb:	55                   	push   %rbp
    79cc:	48 89 e5             	mov    %rsp,%rbp
    79cf:	48 83 ec 10          	sub    $0x10,%rsp
    79d3:	48 89 7d f8          	mov    %rdi,-0x8(%rbp)
    79d7:	48 8b 45 f8          	mov    -0x8(%rbp),%rax
    79db:	48 89 c7             	mov    %rax,%rdi
    79de:	e8 38 05 00 00       	call   7f1b <_ZNSt11_Tuple_implILm0EJP10BipoloNodeSt14default_deleteIS0_EEE7_M_headERS4_>
    79e3:	c9                   	leave
    79e4:	c3                   	ret

00000000000079e5 <_ZSt3getILm1EJP10BipoloNodeSt14default_deleteIS0_EEERNSt13tuple_elementIXT_ESt5tupleIJDpT0_EEE4typeERS8_>:
    79e5:	f3 0f 1e fa          	endbr64
    79e9:	55                   	push   %rbp
    79ea:	48 89 e5             	mov    %rsp,%rbp
    79ed:	48 83 ec 10          	sub    $0x10,%rsp
    79f1:	48 89 7d f8          	mov    %rdi,-0x8(%rbp)
    79f5:	48 8b 45 f8          	mov    -0x8(%rbp),%rax
    79f9:	48 89 c7             	mov    %rax,%rdi
    79fc:	e8 38 05 00 00       	call   7f39 <_ZSt12__get_helperILm1ESt14default_deleteI10BipoloNodeEJEERT0_RSt11_Tuple_implIXT_EJS3_DpT1_EE>
    7a01:	c9                   	leave
    7a02:	c3                   	ret

0000000000007a03 <_ZSt7forwardIRP14ExpressionNodeEOT_RNSt16remove_referenceIS3_E4typeE>:
    7a03:	f3 0f 1e fa          	endbr64
    7a07:	55                   	push   %rbp
    7a08:	48 89 e5             	mov    %rsp,%rbp
    7a0b:	48 89 7d f8          	mov    %rdi,-0x8(%rbp)
    7a0f:	48 8b 45 f8          	mov    -0x8(%rbp),%rax
    7a13:	5d                   	pop    %rbp
    7a14:	c3                   	ret
    7a15:	90                   	nop

0000000000007a16 <_ZNSt11_Tuple_implILm0EJP14ExpressionNodeSt14default_deleteIS0_EEEC1IRS1_JS2_I10BipoloNodeEEvEEOT_DpOT0_>:
    7a16:	f3 0f 1e fa          	endbr64
    7a1a:	55                   	push   %rbp
    7a1b:	48 89 e5             	mov    %rsp,%rbp
    7a1e:	53                   	push   %rbx
    7a1f:	48 83 ec 28          	sub    $0x28,%rsp
    7a23:	48 89 7d e8          	mov    %rdi,-0x18(%rbp)
    7a27:	48 89 75 e0          	mov    %rsi,-0x20(%rbp)
    7a2b:	48 89 55 d8          	mov    %rdx,-0x28(%rbp)
    7a2f:	48 8b 45 d8          	mov    -0x28(%rbp),%rax
    7a33:	48 89 c7             	mov    %rax,%rdi
    7a36:	e8 ad e4 ff ff       	call   5ee8 <_ZSt7forwardISt14default_deleteI10BipoloNodeEEOT_RNSt16remove_referenceIS3_E4typeE>
    7a3b:	48 89 c2             	mov    %rax,%rdx
    7a3e:	48 8b 45 e8          	mov    -0x18(%rbp),%rax
    7a42:	48 89 d6             	mov    %rdx,%rsi
    7a45:	48 89 c7             	mov    %rax,%rdi
    7a48:	e8 0b 05 00 00       	call   7f58 <_ZNSt11_Tuple_implILm1EJSt14default_deleteI14ExpressionNodeEEEC1IS0_I10BipoloNodeEEEOT_>
    7a4d:	48 8b 5d e8          	mov    -0x18(%rbp),%rbx
    7a51:	48 8b 45 e0          	mov    -0x20(%rbp),%rax
    7a55:	48 89 c7             	mov    %rax,%rdi
    7a58:	e8 a6 ff ff ff       	call   7a03 <_ZSt7forwardIRP14ExpressionNodeEOT_RNSt16remove_referenceIS3_E4typeE>
    7a5d:	48 89 c6             	mov    %rax,%rsi
    7a60:	48 89 df             	mov    %rbx,%rdi
    7a63:	e8 26 05 00 00       	call   7f8e <_ZNSt10_Head_baseILm0EP14ExpressionNodeLb0EEC1IRS1_EEOT_>
    7a68:	90                   	nop
    7a69:	48 8b 5d f8          	mov    -0x8(%rbp),%rbx
    7a6d:	c9                   	leave
    7a6e:	c3                   	ret

0000000000007a6f <_ZSt12__get_helperILm1ESt14default_deleteI14ExpressionNodeEJEERT0_RSt11_Tuple_implIXT_EJS3_DpT1_EE>:
    7a6f:	f3 0f 1e fa          	endbr64
    7a73:	55                   	push   %rbp
    7a74:	48 89 e5             	mov    %rsp,%rbp
    7a77:	48 83 ec 10          	sub    $0x10,%rsp
    7a7b:	48 89 7d f8          	mov    %rdi,-0x8(%rbp)
    7a7f:	48 8b 45 f8          	mov    -0x8(%rbp),%rax
    7a83:	48 89 c7             	mov    %rax,%rdi
    7a86:	e8 30 05 00 00       	call   7fbb <_ZNSt11_Tuple_implILm1EJSt14default_deleteI14ExpressionNodeEEE7_M_headERS3_>
    7a8b:	c9                   	leave
    7a8c:	c3                   	ret
    7a8d:	90                   	nop

0000000000007a8e <_ZNSt5tupleIJP13OperationNodeSt14default_deleteIS0_EEEC1ILb1ELb1EEEv>:
    7a8e:	f3 0f 1e fa          	endbr64
    7a92:	55                   	push   %rbp
    7a93:	48 89 e5             	mov    %rsp,%rbp
    7a96:	48 83 ec 10          	sub    $0x10,%rsp
    7a9a:	48 89 7d f8          	mov    %rdi,-0x8(%rbp)
    7a9e:	48 8b 45 f8          	mov    -0x8(%rbp),%rax
    7aa2:	48 89 c7             	mov    %rax,%rdi
    7aa5:	e8 30 05 00 00       	call   7fda <_ZNSt11_Tuple_implILm0EJP13OperationNodeSt14default_deleteIS0_EEEC1Ev>
    7aaa:	90                   	nop
    7aab:	c9                   	leave
    7aac:	c3                   	ret

0000000000007aad <_ZSt12__get_helperILm0EP13OperationNodeJSt14default_deleteIS0_EEERT0_RSt11_Tuple_implIXT_EJS4_DpT1_EE>:
    7aad:	f3 0f 1e fa          	endbr64
    7ab1:	55                   	push   %rbp
    7ab2:	48 89 e5             	mov    %rsp,%rbp
    7ab5:	48 83 ec 10          	sub    $0x10,%rsp
    7ab9:	48 89 7d f8          	mov    %rdi,-0x8(%rbp)
    7abd:	48 8b 45 f8          	mov    -0x8(%rbp),%rax
    7ac1:	48 89 c7             	mov    %rax,%rdi
    7ac4:	e8 3c 05 00 00       	call   8005 <_ZNSt11_Tuple_implILm0EJP13OperationNodeSt14default_deleteIS0_EEE7_M_headERS4_>
    7ac9:	c9                   	leave
    7aca:	c3                   	ret

0000000000007acb <_ZSt3getILm1EJP13OperationNodeSt14default_deleteIS0_EEERNSt13tuple_elementIXT_ESt5tupleIJDpT0_EEE4typeERS8_>:
    7acb:	f3 0f 1e fa          	endbr64
    7acf:	55                   	push   %rbp
    7ad0:	48 89 e5             	mov    %rsp,%rbp
    7ad3:	48 83 ec 10          	sub    $0x10,%rsp
    7ad7:	48 89 7d f8          	mov    %rdi,-0x8(%rbp)
    7adb:	48 8b 45 f8          	mov    -0x8(%rbp),%rax
    7adf:	48 89 c7             	mov    %rax,%rdi
    7ae2:	e8 3c 05 00 00       	call   8023 <_ZSt12__get_helperILm1ESt14default_deleteI13OperationNodeEJEERT0_RSt11_Tuple_implIXT_EJS3_DpT1_EE>
    7ae7:	c9                   	leave
    7ae8:	c3                   	ret
    7ae9:	90                   	nop

0000000000007aea <_ZNSt5tupleIJP8CircuitoSt14default_deleteIS0_EEEC1ILb1ELb1EEEv>:
    7aea:	f3 0f 1e fa          	endbr64
    7aee:	55                   	push   %rbp
    7aef:	48 89 e5             	mov    %rsp,%rbp
    7af2:	48 83 ec 10          	sub    $0x10,%rsp
    7af6:	48 89 7d f8          	mov    %rdi,-0x8(%rbp)
    7afa:	48 8b 45 f8          	mov    -0x8(%rbp),%rax
    7afe:	48 89 c7             	mov    %rax,%rdi
    7b01:	e8 3c 05 00 00       	call   8042 <_ZNSt11_Tuple_implILm0EJP8CircuitoSt14default_deleteIS0_EEEC1Ev>
    7b06:	90                   	nop
    7b07:	c9                   	leave
    7b08:	c3                   	ret

0000000000007b09 <_ZSt12__get_helperILm0EP8CircuitoJSt14default_deleteIS0_EEERT0_RSt11_Tuple_implIXT_EJS4_DpT1_EE>:
    7b09:	f3 0f 1e fa          	endbr64
    7b0d:	55                   	push   %rbp
    7b0e:	48 89 e5             	mov    %rsp,%rbp
    7b11:	48 83 ec 10          	sub    $0x10,%rsp
    7b15:	48 89 7d f8          	mov    %rdi,-0x8(%rbp)
    7b19:	48 8b 45 f8          	mov    -0x8(%rbp),%rax
    7b1d:	48 89 c7             	mov    %rax,%rdi
    7b20:	e8 48 05 00 00       	call   806d <_ZNSt11_Tuple_implILm0EJP8CircuitoSt14default_deleteIS0_EEE7_M_headERS4_>
    7b25:	c9                   	leave
    7b26:	c3                   	ret

0000000000007b27 <_ZSt3getILm1EJP8CircuitoSt14default_deleteIS0_EEERNSt13tuple_elementIXT_ESt5tupleIJDpT0_EEE4typeERS8_>:
    7b27:	f3 0f 1e fa          	endbr64
    7b2b:	55                   	push   %rbp
    7b2c:	48 89 e5             	mov    %rsp,%rbp
    7b2f:	48 83 ec 10          	sub    $0x10,%rsp
    7b33:	48 89 7d f8          	mov    %rdi,-0x8(%rbp)
    7b37:	48 8b 45 f8          	mov    -0x8(%rbp),%rax
    7b3b:	48 89 c7             	mov    %rax,%rdi
    7b3e:	e8 48 05 00 00       	call   808b <_ZSt12__get_helperILm1ESt14default_deleteI8CircuitoEJEERT0_RSt11_Tuple_implIXT_EJS3_DpT1_EE>
    7b43:	c9                   	leave
    7b44:	c3                   	ret
    7b45:	90                   	nop

0000000000007b46 <_ZNK9__gnu_cxx16__aligned_membufI6bipoloE7_M_addrEv>:
    7b46:	f3 0f 1e fa          	endbr64
    7b4a:	55                   	push   %rbp
    7b4b:	48 89 e5             	mov    %rsp,%rbp
    7b4e:	48 89 7d f8          	mov    %rdi,-0x8(%rbp)
    7b52:	48 8b 45 f8          	mov    -0x8(%rbp),%rax
    7b56:	5d                   	pop    %rbp
    7b57:	c3                   	ret

0000000000007b58 <_ZSt3getILm0EJP8CircuitoSt14default_deleteIS0_EEERKNSt13tuple_elementIXT_ESt5tupleIJDpT0_EEE4typeERKS8_>:
    7b58:	f3 0f 1e fa          	endbr64
    7b5c:	55                   	push   %rbp
    7b5d:	48 89 e5             	mov    %rsp,%rbp
    7b60:	48 83 ec 10          	sub    $0x10,%rsp
    7b64:	48 89 7d f8          	mov    %rdi,-0x8(%rbp)
    7b68:	48 8b 45 f8          	mov    -0x8(%rbp),%rax
    7b6c:	48 89 c7             	mov    %rax,%rdi
    7b6f:	e8 35 05 00 00       	call   80a9 <_ZSt12__get_helperILm0EP8CircuitoJSt14default_deleteIS0_EEERKT0_RKSt11_Tuple_implIXT_EJS4_DpT1_EE>
    7b74:	c9                   	leave
    7b75:	c3                   	ret

0000000000007b76 <_ZSt4moveIRSt5tupleIJP8CircuitoSt14default_deleteIS1_EEEEONSt16remove_referenceIT_E4typeEOS8_>:
    7b76:	f3 0f 1e fa          	endbr64
    7b7a:	55                   	push   %rbp
    7b7b:	48 89 e5             	mov    %rsp,%rbp
    7b7e:	48 89 7d f8          	mov    %rdi,-0x8(%rbp)
    7b82:	48 8b 45 f8          	mov    -0x8(%rbp),%rax
    7b86:	5d                   	pop    %rbp
    7b87:	c3                   	ret

0000000000007b88 <_ZNSt11_Tuple_implILm1EJSt14default_deleteI8CircuitoEEEC1EOS3_>:
    7b88:	f3 0f 1e fa          	endbr64
    7b8c:	55                   	push   %rbp
    7b8d:	48 89 e5             	mov    %rsp,%rbp
    7b90:	48 89 7d f8          	mov    %rdi,-0x8(%rbp)
    7b94:	48 89 75 f0          	mov    %rsi,-0x10(%rbp)
    7b98:	90                   	nop
    7b99:	5d                   	pop    %rbp
    7b9a:	c3                   	ret

0000000000007b9b <_ZSt11__addressofI6bipoloEPT_RS1_>:
    7b9b:	f3 0f 1e fa          	endbr64
    7b9f:	55                   	push   %rbp
    7ba0:	48 89 e5             	mov    %rsp,%rbp
    7ba3:	48 89 7d f8          	mov    %rdi,-0x8(%rbp)
    7ba7:	48 8b 45 f8          	mov    -0x8(%rbp),%rax
    7bab:	5d                   	pop    %rbp
    7bac:	c3                   	ret

0000000000007bad <_ZSt8_DestroyI6bipoloEvPT_>:
    7bad:	f3 0f 1e fa          	endbr64
    7bb1:	55                   	push   %rbp
    7bb2:	48 89 e5             	mov    %rsp,%rbp
    7bb5:	48 83 ec 10          	sub    $0x10,%rsp
    7bb9:	48 89 7d f8          	mov    %rdi,-0x8(%rbp)
    7bbd:	48 8b 45 f8          	mov    -0x8(%rbp),%rax
    7bc1:	48 89 c7             	mov    %rax,%rdi
    7bc4:	e8 93 b7 ff ff       	call   335c <_ZN6bipoloD1Ev>
    7bc9:	90                   	nop
    7bca:	c9                   	leave
    7bcb:	c3                   	ret

0000000000007bcc <_ZNSt6vectorI6bipoloSaIS0_EE11_S_max_sizeERKS1_>:
    7bcc:	f3 0f 1e fa          	endbr64
    7bd0:	55                   	push   %rbp
    7bd1:	48 89 e5             	mov    %rsp,%rbp
    7bd4:	48 83 ec 40          	sub    $0x40,%rsp
    7bd8:	48 89 7d c8          	mov    %rdi,-0x38(%rbp)
    7bdc:	64 48 8b 04 25 28 00 	mov    %fs:0x28,%rax
    7be3:	00 00 
    7be5:	48 89 45 f8          	mov    %rax,-0x8(%rbp)
    7be9:	31 c0                	xor    %eax,%eax
    7beb:	48 b8 49 92 24 49 92 	movabs $0x249249249249249,%rax
    7bf2:	24 49 02 
    7bf5:	48 89 45 d0          	mov    %rax,-0x30(%rbp)
    7bf9:	48 8b 45 c8          	mov    -0x38(%rbp),%rax
    7bfd:	48 89 45 e0          	mov    %rax,-0x20(%rbp)
    7c01:	48 8b 45 e0          	mov    -0x20(%rbp),%rax
    7c05:	48 89 45 e8          	mov    %rax,-0x18(%rbp)
    7c09:	48 8b 45 e8          	mov    -0x18(%rbp),%rax
    7c0d:	48 89 45 f0          	mov    %rax,-0x10(%rbp)
    7c11:	48 b8 49 92 24 49 92 	movabs $0x249249249249249,%rax
    7c18:	24 49 02 
    7c1b:	90                   	nop
    7c1c:	90                   	nop
    7c1d:	48 89 45 d8          	mov    %rax,-0x28(%rbp)
    7c21:	48 8d 55 d8          	lea    -0x28(%rbp),%rdx
    7c25:	48 8d 45 d0          	lea    -0x30(%rbp),%rax
    7c29:	48 89 d6             	mov    %rdx,%rsi
    7c2c:	48 89 c7             	mov    %rax,%rdi
    7c2f:	e8 53 b4 ff ff       	call   3087 <_ZSt3minImERKT_S2_S2_>
    7c34:	48 8b 00             	mov    (%rax),%rax
    7c37:	48 8b 55 f8          	mov    -0x8(%rbp),%rdx
    7c3b:	64 48 2b 14 25 28 00 	sub    %fs:0x28,%rdx
    7c42:	00 00 
    7c44:	74 05                	je     7c4b <_ZNSt6vectorI6bipoloSaIS0_EE11_S_max_sizeERKS1_+0x7f>
    7c46:	e8 e5 a6 ff ff       	call   2330 <__stack_chk_fail@plt>
    7c4b:	c9                   	leave
    7c4c:	c3                   	ret
    7c4d:	90                   	nop

0000000000007c4e <_ZNKSt12_Vector_baseI6bipoloSaIS0_EE19_M_get_Tp_allocatorEv>:
    7c4e:	f3 0f 1e fa          	endbr64
    7c52:	55                   	push   %rbp
    7c53:	48 89 e5             	mov    %rsp,%rbp
    7c56:	48 89 7d f8          	mov    %rdi,-0x8(%rbp)
    7c5a:	48 8b 45 f8          	mov    -0x8(%rbp),%rax
    7c5e:	5d                   	pop    %rbp
    7c5f:	c3                   	ret

0000000000007c60 <_ZNSt15__new_allocatorI6bipoloE8allocateEmPKv>:
    7c60:	f3 0f 1e fa          	endbr64
    7c64:	55                   	push   %rbp
    7c65:	48 89 e5             	mov    %rsp,%rbp
    7c68:	48 83 ec 30          	sub    $0x30,%rsp
    7c6c:	48 89 7d e8          	mov    %rdi,-0x18(%rbp)
    7c70:	48 89 75 e0          	mov    %rsi,-0x20(%rbp)
    7c74:	48 89 55 d8          	mov    %rdx,-0x28(%rbp)
    7c78:	48 8b 45 e8          	mov    -0x18(%rbp),%rax
    7c7c:	48 89 45 f8          	mov    %rax,-0x8(%rbp)
    7c80:	48 b8 49 92 24 49 92 	movabs $0x249249249249249,%rax
    7c87:	24 49 02 
    7c8a:	48 3b 45 e0          	cmp    -0x20(%rbp),%rax
    7c8e:	0f 92 c0             	setb   %al
    7c91:	0f b6 c0             	movzbl %al,%eax
    7c94:	48 85 c0             	test   %rax,%rax
    7c97:	0f 95 c0             	setne  %al
    7c9a:	84 c0                	test   %al,%al
    7c9c:	74 1a                	je     7cb8 <_ZNSt15__new_allocatorI6bipoloE8allocateEmPKv+0x58>
    7c9e:	48 b8 92 24 49 92 24 	movabs $0x492492492492492,%rax
    7ca5:	49 92 04 
    7ca8:	48 3b 45 e0          	cmp    -0x20(%rbp),%rax
    7cac:	73 05                	jae    7cb3 <_ZNSt15__new_allocatorI6bipoloE8allocateEmPKv+0x53>
    7cae:	e8 fd a5 ff ff       	call   22b0 <_ZSt28__throw_bad_array_new_lengthv@plt>
    7cb3:	e8 78 a5 ff ff       	call   2230 <_ZSt17__throw_bad_allocv@plt>
    7cb8:	48 8b 55 e0          	mov    -0x20(%rbp),%rdx
    7cbc:	48 89 d0             	mov    %rdx,%rax
    7cbf:	48 c1 e0 03          	shl    $0x3,%rax
    7cc3:	48 29 d0             	sub    %rdx,%rax
    7cc6:	48 c1 e0 03          	shl    $0x3,%rax
    7cca:	48 89 c7             	mov    %rax,%rdi
    7ccd:	e8 0e a6 ff ff       	call   22e0 <_Znwm@plt>
    7cd2:	90                   	nop
    7cd3:	c9                   	leave
    7cd4:	c3                   	ret

0000000000007cd5 <_ZSt12__niter_baseIP6bipoloET_S2_>:
    7cd5:	f3 0f 1e fa          	endbr64
    7cd9:	55                   	push   %rbp
    7cda:	48 89 e5             	mov    %rsp,%rbp
    7cdd:	48 89 7d f8          	mov    %rdi,-0x8(%rbp)
    7ce1:	48 8b 45 f8          	mov    -0x8(%rbp),%rax
    7ce5:	5d                   	pop    %rbp
    7ce6:	c3                   	ret

0000000000007ce7 <_ZSt14__relocate_a_1IP6bipoloS1_SaIS0_EET0_T_S4_S3_RT1_>:
    7ce7:	f3 0f 1e fa          	endbr64
    7ceb:	55                   	push   %rbp
    7cec:	48 89 e5             	mov    %rsp,%rbp
    7cef:	53                   	push   %rbx
    7cf0:	48 83 ec 38          	sub    $0x38,%rsp
    7cf4:	48 89 7d d8          	mov    %rdi,-0x28(%rbp)
    7cf8:	48 89 75 d0          	mov    %rsi,-0x30(%rbp)
    7cfc:	48 89 55 c8          	mov    %rdx,-0x38(%rbp)
    7d00:	48 89 4d c0          	mov    %rcx,-0x40(%rbp)
    7d04:	48 8b 45 c8          	mov    -0x38(%rbp),%rax
    7d08:	48 89 45 e8          	mov    %rax,-0x18(%rbp)
    7d0c:	eb 3a                	jmp    7d48 <_ZSt14__relocate_a_1IP6bipoloS1_SaIS0_EET0_T_S4_S3_RT1_+0x61>
    7d0e:	48 8b 45 d8          	mov    -0x28(%rbp),%rax
    7d12:	48 89 c7             	mov    %rax,%rdi
    7d15:	e8 81 fe ff ff       	call   7b9b <_ZSt11__addressofI6bipoloEPT_RS1_>
    7d1a:	48 89 c3             	mov    %rax,%rbx
    7d1d:	48 8b 45 e8          	mov    -0x18(%rbp),%rax
    7d21:	48 89 c7             	mov    %rax,%rdi
    7d24:	e8 72 fe ff ff       	call   7b9b <_ZSt11__addressofI6bipoloEPT_RS1_>
    7d29:	48 89 c1             	mov    %rax,%rcx
    7d2c:	48 8b 45 c0          	mov    -0x40(%rbp),%rax
    7d30:	48 89 c2             	mov    %rax,%rdx
    7d33:	48 89 de             	mov    %rbx,%rsi
    7d36:	48 89 cf             	mov    %rcx,%rdi
    7d39:	e8 89 03 00 00       	call   80c7 <_ZSt19__relocate_object_aI6bipoloS0_SaIS0_EEvPT_PT0_RT1_>
    7d3e:	48 83 45 d8 38       	addq   $0x38,-0x28(%rbp)
    7d43:	48 83 45 e8 38       	addq   $0x38,-0x18(%rbp)
    7d48:	48 8b 45 d8          	mov    -0x28(%rbp),%rax
    7d4c:	48 3b 45 d0          	cmp    -0x30(%rbp),%rax
    7d50:	75 bc                	jne    7d0e <_ZSt14__relocate_a_1IP6bipoloS1_SaIS0_EET0_T_S4_S3_RT1_+0x27>
    7d52:	48 8b 45 e8          	mov    -0x18(%rbp),%rax
    7d56:	48 8b 5d f8          	mov    -0x8(%rbp),%rbx
    7d5a:	c9                   	leave
    7d5b:	c3                   	ret

0000000000007d5c <_ZSt7forwardIRPSt18_Rb_tree_node_baseEOT_RNSt16remove_referenceIS3_E4typeE>:
    7d5c:	f3 0f 1e fa          	endbr64
    7d60:	55                   	push   %rbp
    7d61:	48 89 e5             	mov    %rsp,%rbp
    7d64:	48 89 7d f8          	mov    %rdi,-0x8(%rbp)
    7d68:	48 8b 45 f8          	mov    -0x8(%rbp),%rax
    7d6c:	5d                   	pop    %rbp
    7d6d:	c3                   	ret

0000000000007d6e <_ZNSt11_Tuple_implILm0EJP14ExpressionNodeSt14default_deleteIS0_EEE7_M_headERS4_>:
    7d6e:	f3 0f 1e fa          	endbr64
    7d72:	55                   	push   %rbp
    7d73:	48 89 e5             	mov    %rsp,%rbp
    7d76:	48 83 ec 10          	sub    $0x10,%rsp
    7d7a:	48 89 7d f8          	mov    %rdi,-0x8(%rbp)
    7d7e:	48 8b 45 f8          	mov    -0x8(%rbp),%rax
    7d82:	48 89 c7             	mov    %rax,%rdi
    7d85:	e8 00 04 00 00       	call   818a <_ZNSt10_Head_baseILm0EP14ExpressionNodeLb0EE7_M_headERS2_>
    7d8a:	c9                   	leave
    7d8b:	c3                   	ret

0000000000007d8c <_ZSt12__get_helperILm0EP14ExpressionNodeJSt14default_deleteIS0_EEERKT0_RKSt11_Tuple_implIXT_EJS4_DpT1_EE>:
    7d8c:	f3 0f 1e fa          	endbr64
    7d90:	55                   	push   %rbp
    7d91:	48 89 e5             	mov    %rsp,%rbp
    7d94:	48 83 ec 10          	sub    $0x10,%rsp
    7d98:	48 89 7d f8          	mov    %rdi,-0x8(%rbp)
    7d9c:	48 8b 45 f8          	mov    -0x8(%rbp),%rax
    7da0:	48 89 c7             	mov    %rax,%rdi
    7da3:	e8 f4 03 00 00       	call   819c <_ZNSt11_Tuple_implILm0EJP14ExpressionNodeSt14default_deleteIS0_EEE7_M_headERKS4_>
    7da8:	c9                   	leave
    7da9:	c3                   	ret

0000000000007daa <_ZNSt8_Rb_treeI6bipoloS0_St9_IdentityIS0_ESt4lessIS0_ESaIS0_EE21_M_get_Node_allocatorEv>:
    7daa:	f3 0f 1e fa          	endbr64
    7dae:	55                   	push   %rbp
    7daf:	48 89 e5             	mov    %rsp,%rbp
    7db2:	48 89 7d f8          	mov    %rdi,-0x8(%rbp)
    7db6:	48 8b 45 f8          	mov    -0x8(%rbp),%rax
    7dba:	5d                   	pop    %rbp
    7dbb:	c3                   	ret

0000000000007dbc <_ZNSt13_Rb_tree_nodeI6bipoloE9_M_valptrEv>:
    7dbc:	f3 0f 1e fa          	endbr64
    7dc0:	55                   	push   %rbp
    7dc1:	48 89 e5             	mov    %rsp,%rbp
    7dc4:	48 83 ec 10          	sub    $0x10,%rsp
    7dc8:	48 89 7d f8          	mov    %rdi,-0x8(%rbp)
    7dcc:	48 8b 45 f8          	mov    -0x8(%rbp),%rax
    7dd0:	48 83 c0 20          	add    $0x20,%rax
    7dd4:	48 89 c7             	mov    %rax,%rdi
    7dd7:	e8 de 03 00 00       	call   81ba <_ZN9__gnu_cxx16__aligned_membufI6bipoloE6_M_ptrEv>
    7ddc:	c9                   	leave
    7ddd:	c3                   	ret

0000000000007dde <_ZNSt8_Rb_treeIiiSt9_IdentityIiESt4lessIiESaIiEE21_M_get_Node_allocatorEv>:
    7dde:	f3 0f 1e fa          	endbr64
    7de2:	55                   	push   %rbp
    7de3:	48 89 e5             	mov    %rsp,%rbp
    7de6:	48 89 7d f8          	mov    %rdi,-0x8(%rbp)
    7dea:	48 8b 45 f8          	mov    -0x8(%rbp),%rax
    7dee:	5d                   	pop    %rbp
    7def:	c3                   	ret

0000000000007df0 <_ZNSt13_Rb_tree_nodeIiE9_M_valptrEv>:
    7df0:	f3 0f 1e fa          	endbr64
    7df4:	55                   	push   %rbp
    7df5:	48 89 e5             	mov    %rsp,%rbp
    7df8:	48 83 ec 10          	sub    $0x10,%rsp
    7dfc:	48 89 7d f8          	mov    %rdi,-0x8(%rbp)
    7e00:	48 8b 45 f8          	mov    -0x8(%rbp),%rax
    7e04:	48 83 c0 20          	add    $0x20,%rax
    7e08:	48 89 c7             	mov    %rax,%rdi
    7e0b:	e8 0c 04 00 00       	call   821c <_ZN9__gnu_cxx16__aligned_membufIiE6_M_ptrEv>
    7e10:	c9                   	leave
    7e11:	c3                   	ret

0000000000007e12 <_ZNKSt13_Rb_tree_nodeIiE9_M_valptrEv>:
    7e12:	f3 0f 1e fa          	endbr64
    7e16:	55                   	push   %rbp
    7e17:	48 89 e5             	mov    %rsp,%rbp
    7e1a:	48 83 ec 10          	sub    $0x10,%rsp
    7e1e:	48 89 7d f8          	mov    %rdi,-0x8(%rbp)
    7e22:	48 8b 45 f8          	mov    -0x8(%rbp),%rax
    7e26:	48 83 c0 20          	add    $0x20,%rax
    7e2a:	48 89 c7             	mov    %rax,%rdi
    7e2d:	e8 46 04 00 00       	call   8278 <_ZNK9__gnu_cxx16__aligned_membufIiE6_M_ptrEv>
    7e32:	c9                   	leave
    7e33:	c3                   	ret

0000000000007e34 <_ZSt7forwardIRPSt13_Rb_tree_nodeIiEEOT_RNSt16remove_referenceIS4_E4typeE>:
    7e34:	f3 0f 1e fa          	endbr64
    7e38:	55                   	push   %rbp
    7e39:	48 89 e5             	mov    %rsp,%rbp
    7e3c:	48 89 7d f8          	mov    %rdi,-0x8(%rbp)
    7e40:	48 8b 45 f8          	mov    -0x8(%rbp),%rax
    7e44:	5d                   	pop    %rbp
    7e45:	c3                   	ret

0000000000007e46 <_ZNSt8_Rb_treeIiiSt9_IdentityIiESt4lessIiESaIiEE14_M_create_nodeIJRKiEEEPSt13_Rb_tree_nodeIiEDpOT_>:
    7e46:	f3 0f 1e fa          	endbr64
    7e4a:	55                   	push   %rbp
    7e4b:	48 89 e5             	mov    %rsp,%rbp
    7e4e:	48 83 ec 20          	sub    $0x20,%rsp
    7e52:	48 89 7d e8          	mov    %rdi,-0x18(%rbp)
    7e56:	48 89 75 e0          	mov    %rsi,-0x20(%rbp)
    7e5a:	48 8b 45 e8          	mov    -0x18(%rbp),%rax
    7e5e:	48 89 c7             	mov    %rax,%rdi
    7e61:	e8 30 04 00 00       	call   8296 <_ZNSt8_Rb_treeIiiSt9_IdentityIiESt4lessIiESaIiEE11_M_get_nodeEv>
    7e66:	48 89 45 f8          	mov    %rax,-0x8(%rbp)
    7e6a:	48 8b 45 e0          	mov    -0x20(%rbp),%rax
    7e6e:	48 89 c7             	mov    %rax,%rdi
    7e71:	e8 c8 eb ff ff       	call   6a3e <_ZSt7forwardIRKiEOT_RNSt16remove_referenceIS2_E4typeE>
    7e76:	48 89 c2             	mov    %rax,%rdx
    7e79:	48 8b 4d f8          	mov    -0x8(%rbp),%rcx
    7e7d:	48 8b 45 e8          	mov    -0x18(%rbp),%rax
    7e81:	48 89 ce             	mov    %rcx,%rsi
    7e84:	48 89 c7             	mov    %rax,%rdi
    7e87:	e8 4e 04 00 00       	call   82da <_ZNSt8_Rb_treeIiiSt9_IdentityIiESt4lessIiESaIiEE17_M_construct_nodeIJRKiEEEvPSt13_Rb_tree_nodeIiEDpOT_>
    7e8c:	48 8b 45 f8          	mov    -0x8(%rbp),%rax
    7e90:	c9                   	leave
    7e91:	c3                   	ret

0000000000007e92 <_ZSt7forwardIRPSt13_Rb_tree_nodeI6bipoloEEOT_RNSt16remove_referenceIS5_E4typeE>:
    7e92:	f3 0f 1e fa          	endbr64
    7e96:	55                   	push   %rbp
    7e97:	48 89 e5             	mov    %rsp,%rbp
    7e9a:	48 89 7d f8          	mov    %rdi,-0x8(%rbp)
    7e9e:	48 8b 45 f8          	mov    -0x8(%rbp),%rax
    7ea2:	5d                   	pop    %rbp
    7ea3:	c3                   	ret

0000000000007ea4 <_ZNSt8_Rb_treeI6bipoloS0_St9_IdentityIS0_ESt4lessIS0_ESaIS0_EE14_M_create_nodeIJRKS0_EEEPSt13_Rb_tree_nodeIS0_EDpOT_>:
    7ea4:	f3 0f 1e fa          	endbr64
    7ea8:	55                   	push   %rbp
    7ea9:	48 89 e5             	mov    %rsp,%rbp
    7eac:	48 83 ec 20          	sub    $0x20,%rsp
    7eb0:	48 89 7d e8          	mov    %rdi,-0x18(%rbp)
    7eb4:	48 89 75 e0          	mov    %rsi,-0x20(%rbp)
    7eb8:	48 8b 45 e8          	mov    -0x18(%rbp),%rax
    7ebc:	48 89 c7             	mov    %rax,%rdi
    7ebf:	e8 c8 04 00 00       	call   838c <_ZNSt8_Rb_treeI6bipoloS0_St9_IdentityIS0_ESt4lessIS0_ESaIS0_EE11_M_get_nodeEv>
    7ec4:	48 89 45 f8          	mov    %rax,-0x8(%rbp)
    7ec8:	48 8b 45 e0          	mov    -0x20(%rbp),%rax
    7ecc:	48 89 c7             	mov    %rax,%rdi
    7ecf:	e8 10 ef ff ff       	call   6de4 <_ZSt7forwardIRK6bipoloEOT_RNSt16remove_referenceIS3_E4typeE>
    7ed4:	48 89 c2             	mov    %rax,%rdx
    7ed7:	48 8b 4d f8          	mov    -0x8(%rbp),%rcx
    7edb:	48 8b 45 e8          	mov    -0x18(%rbp),%rax
    7edf:	48 89 ce             	mov    %rcx,%rsi
    7ee2:	48 89 c7             	mov    %rax,%rdi
    7ee5:	e8 e6 04 00 00       	call   83d0 <_ZNSt8_Rb_treeI6bipoloS0_St9_IdentityIS0_ESt4lessIS0_ESaIS0_EE17_M_construct_nodeIJRKS0_EEEvPSt13_Rb_tree_nodeIS0_EDpOT_>
    7eea:	48 8b 45 f8          	mov    -0x8(%rbp),%rax
    7eee:	c9                   	leave
    7eef:	c3                   	ret

0000000000007ef0 <_ZNSt11_Tuple_implILm0EJP10BipoloNodeSt14default_deleteIS0_EEEC1Ev>:
    7ef0:	f3 0f 1e fa          	endbr64
    7ef4:	55                   	push   %rbp
    7ef5:	48 89 e5             	mov    %rsp,%rbp
    7ef8:	48 83 ec 10          	sub    $0x10,%rsp
    7efc:	48 89 7d f8          	mov    %rdi,-0x8(%rbp)
    7f00:	48 8b 45 f8          	mov    -0x8(%rbp),%rax
    7f04:	48 89 c7             	mov    %rax,%rdi
    7f07:	e8 de 05 00 00       	call   84ea <_ZNSt11_Tuple_implILm1EJSt14default_deleteI10BipoloNodeEEEC1Ev>
    7f0c:	48 8b 45 f8          	mov    -0x8(%rbp),%rax
    7f10:	48 89 c7             	mov    %rax,%rdi
    7f13:	e8 f2 05 00 00       	call   850a <_ZNSt10_Head_baseILm0EP10BipoloNodeLb0EEC1Ev>
    7f18:	90                   	nop
    7f19:	c9                   	leave
    7f1a:	c3                   	ret

0000000000007f1b <_ZNSt11_Tuple_implILm0EJP10BipoloNodeSt14default_deleteIS0_EEE7_M_headERS4_>:
    7f1b:	f3 0f 1e fa          	endbr64
    7f1f:	55                   	push   %rbp
    7f20:	48 89 e5             	mov    %rsp,%rbp
    7f23:	48 83 ec 10          	sub    $0x10,%rsp
    7f27:	48 89 7d f8          	mov    %rdi,-0x8(%rbp)
    7f2b:	48 8b 45 f8          	mov    -0x8(%rbp),%rax
    7f2f:	48 89 c7             	mov    %rax,%rdi
    7f32:	e8 ed 05 00 00       	call   8524 <_ZNSt10_Head_baseILm0EP10BipoloNodeLb0EE7_M_headERS2_>
    7f37:	c9                   	leave
    7f38:	c3                   	ret

0000000000007f39 <_ZSt12__get_helperILm1ESt14default_deleteI10BipoloNodeEJEERT0_RSt11_Tuple_implIXT_EJS3_DpT1_EE>:
    7f39:	f3 0f 1e fa          	endbr64
    7f3d:	55                   	push   %rbp
    7f3e:	48 89 e5             	mov    %rsp,%rbp
    7f41:	48 83 ec 10          	sub    $0x10,%rsp
    7f45:	48 89 7d f8          	mov    %rdi,-0x8(%rbp)
    7f49:	48 8b 45 f8          	mov    -0x8(%rbp),%rax
    7f4d:	48 89 c7             	mov    %rax,%rdi
    7f50:	e8 e1 05 00 00       	call   8536 <_ZNSt11_Tuple_implILm1EJSt14default_deleteI10BipoloNodeEEE7_M_headERS3_>
    7f55:	c9                   	leave
    7f56:	c3                   	ret
    7f57:	90                   	nop

0000000000007f58 <_ZNSt11_Tuple_implILm1EJSt14default_deleteI14ExpressionNodeEEEC1IS0_I10BipoloNodeEEEOT_>:
    7f58:	f3 0f 1e fa          	endbr64
    7f5c:	55                   	push   %rbp
    7f5d:	48 89 e5             	mov    %rsp,%rbp
    7f60:	48 83 ec 10          	sub    $0x10,%rsp
    7f64:	48 89 7d f8          	mov    %rdi,-0x8(%rbp)
    7f68:	48 89 75 f0          	mov    %rsi,-0x10(%rbp)
    7f6c:	48 8b 45 f0          	mov    -0x10(%rbp),%rax
    7f70:	48 89 c7             	mov    %rax,%rdi
    7f73:	e8 70 df ff ff       	call   5ee8 <_ZSt7forwardISt14default_deleteI10BipoloNodeEEOT_RNSt16remove_referenceIS3_E4typeE>
    7f78:	48 89 c2             	mov    %rax,%rdx
    7f7b:	48 8b 45 f8          	mov    -0x8(%rbp),%rax
    7f7f:	48 89 d6             	mov    %rdx,%rsi
    7f82:	48 89 c7             	mov    %rax,%rdi
    7f85:	e8 ca 05 00 00       	call   8554 <_ZNSt10_Head_baseILm1ESt14default_deleteI14ExpressionNodeELb1EEC1IS0_I10BipoloNodeEEEOT_>
    7f8a:	90                   	nop
    7f8b:	c9                   	leave
    7f8c:	c3                   	ret
    7f8d:	90                   	nop

0000000000007f8e <_ZNSt10_Head_baseILm0EP14ExpressionNodeLb0EEC1IRS1_EEOT_>:
    7f8e:	f3 0f 1e fa          	endbr64
    7f92:	55                   	push   %rbp
    7f93:	48 89 e5             	mov    %rsp,%rbp
    7f96:	48 83 ec 10          	sub    $0x10,%rsp
    7f9a:	48 89 7d f8          	mov    %rdi,-0x8(%rbp)
    7f9e:	48 89 75 f0          	mov    %rsi,-0x10(%rbp)
    7fa2:	48 8b 45 f0          	mov    -0x10(%rbp),%rax
    7fa6:	48 89 c7             	mov    %rax,%rdi
    7fa9:	e8 55 fa ff ff       	call   7a03 <_ZSt7forwardIRP14ExpressionNodeEOT_RNSt16remove_referenceIS3_E4typeE>
    7fae:	48 8b 10             	mov    (%rax),%rdx
    7fb1:	48 8b 45 f8          	mov    -0x8(%rbp),%rax
    7fb5:	48 89 10             	mov    %rdx,(%rax)
    7fb8:	90                   	nop
    7fb9:	c9                   	leave
    7fba:	c3                   	ret

0000000000007fbb <_ZNSt11_Tuple_implILm1EJSt14default_deleteI14ExpressionNodeEEE7_M_headERS3_>:
    7fbb:	f3 0f 1e fa          	endbr64
    7fbf:	55                   	push   %rbp
    7fc0:	48 89 e5             	mov    %rsp,%rbp
    7fc3:	48 83 ec 10          	sub    $0x10,%rsp
    7fc7:	48 89 7d f8          	mov    %rdi,-0x8(%rbp)
    7fcb:	48 8b 45 f8          	mov    -0x8(%rbp),%rax
    7fcf:	48 89 c7             	mov    %rax,%rdi
    7fd2:	e8 b4 05 00 00       	call   858b <_ZNSt10_Head_baseILm1ESt14default_deleteI14ExpressionNodeELb1EE7_M_headERS3_>
    7fd7:	c9                   	leave
    7fd8:	c3                   	ret
    7fd9:	90                   	nop

0000000000007fda <_ZNSt11_Tuple_implILm0EJP13OperationNodeSt14default_deleteIS0_EEEC1Ev>:
    7fda:	f3 0f 1e fa          	endbr64
    7fde:	55                   	push   %rbp
    7fdf:	48 89 e5             	mov    %rsp,%rbp
    7fe2:	48 83 ec 10          	sub    $0x10,%rsp
    7fe6:	48 89 7d f8          	mov    %rdi,-0x8(%rbp)
    7fea:	48 8b 45 f8          	mov    -0x8(%rbp),%rax
    7fee:	48 89 c7             	mov    %rax,%rdi
    7ff1:	e8 a8 05 00 00       	call   859e <_ZNSt11_Tuple_implILm1EJSt14default_deleteI13OperationNodeEEEC1Ev>
    7ff6:	48 8b 45 f8          	mov    -0x8(%rbp),%rax
    7ffa:	48 89 c7             	mov    %rax,%rdi
    7ffd:	e8 bc 05 00 00       	call   85be <_ZNSt10_Head_baseILm0EP13OperationNodeLb0EEC1Ev>
    8002:	90                   	nop
    8003:	c9                   	leave
    8004:	c3                   	ret

0000000000008005 <_ZNSt11_Tuple_implILm0EJP13OperationNodeSt14default_deleteIS0_EEE7_M_headERS4_>:
    8005:	f3 0f 1e fa          	endbr64
    8009:	55                   	push   %rbp
    800a:	48 89 e5             	mov    %rsp,%rbp
    800d:	48 83 ec 10          	sub    $0x10,%rsp
    8011:	48 89 7d f8          	mov    %rdi,-0x8(%rbp)
    8015:	48 8b 45 f8          	mov    -0x8(%rbp),%rax
    8019:	48 89 c7             	mov    %rax,%rdi
    801c:	e8 b7 05 00 00       	call   85d8 <_ZNSt10_Head_baseILm0EP13OperationNodeLb0EE7_M_headERS2_>
    8021:	c9                   	leave
    8022:	c3                   	ret

0000000000008023 <_ZSt12__get_helperILm1ESt14default_deleteI13OperationNodeEJEERT0_RSt11_Tuple_implIXT_EJS3_DpT1_EE>:
    8023:	f3 0f 1e fa          	endbr64
    8027:	55                   	push   %rbp
    8028:	48 89 e5             	mov    %rsp,%rbp
    802b:	48 83 ec 10          	sub    $0x10,%rsp
    802f:	48 89 7d f8          	mov    %rdi,-0x8(%rbp)
    8033:	48 8b 45 f8          	mov    -0x8(%rbp),%rax
    8037:	48 89 c7             	mov    %rax,%rdi
    803a:	e8 ab 05 00 00       	call   85ea <_ZNSt11_Tuple_implILm1EJSt14default_deleteI13OperationNodeEEE7_M_headERS3_>
    803f:	c9                   	leave
    8040:	c3                   	ret
    8041:	90                   	nop

0000000000008042 <_ZNSt11_Tuple_implILm0EJP8CircuitoSt14default_deleteIS0_EEEC1Ev>:
    8042:	f3 0f 1e fa          	endbr64
    8046:	55                   	push   %rbp
    8047:	48 89 e5             	mov    %rsp,%rbp
    804a:	48 83 ec 10          	sub    $0x10,%rsp
    804e:	48 89 7d f8          	mov    %rdi,-0x8(%rbp)
    8052:	48 8b 45 f8          	mov    -0x8(%rbp),%rax
    8056:	48 89 c7             	mov    %rax,%rdi
    8059:	e8 aa 05 00 00       	call   8608 <_ZNSt11_Tuple_implILm1EJSt14default_deleteI8CircuitoEEEC1Ev>
    805e:	48 8b 45 f8          	mov    -0x8(%rbp),%rax
    8062:	48 89 c7             	mov    %rax,%rdi
    8065:	e8 be 05 00 00       	call   8628 <_ZNSt10_Head_baseILm0EP8CircuitoLb0EEC1Ev>
    806a:	90                   	nop
    806b:	c9                   	leave
    806c:	c3                   	ret

000000000000806d <_ZNSt11_Tuple_implILm0EJP8CircuitoSt14default_deleteIS0_EEE7_M_headERS4_>:
    806d:	f3 0f 1e fa          	endbr64
    8071:	55                   	push   %rbp
    8072:	48 89 e5             	mov    %rsp,%rbp
    8075:	48 83 ec 10          	sub    $0x10,%rsp
    8079:	48 89 7d f8          	mov    %rdi,-0x8(%rbp)
    807d:	48 8b 45 f8          	mov    -0x8(%rbp),%rax
    8081:	48 89 c7             	mov    %rax,%rdi
    8084:	e8 b9 05 00 00       	call   8642 <_ZNSt10_Head_baseILm0EP8CircuitoLb0EE7_M_headERS2_>
    8089:	c9                   	leave
    808a:	c3                   	ret

000000000000808b <_ZSt12__get_helperILm1ESt14default_deleteI8CircuitoEJEERT0_RSt11_Tuple_implIXT_EJS3_DpT1_EE>:
    808b:	f3 0f 1e fa          	endbr64
    808f:	55                   	push   %rbp
    8090:	48 89 e5             	mov    %rsp,%rbp
    8093:	48 83 ec 10          	sub    $0x10,%rsp
    8097:	48 89 7d f8          	mov    %rdi,-0x8(%rbp)
    809b:	48 8b 45 f8          	mov    -0x8(%rbp),%rax
    809f:	48 89 c7             	mov    %rax,%rdi
    80a2:	e8 ad 05 00 00       	call   8654 <_ZNSt11_Tuple_implILm1EJSt14default_deleteI8CircuitoEEE7_M_headERS3_>
    80a7:	c9                   	leave
    80a8:	c3                   	ret

00000000000080a9 <_ZSt12__get_helperILm0EP8CircuitoJSt14default_deleteIS0_EEERKT0_RKSt11_Tuple_implIXT_EJS4_DpT1_EE>:
    80a9:	f3 0f 1e fa          	endbr64
    80ad:	55                   	push   %rbp
    80ae:	48 89 e5             	mov    %rsp,%rbp
    80b1:	48 83 ec 10          	sub    $0x10,%rsp
    80b5:	48 89 7d f8          	mov    %rdi,-0x8(%rbp)
    80b9:	48 8b 45 f8          	mov    -0x8(%rbp),%rax
    80bd:	48 89 c7             	mov    %rax,%rdi
    80c0:	e8 ad 05 00 00       	call   8672 <_ZNSt11_Tuple_implILm0EJP8CircuitoSt14default_deleteIS0_EEE7_M_headERKS4_>
    80c5:	c9                   	leave
    80c6:	c3                   	ret

00000000000080c7 <_ZSt19__relocate_object_aI6bipoloS0_SaIS0_EEvPT_PT0_RT1_>:
    80c7:	f3 0f 1e fa          	endbr64
    80cb:	55                   	push   %rbp
    80cc:	48 89 e5             	mov    %rsp,%rbp
    80cf:	53                   	push   %rbx
    80d0:	48 83 ec 78          	sub    $0x78,%rsp
    80d4:	48 89 7d 98          	mov    %rdi,-0x68(%rbp)
    80d8:	48 89 75 90          	mov    %rsi,-0x70(%rbp)
    80dc:	48 89 55 88          	mov    %rdx,-0x78(%rbp)
    80e0:	48 8b 45 90          	mov    -0x70(%rbp),%rax
    80e4:	48 89 c7             	mov    %rax,%rdi
    80e7:	e8 a4 05 00 00       	call   8690 <_ZSt4moveIR6bipoloEONSt16remove_referenceIT_E4typeEOS3_>
    80ec:	48 8b 55 88          	mov    -0x78(%rbp),%rdx
    80f0:	48 89 55 c0          	mov    %rdx,-0x40(%rbp)
    80f4:	48 8b 55 98          	mov    -0x68(%rbp),%rdx
    80f8:	48 89 55 c8          	mov    %rdx,-0x38(%rbp)
    80fc:	48 89 45 d0          	mov    %rax,-0x30(%rbp)
    8100:	48 8b 45 d0          	mov    -0x30(%rbp),%rax
    8104:	48 89 c7             	mov    %rax,%rdi
    8107:	e8 69 06 00 00       	call   8775 <_ZSt7forwardI6bipoloEOT_RNSt16remove_referenceIS1_E4typeE>
    810c:	48 8b 55 c0          	mov    -0x40(%rbp),%rdx
    8110:	48 89 55 d8          	mov    %rdx,-0x28(%rbp)
    8114:	48 8b 55 c8          	mov    -0x38(%rbp),%rdx
    8118:	48 89 55 e0          	mov    %rdx,-0x20(%rbp)
    811c:	48 89 45 e8          	mov    %rax,-0x18(%rbp)
    8120:	48 8b 45 e0          	mov    -0x20(%rbp),%rax
    8124:	48 89 c6             	mov    %rax,%rsi
    8127:	bf 38 00 00 00       	mov    $0x38,%edi
    812c:	e8 f9 ad ff ff       	call   2f2a <_ZnwmPv>
    8131:	48 89 c3             	mov    %rax,%rbx
    8134:	48 8b 45 e8          	mov    -0x18(%rbp),%rax
    8138:	48 89 c7             	mov    %rax,%rdi
    813b:	e8 35 06 00 00       	call   8775 <_ZSt7forwardI6bipoloEOT_RNSt16remove_referenceIS1_E4typeE>
    8140:	48 89 c6             	mov    %rax,%rsi
    8143:	48 89 df             	mov    %rbx,%rdi
    8146:	e8 3d 06 00 00       	call   8788 <_ZN6bipoloC1EOS_>
    814b:	90                   	nop
    814c:	90                   	nop
    814d:	48 8b 45 90          	mov    -0x70(%rbp),%rax
    8151:	48 89 c7             	mov    %rax,%rdi
    8154:	e8 42 fa ff ff       	call   7b9b <_ZSt11__addressofI6bipoloEPT_RS1_>
    8159:	48 8b 55 88          	mov    -0x78(%rbp),%rdx
    815d:	48 89 55 a0          	mov    %rdx,-0x60(%rbp)
    8161:	48 89 45 a8          	mov    %rax,-0x58(%rbp)
    8165:	48 8b 45 a0          	mov    -0x60(%rbp),%rax
    8169:	48 89 45 b0          	mov    %rax,-0x50(%rbp)
    816d:	48 8b 45 a8          	mov    -0x58(%rbp),%rax
    8171:	48 89 45 b8          	mov    %rax,-0x48(%rbp)
    8175:	48 8b 45 b8          	mov    -0x48(%rbp),%rax
    8179:	48 89 c7             	mov    %rax,%rdi
    817c:	e8 db b1 ff ff       	call   335c <_ZN6bipoloD1Ev>
    8181:	90                   	nop
    8182:	90                   	nop
    8183:	90                   	nop
    8184:	48 8b 5d f8          	mov    -0x8(%rbp),%rbx
    8188:	c9                   	leave
    8189:	c3                   	ret

000000000000818a <_ZNSt10_Head_baseILm0EP14ExpressionNodeLb0EE7_M_headERS2_>:
    818a:	f3 0f 1e fa          	endbr64
    818e:	55                   	push   %rbp
    818f:	48 89 e5             	mov    %rsp,%rbp
    8192:	48 89 7d f8          	mov    %rdi,-0x8(%rbp)
    8196:	48 8b 45 f8          	mov    -0x8(%rbp),%rax
    819a:	5d                   	pop    %rbp
    819b:	c3                   	ret

000000000000819c <_ZNSt11_Tuple_implILm0EJP14ExpressionNodeSt14default_deleteIS0_EEE7_M_headERKS4_>:
    819c:	f3 0f 1e fa          	endbr64
    81a0:	55                   	push   %rbp
    81a1:	48 89 e5             	mov    %rsp,%rbp
    81a4:	48 83 ec 10          	sub    $0x10,%rsp
    81a8:	48 89 7d f8          	mov    %rdi,-0x8(%rbp)
    81ac:	48 8b 45 f8          	mov    -0x8(%rbp),%rax
    81b0:	48 89 c7             	mov    %rax,%rdi
    81b3:	e8 ea 04 00 00       	call   86a2 <_ZNSt10_Head_baseILm0EP14ExpressionNodeLb0EE7_M_headERKS2_>
    81b8:	c9                   	leave
    81b9:	c3                   	ret

00000000000081ba <_ZN9__gnu_cxx16__aligned_membufI6bipoloE6_M_ptrEv>:
    81ba:	f3 0f 1e fa          	endbr64
    81be:	55                   	push   %rbp
    81bf:	48 89 e5             	mov    %rsp,%rbp
    81c2:	48 83 ec 10          	sub    $0x10,%rsp
    81c6:	48 89 7d f8          	mov    %rdi,-0x8(%rbp)
    81ca:	48 8b 45 f8          	mov    -0x8(%rbp),%rax
    81ce:	48 89 c7             	mov    %rax,%rdi
    81d1:	e8 de 04 00 00       	call   86b4 <_ZN9__gnu_cxx16__aligned_membufI6bipoloE7_M_addrEv>
    81d6:	c9                   	leave
    81d7:	c3                   	ret

00000000000081d8 <_ZNSt15__new_allocatorISt13_Rb_tree_nodeI6bipoloEE10deallocateEPS2_m>:
    81d8:	f3 0f 1e fa          	endbr64
    81dc:	55                   	push   %rbp
    81dd:	48 89 e5             	mov    %rsp,%rbp
    81e0:	48 83 ec 20          	sub    $0x20,%rsp
    81e4:	48 89 7d f8          	mov    %rdi,-0x8(%rbp)
    81e8:	48 89 75 f0          	mov    %rsi,-0x10(%rbp)
    81ec:	48 89 55 e8          	mov    %rdx,-0x18(%rbp)
    81f0:	48 8b 55 e8          	mov    -0x18(%rbp),%rdx
    81f4:	48 89 d0             	mov    %rdx,%rax
    81f7:	48 c1 e0 02          	shl    $0x2,%rax
    81fb:	48 01 d0             	add    %rdx,%rax
    81fe:	48 01 c0             	add    %rax,%rax
    8201:	48 01 d0             	add    %rdx,%rax
    8204:	48 c1 e0 03          	shl    $0x3,%rax
    8208:	48 89 c2             	mov    %rax,%rdx
    820b:	48 8b 45 f0          	mov    -0x10(%rbp),%rax
    820f:	48 89 d6             	mov    %rdx,%rsi
    8212:	48 89 c7             	mov    %rax,%rdi
    8215:	e8 d6 a0 ff ff       	call   22f0 <_ZdlPvm@plt>
    821a:	c9                   	leave
    821b:	c3                   	ret

000000000000821c <_ZN9__gnu_cxx16__aligned_membufIiE6_M_ptrEv>:
    821c:	f3 0f 1e fa          	endbr64
    8220:	55                   	push   %rbp
    8221:	48 89 e5             	mov    %rsp,%rbp
    8224:	48 83 ec 10          	sub    $0x10,%rsp
    8228:	48 89 7d f8          	mov    %rdi,-0x8(%rbp)
    822c:	48 8b 45 f8          	mov    -0x8(%rbp),%rax
    8230:	48 89 c7             	mov    %rax,%rdi
    8233:	e8 8e 04 00 00       	call   86c6 <_ZN9__gnu_cxx16__aligned_membufIiE7_M_addrEv>
    8238:	c9                   	leave
    8239:	c3                   	ret

000000000000823a <_ZNSt15__new_allocatorISt13_Rb_tree_nodeIiEE10deallocateEPS1_m>:
    823a:	f3 0f 1e fa          	endbr64
    823e:	55                   	push   %rbp
    823f:	48 89 e5             	mov    %rsp,%rbp
    8242:	48 83 ec 20          	sub    $0x20,%rsp
    8246:	48 89 7d f8          	mov    %rdi,-0x8(%rbp)
    824a:	48 89 75 f0          	mov    %rsi,-0x10(%rbp)
    824e:	48 89 55 e8          	mov    %rdx,-0x18(%rbp)
    8252:	48 8b 55 e8          	mov    -0x18(%rbp),%rdx
    8256:	48 89 d0             	mov    %rdx,%rax
    8259:	48 c1 e0 02          	shl    $0x2,%rax
    825d:	48 01 d0             	add    %rdx,%rax
    8260:	48 c1 e0 03          	shl    $0x3,%rax
    8264:	48 89 c2             	mov    %rax,%rdx
    8267:	48 8b 45 f0          	mov    -0x10(%rbp),%rax
    826b:	48 89 d6             	mov    %rdx,%rsi
    826e:	48 89 c7             	mov    %rax,%rdi
    8271:	e8 7a a0 ff ff       	call   22f0 <_ZdlPvm@plt>
    8276:	c9                   	leave
    8277:	c3                   	ret

0000000000008278 <_ZNK9__gnu_cxx16__aligned_membufIiE6_M_ptrEv>:
    8278:	f3 0f 1e fa          	endbr64
    827c:	55                   	push   %rbp
    827d:	48 89 e5             	mov    %rsp,%rbp
    8280:	48 83 ec 10          	sub    $0x10,%rsp
    8284:	48 89 7d f8          	mov    %rdi,-0x8(%rbp)
    8288:	48 8b 45 f8          	mov    -0x8(%rbp),%rax
    828c:	48 89 c7             	mov    %rax,%rdi
    828f:	e8 44 04 00 00       	call   86d8 <_ZNK9__gnu_cxx16__aligned_membufIiE7_M_addrEv>
    8294:	c9                   	leave
    8295:	c3                   	ret

0000000000008296 <_ZNSt8_Rb_treeIiiSt9_IdentityIiESt4lessIiESaIiEE11_M_get_nodeEv>:
    8296:	f3 0f 1e fa          	endbr64
    829a:	55                   	push   %rbp
    829b:	48 89 e5             	mov    %rsp,%rbp
    829e:	48 83 ec 20          	sub    $0x20,%rsp
    82a2:	48 89 7d e8          	mov    %rdi,-0x18(%rbp)
    82a6:	48 8b 45 e8          	mov    -0x18(%rbp),%rax
    82aa:	48 89 c7             	mov    %rax,%rdi
    82ad:	e8 2c fb ff ff       	call   7dde <_ZNSt8_Rb_treeIiiSt9_IdentityIiESt4lessIiESaIiEE21_M_get_Node_allocatorEv>
    82b2:	48 89 45 f0          	mov    %rax,-0x10(%rbp)
    82b6:	48 c7 45 f8 01 00 00 	movq   $0x1,-0x8(%rbp)
    82bd:	00 
    82be:	48 8b 4d f8          	mov    -0x8(%rbp),%rcx
    82c2:	48 8b 45 f0          	mov    -0x10(%rbp),%rax
    82c6:	ba 00 00 00 00       	mov    $0x0,%edx
    82cb:	48 89 ce             	mov    %rcx,%rsi
    82ce:	48 89 c7             	mov    %rax,%rdi
    82d1:	e8 2c 05 00 00       	call   8802 <_ZNSt15__new_allocatorISt13_Rb_tree_nodeIiEE8allocateEmPKv>
    82d6:	90                   	nop
    82d7:	c9                   	leave
    82d8:	c3                   	ret
    82d9:	90                   	nop

00000000000082da <_ZNSt8_Rb_treeIiiSt9_IdentityIiESt4lessIiESaIiEE17_M_construct_nodeIJRKiEEEvPSt13_Rb_tree_nodeIiEDpOT_>:
    82da:	f3 0f 1e fa          	endbr64
    82de:	55                   	push   %rbp
    82df:	48 89 e5             	mov    %rsp,%rbp
    82e2:	41 54                	push   %r12
    82e4:	53                   	push   %rbx
    82e5:	48 83 ec 50          	sub    $0x50,%rsp
    82e9:	48 89 7d b8          	mov    %rdi,-0x48(%rbp)
    82ed:	48 89 75 b0          	mov    %rsi,-0x50(%rbp)
    82f1:	48 89 55 a8          	mov    %rdx,-0x58(%rbp)
    82f5:	48 8b 45 b0          	mov    -0x50(%rbp),%rax
    82f9:	48 89 c6             	mov    %rax,%rsi
    82fc:	bf 28 00 00 00       	mov    $0x28,%edi
    8301:	e8 24 ac ff ff       	call   2f2a <_ZnwmPv>
    8306:	48 8b 45 a8          	mov    -0x58(%rbp),%rax
    830a:	48 89 c7             	mov    %rax,%rdi
    830d:	e8 2c e7 ff ff       	call   6a3e <_ZSt7forwardIRKiEOT_RNSt16remove_referenceIS2_E4typeE>
    8312:	48 89 c3             	mov    %rax,%rbx
    8315:	48 8b 45 b0          	mov    -0x50(%rbp),%rax
    8319:	48 89 c7             	mov    %rax,%rdi
    831c:	e8 cf fa ff ff       	call   7df0 <_ZNSt13_Rb_tree_nodeIiE9_M_valptrEv>
    8321:	49 89 c4             	mov    %rax,%r12
    8324:	48 8b 45 b8          	mov    -0x48(%rbp),%rax
    8328:	48 89 c7             	mov    %rax,%rdi
    832b:	e8 ae fa ff ff       	call   7dde <_ZNSt8_Rb_treeIiiSt9_IdentityIiESt4lessIiESaIiEE21_M_get_Node_allocatorEv>
    8330:	48 89 45 c0          	mov    %rax,-0x40(%rbp)
    8334:	4c 89 65 c8          	mov    %r12,-0x38(%rbp)
    8338:	48 89 5d d0          	mov    %rbx,-0x30(%rbp)
    833c:	48 8b 45 d0          	mov    -0x30(%rbp),%rax
    8340:	48 89 c7             	mov    %rax,%rdi
    8343:	e8 f6 e6 ff ff       	call   6a3e <_ZSt7forwardIRKiEOT_RNSt16remove_referenceIS2_E4typeE>
    8348:	48 8b 55 c0          	mov    -0x40(%rbp),%rdx
    834c:	48 89 55 d8          	mov    %rdx,-0x28(%rbp)
    8350:	48 8b 55 c8          	mov    -0x38(%rbp),%rdx
    8354:	48 89 55 e0          	mov    %rdx,-0x20(%rbp)
    8358:	48 89 45 e8          	mov    %rax,-0x18(%rbp)
    835c:	48 8b 45 e0          	mov    -0x20(%rbp),%rax
    8360:	48 89 c6             	mov    %rax,%rsi
    8363:	bf 04 00 00 00       	mov    $0x4,%edi
    8368:	e8 bd ab ff ff       	call   2f2a <_ZnwmPv>
    836d:	48 89 c3             	mov    %rax,%rbx
    8370:	48 8b 45 e8          	mov    -0x18(%rbp),%rax
    8374:	48 89 c7             	mov    %rax,%rdi
    8377:	e8 c2 e6 ff ff       	call   6a3e <_ZSt7forwardIRKiEOT_RNSt16remove_referenceIS2_E4typeE>
    837c:	8b 00                	mov    (%rax),%eax
    837e:	89 03                	mov    %eax,(%rbx)
    8380:	90                   	nop
    8381:	90                   	nop
    8382:	90                   	nop
    8383:	48 83 c4 50          	add    $0x50,%rsp
    8387:	5b                   	pop    %rbx
    8388:	41 5c                	pop    %r12
    838a:	5d                   	pop    %rbp
    838b:	c3                   	ret

000000000000838c <_ZNSt8_Rb_treeI6bipoloS0_St9_IdentityIS0_ESt4lessIS0_ESaIS0_EE11_M_get_nodeEv>:
    838c:	f3 0f 1e fa          	endbr64
    8390:	55                   	push   %rbp
    8391:	48 89 e5             	mov    %rsp,%rbp
    8394:	48 83 ec 20          	sub    $0x20,%rsp
    8398:	48 89 7d e8          	mov    %rdi,-0x18(%rbp)
    839c:	48 8b 45 e8          	mov    -0x18(%rbp),%rax
    83a0:	48 89 c7             	mov    %rax,%rdi
    83a3:	e8 02 fa ff ff       	call   7daa <_ZNSt8_Rb_treeI6bipoloS0_St9_IdentityIS0_ESt4lessIS0_ESaIS0_EE21_M_get_Node_allocatorEv>
    83a8:	48 89 45 f0          	mov    %rax,-0x10(%rbp)
    83ac:	48 c7 45 f8 01 00 00 	movq   $0x1,-0x8(%rbp)
    83b3:	00 
    83b4:	48 8b 4d f8          	mov    -0x8(%rbp),%rcx
    83b8:	48 8b 45 f0          	mov    -0x10(%rbp),%rax
    83bc:	ba 00 00 00 00       	mov    $0x0,%edx
    83c1:	48 89 ce             	mov    %rcx,%rsi
    83c4:	48 89 c7             	mov    %rax,%rdi
    83c7:	e8 ac 04 00 00       	call   8878 <_ZNSt15__new_allocatorISt13_Rb_tree_nodeI6bipoloEE8allocateEmPKv>
    83cc:	90                   	nop
    83cd:	c9                   	leave
    83ce:	c3                   	ret
    83cf:	90                   	nop

00000000000083d0 <_ZNSt8_Rb_treeI6bipoloS0_St9_IdentityIS0_ESt4lessIS0_ESaIS0_EE17_M_construct_nodeIJRKS0_EEEvPSt13_Rb_tree_nodeIS0_EDpOT_>:
    83d0:	f3 0f 1e fa          	endbr64
    83d4:	55                   	push   %rbp
    83d5:	48 89 e5             	mov    %rsp,%rbp
    83d8:	41 56                	push   %r14
    83da:	41 55                	push   %r13
    83dc:	41 54                	push   %r12
    83de:	53                   	push   %rbx
    83df:	48 83 ec 50          	sub    $0x50,%rsp
    83e3:	48 89 7d a8          	mov    %rdi,-0x58(%rbp)
    83e7:	48 89 75 a0          	mov    %rsi,-0x60(%rbp)
    83eb:	48 89 55 98          	mov    %rdx,-0x68(%rbp)
    83ef:	48 8b 45 a0          	mov    -0x60(%rbp),%rax
    83f3:	48 89 c6             	mov    %rax,%rsi
    83f6:	bf 58 00 00 00       	mov    $0x58,%edi
    83fb:	e8 2a ab ff ff       	call   2f2a <_ZnwmPv>
    8400:	48 8b 45 98          	mov    -0x68(%rbp),%rax
    8404:	48 89 c7             	mov    %rax,%rdi
    8407:	e8 d8 e9 ff ff       	call   6de4 <_ZSt7forwardIRK6bipoloEOT_RNSt16remove_referenceIS3_E4typeE>
    840c:	48 89 c3             	mov    %rax,%rbx
    840f:	48 8b 45 a0          	mov    -0x60(%rbp),%rax
    8413:	48 89 c7             	mov    %rax,%rdi
    8416:	e8 a1 f9 ff ff       	call   7dbc <_ZNSt13_Rb_tree_nodeI6bipoloE9_M_valptrEv>
    841b:	49 89 c4             	mov    %rax,%r12
    841e:	48 8b 45 a8          	mov    -0x58(%rbp),%rax
    8422:	48 89 c7             	mov    %rax,%rdi
    8425:	e8 80 f9 ff ff       	call   7daa <_ZNSt8_Rb_treeI6bipoloS0_St9_IdentityIS0_ESt4lessIS0_ESaIS0_EE21_M_get_Node_allocatorEv>
    842a:	48 89 45 b0          	mov    %rax,-0x50(%rbp)
    842e:	4c 89 65 b8          	mov    %r12,-0x48(%rbp)
    8432:	48 89 5d c0          	mov    %rbx,-0x40(%rbp)
    8436:	48 8b 45 c0          	mov    -0x40(%rbp),%rax
    843a:	48 89 c7             	mov    %rax,%rdi
    843d:	e8 a2 e9 ff ff       	call   6de4 <_ZSt7forwardIRK6bipoloEOT_RNSt16remove_referenceIS3_E4typeE>
    8442:	48 8b 55 b0          	mov    -0x50(%rbp),%rdx
    8446:	48 89 55 c8          	mov    %rdx,-0x38(%rbp)
    844a:	48 8b 55 b8          	mov    -0x48(%rbp),%rdx
    844e:	48 89 55 d0          	mov    %rdx,-0x30(%rbp)
    8452:	48 89 45 d8          	mov    %rax,-0x28(%rbp)
    8456:	48 8b 5d d0          	mov    -0x30(%rbp),%rbx
    845a:	48 89 de             	mov    %rbx,%rsi
    845d:	bf 38 00 00 00       	mov    $0x38,%edi
    8462:	e8 c3 aa ff ff       	call   2f2a <_ZnwmPv>
    8467:	49 89 c4             	mov    %rax,%r12
    846a:	41 be 01 00 00 00    	mov    $0x1,%r14d
    8470:	48 8b 45 d8          	mov    -0x28(%rbp),%rax
    8474:	48 89 c7             	mov    %rax,%rdi
    8477:	e8 68 e9 ff ff       	call   6de4 <_ZSt7forwardIRK6bipoloEOT_RNSt16remove_referenceIS3_E4typeE>
    847c:	48 89 c6             	mov    %rax,%rsi
    847f:	4c 89 e7             	mov    %r12,%rdi
    8482:	e8 5b ae ff ff       	call   32e2 <_ZN6bipoloC1ERKS_>
    8487:	90                   	nop
    8488:	90                   	nop
    8489:	eb 51                	jmp    84dc <_ZNSt8_Rb_treeI6bipoloS0_St9_IdentityIS0_ESt4lessIS0_ESaIS0_EE17_M_construct_nodeIJRKS0_EEEvPSt13_Rb_tree_nodeIS0_EDpOT_+0x10c>
    848b:	f3 0f 1e fa          	endbr64
    848f:	49 89 c5             	mov    %rax,%r13
    8492:	45 84 f6             	test   %r14b,%r14b
    8495:	74 0b                	je     84a2 <_ZNSt8_Rb_treeI6bipoloS0_St9_IdentityIS0_ESt4lessIS0_ESaIS0_EE17_M_construct_nodeIJRKS0_EEEvPSt13_Rb_tree_nodeIS0_EDpOT_+0xd2>
    8497:	48 89 de             	mov    %rbx,%rsi
    849a:	4c 89 e7             	mov    %r12,%rdi
    849d:	e8 9e aa ff ff       	call   2f40 <_ZdlPvS_>
    84a2:	4c 89 e8             	mov    %r13,%rax
    84a5:	48 89 c7             	mov    %rax,%rdi
    84a8:	e8 93 9d ff ff       	call   2240 <__cxa_begin_catch@plt>
    84ad:	48 8b 55 a0          	mov    -0x60(%rbp),%rdx
    84b1:	48 8b 45 a8          	mov    -0x58(%rbp),%rax
    84b5:	48 89 d6             	mov    %rdx,%rsi
    84b8:	48 89 c7             	mov    %rax,%rdi
    84bb:	e8 4c f0 ff ff       	call   750c <_ZNSt8_Rb_treeI6bipoloS0_St9_IdentityIS0_ESt4lessIS0_ESaIS0_EE11_M_put_nodeEPSt13_Rb_tree_nodeIS0_E>
    84c0:	e8 ab 9e ff ff       	call   2370 <__cxa_rethrow@plt>
    84c5:	f3 0f 1e fa          	endbr64
    84c9:	48 89 c3             	mov    %rax,%rbx
    84cc:	e8 af 9e ff ff       	call   2380 <__cxa_end_catch@plt>
    84d1:	48 89 d8             	mov    %rbx,%rax
    84d4:	48 89 c7             	mov    %rax,%rdi
    84d7:	e8 c4 9e ff ff       	call   23a0 <_Unwind_Resume@plt>
    84dc:	48 83 c4 50          	add    $0x50,%rsp
    84e0:	5b                   	pop    %rbx
    84e1:	41 5c                	pop    %r12
    84e3:	41 5d                	pop    %r13
    84e5:	41 5e                	pop    %r14
    84e7:	5d                   	pop    %rbp
    84e8:	c3                   	ret
    84e9:	90                   	nop

00000000000084ea <_ZNSt11_Tuple_implILm1EJSt14default_deleteI10BipoloNodeEEEC1Ev>:
    84ea:	f3 0f 1e fa          	endbr64
    84ee:	55                   	push   %rbp
    84ef:	48 89 e5             	mov    %rsp,%rbp
    84f2:	48 83 ec 10          	sub    $0x10,%rsp
    84f6:	48 89 7d f8          	mov    %rdi,-0x8(%rbp)
    84fa:	48 8b 45 f8          	mov    -0x8(%rbp),%rax
    84fe:	48 89 c7             	mov    %rax,%rdi
    8501:	e8 e4 01 00 00       	call   86ea <_ZNSt10_Head_baseILm1ESt14default_deleteI10BipoloNodeELb1EEC1Ev>
    8506:	90                   	nop
    8507:	c9                   	leave
    8508:	c3                   	ret
    8509:	90                   	nop

000000000000850a <_ZNSt10_Head_baseILm0EP10BipoloNodeLb0EEC1Ev>:
    850a:	f3 0f 1e fa          	endbr64
    850e:	55                   	push   %rbp
    850f:	48 89 e5             	mov    %rsp,%rbp
    8512:	48 89 7d f8          	mov    %rdi,-0x8(%rbp)
    8516:	48 8b 45 f8          	mov    -0x8(%rbp),%rax
    851a:	48 c7 00 00 00 00 00 	movq   $0x0,(%rax)
    8521:	90                   	nop
    8522:	5d                   	pop    %rbp
    8523:	c3                   	ret

0000000000008524 <_ZNSt10_Head_baseILm0EP10BipoloNodeLb0EE7_M_headERS2_>:
    8524:	f3 0f 1e fa          	endbr64
    8528:	55                   	push   %rbp
    8529:	48 89 e5             	mov    %rsp,%rbp
    852c:	48 89 7d f8          	mov    %rdi,-0x8(%rbp)
    8530:	48 8b 45 f8          	mov    -0x8(%rbp),%rax
    8534:	5d                   	pop    %rbp
    8535:	c3                   	ret

0000000000008536 <_ZNSt11_Tuple_implILm1EJSt14default_deleteI10BipoloNodeEEE7_M_headERS3_>:
    8536:	f3 0f 1e fa          	endbr64
    853a:	55                   	push   %rbp
    853b:	48 89 e5             	mov    %rsp,%rbp
    853e:	48 83 ec 10          	sub    $0x10,%rsp
    8542:	48 89 7d f8          	mov    %rdi,-0x8(%rbp)
    8546:	48 8b 45 f8          	mov    -0x8(%rbp),%rax
    854a:	48 89 c7             	mov    %rax,%rdi
    854d:	e8 a7 01 00 00       	call   86f9 <_ZNSt10_Head_baseILm1ESt14default_deleteI10BipoloNodeELb1EE7_M_headERS3_>
    8552:	c9                   	leave
    8553:	c3                   	ret

0000000000008554 <_ZNSt10_Head_baseILm1ESt14default_deleteI14ExpressionNodeELb1EEC1IS0_I10BipoloNodeEEEOT_>:
    8554:	f3 0f 1e fa          	endbr64
    8558:	55                   	push   %rbp
    8559:	48 89 e5             	mov    %rsp,%rbp
    855c:	53                   	push   %rbx
    855d:	48 83 ec 18          	sub    $0x18,%rsp
    8561:	48 89 7d e8          	mov    %rdi,-0x18(%rbp)
    8565:	48 89 75 e0          	mov    %rsi,-0x20(%rbp)
    8569:	48 8b 5d e8          	mov    -0x18(%rbp),%rbx
    856d:	48 8b 45 e0          	mov    -0x20(%rbp),%rax
    8571:	48 89 c7             	mov    %rax,%rdi
    8574:	e8 6f d9 ff ff       	call   5ee8 <_ZSt7forwardISt14default_deleteI10BipoloNodeEEOT_RNSt16remove_referenceIS3_E4typeE>
    8579:	48 89 c6             	mov    %rax,%rsi
    857c:	48 89 df             	mov    %rbx,%rdi
    857f:	e8 88 01 00 00       	call   870c <_ZNSt14default_deleteI14ExpressionNodeEC1I10BipoloNodevEERKS_IT_E>
    8584:	90                   	nop
    8585:	48 8b 5d f8          	mov    -0x8(%rbp),%rbx
    8589:	c9                   	leave
    858a:	c3                   	ret

000000000000858b <_ZNSt10_Head_baseILm1ESt14default_deleteI14ExpressionNodeELb1EE7_M_headERS3_>:
    858b:	f3 0f 1e fa          	endbr64
    858f:	55                   	push   %rbp
    8590:	48 89 e5             	mov    %rsp,%rbp
    8593:	48 89 7d f8          	mov    %rdi,-0x8(%rbp)
    8597:	48 8b 45 f8          	mov    -0x8(%rbp),%rax
    859b:	5d                   	pop    %rbp
    859c:	c3                   	ret
    859d:	90                   	nop

000000000000859e <_ZNSt11_Tuple_implILm1EJSt14default_deleteI13OperationNodeEEEC1Ev>:
    859e:	f3 0f 1e fa          	endbr64
    85a2:	55                   	push   %rbp
    85a3:	48 89 e5             	mov    %rsp,%rbp
    85a6:	48 83 ec 10          	sub    $0x10,%rsp
    85aa:	48 89 7d f8          	mov    %rdi,-0x8(%rbp)
    85ae:	48 8b 45 f8          	mov    -0x8(%rbp),%rax
    85b2:	48 89 c7             	mov    %rax,%rdi
    85b5:	e8 66 01 00 00       	call   8720 <_ZNSt10_Head_baseILm1ESt14default_deleteI13OperationNodeELb1EEC1Ev>
    85ba:	90                   	nop
    85bb:	c9                   	leave
    85bc:	c3                   	ret
    85bd:	90                   	nop

00000000000085be <_ZNSt10_Head_baseILm0EP13OperationNodeLb0EEC1Ev>:
    85be:	f3 0f 1e fa          	endbr64
    85c2:	55                   	push   %rbp
    85c3:	48 89 e5             	mov    %rsp,%rbp
    85c6:	48 89 7d f8          	mov    %rdi,-0x8(%rbp)
    85ca:	48 8b 45 f8          	mov    -0x8(%rbp),%rax
    85ce:	48 c7 00 00 00 00 00 	movq   $0x0,(%rax)
    85d5:	90                   	nop
    85d6:	5d                   	pop    %rbp
    85d7:	c3                   	ret

00000000000085d8 <_ZNSt10_Head_baseILm0EP13OperationNodeLb0EE7_M_headERS2_>:
    85d8:	f3 0f 1e fa          	endbr64
    85dc:	55                   	push   %rbp
    85dd:	48 89 e5             	mov    %rsp,%rbp
    85e0:	48 89 7d f8          	mov    %rdi,-0x8(%rbp)
    85e4:	48 8b 45 f8          	mov    -0x8(%rbp),%rax
    85e8:	5d                   	pop    %rbp
    85e9:	c3                   	ret

00000000000085ea <_ZNSt11_Tuple_implILm1EJSt14default_deleteI13OperationNodeEEE7_M_headERS3_>:
    85ea:	f3 0f 1e fa          	endbr64
    85ee:	55                   	push   %rbp
    85ef:	48 89 e5             	mov    %rsp,%rbp
    85f2:	48 83 ec 10          	sub    $0x10,%rsp
    85f6:	48 89 7d f8          	mov    %rdi,-0x8(%rbp)
    85fa:	48 8b 45 f8          	mov    -0x8(%rbp),%rax
    85fe:	48 89 c7             	mov    %rax,%rdi
    8601:	e8 29 01 00 00       	call   872f <_ZNSt10_Head_baseILm1ESt14default_deleteI13OperationNodeELb1EE7_M_headERS3_>
    8606:	c9                   	leave
    8607:	c3                   	ret

0000000000008608 <_ZNSt11_Tuple_implILm1EJSt14default_deleteI8CircuitoEEEC1Ev>:
    8608:	f3 0f 1e fa          	endbr64
    860c:	55                   	push   %rbp
    860d:	48 89 e5             	mov    %rsp,%rbp
    8610:	48 83 ec 10          	sub    $0x10,%rsp
    8614:	48 89 7d f8          	mov    %rdi,-0x8(%rbp)
    8618:	48 8b 45 f8          	mov    -0x8(%rbp),%rax
    861c:	48 89 c7             	mov    %rax,%rdi
    861f:	e8 1e 01 00 00       	call   8742 <_ZNSt10_Head_baseILm1ESt14default_deleteI8CircuitoELb1EEC1Ev>
    8624:	90                   	nop
    8625:	c9                   	leave
    8626:	c3                   	ret
    8627:	90                   	nop

0000000000008628 <_ZNSt10_Head_baseILm0EP8CircuitoLb0EEC1Ev>:
    8628:	f3 0f 1e fa          	endbr64
    862c:	55                   	push   %rbp
    862d:	48 89 e5             	mov    %rsp,%rbp
    8630:	48 89 7d f8          	mov    %rdi,-0x8(%rbp)
    8634:	48 8b 45 f8          	mov    -0x8(%rbp),%rax
    8638:	48 c7 00 00 00 00 00 	movq   $0x0,(%rax)
    863f:	90                   	nop
    8640:	5d                   	pop    %rbp
    8641:	c3                   	ret

0000000000008642 <_ZNSt10_Head_baseILm0EP8CircuitoLb0EE7_M_headERS2_>:
    8642:	f3 0f 1e fa          	endbr64
    8646:	55                   	push   %rbp
    8647:	48 89 e5             	mov    %rsp,%rbp
    864a:	48 89 7d f8          	mov    %rdi,-0x8(%rbp)
    864e:	48 8b 45 f8          	mov    -0x8(%rbp),%rax
    8652:	5d                   	pop    %rbp
    8653:	c3                   	ret

0000000000008654 <_ZNSt11_Tuple_implILm1EJSt14default_deleteI8CircuitoEEE7_M_headERS3_>:
    8654:	f3 0f 1e fa          	endbr64
    8658:	55                   	push   %rbp
    8659:	48 89 e5             	mov    %rsp,%rbp
    865c:	48 83 ec 10          	sub    $0x10,%rsp
    8660:	48 89 7d f8          	mov    %rdi,-0x8(%rbp)
    8664:	48 8b 45 f8          	mov    -0x8(%rbp),%rax
    8668:	48 89 c7             	mov    %rax,%rdi
    866b:	e8 e1 00 00 00       	call   8751 <_ZNSt10_Head_baseILm1ESt14default_deleteI8CircuitoELb1EE7_M_headERS3_>
    8670:	c9                   	leave
    8671:	c3                   	ret

0000000000008672 <_ZNSt11_Tuple_implILm0EJP8CircuitoSt14default_deleteIS0_EEE7_M_headERKS4_>:
    8672:	f3 0f 1e fa          	endbr64
    8676:	55                   	push   %rbp
    8677:	48 89 e5             	mov    %rsp,%rbp
    867a:	48 83 ec 10          	sub    $0x10,%rsp
    867e:	48 89 7d f8          	mov    %rdi,-0x8(%rbp)
    8682:	48 8b 45 f8          	mov    -0x8(%rbp),%rax
    8686:	48 89 c7             	mov    %rax,%rdi
    8689:	e8 d5 00 00 00       	call   8763 <_ZNSt10_Head_baseILm0EP8CircuitoLb0EE7_M_headERKS2_>
    868e:	c9                   	leave
    868f:	c3                   	ret

0000000000008690 <_ZSt4moveIR6bipoloEONSt16remove_referenceIT_E4typeEOS3_>:
    8690:	f3 0f 1e fa          	endbr64
    8694:	55                   	push   %rbp
    8695:	48 89 e5             	mov    %rsp,%rbp
    8698:	48 89 7d f8          	mov    %rdi,-0x8(%rbp)
    869c:	48 8b 45 f8          	mov    -0x8(%rbp),%rax
    86a0:	5d                   	pop    %rbp
    86a1:	c3                   	ret

00000000000086a2 <_ZNSt10_Head_baseILm0EP14ExpressionNodeLb0EE7_M_headERKS2_>:
    86a2:	f3 0f 1e fa          	endbr64
    86a6:	55                   	push   %rbp
    86a7:	48 89 e5             	mov    %rsp,%rbp
    86aa:	48 89 7d f8          	mov    %rdi,-0x8(%rbp)
    86ae:	48 8b 45 f8          	mov    -0x8(%rbp),%rax
    86b2:	5d                   	pop    %rbp
    86b3:	c3                   	ret

00000000000086b4 <_ZN9__gnu_cxx16__aligned_membufI6bipoloE7_M_addrEv>:
    86b4:	f3 0f 1e fa          	endbr64
    86b8:	55                   	push   %rbp
    86b9:	48 89 e5             	mov    %rsp,%rbp
    86bc:	48 89 7d f8          	mov    %rdi,-0x8(%rbp)
    86c0:	48 8b 45 f8          	mov    -0x8(%rbp),%rax
    86c4:	5d                   	pop    %rbp
    86c5:	c3                   	ret

00000000000086c6 <_ZN9__gnu_cxx16__aligned_membufIiE7_M_addrEv>:
    86c6:	f3 0f 1e fa          	endbr64
    86ca:	55                   	push   %rbp
    86cb:	48 89 e5             	mov    %rsp,%rbp
    86ce:	48 89 7d f8          	mov    %rdi,-0x8(%rbp)
    86d2:	48 8b 45 f8          	mov    -0x8(%rbp),%rax
    86d6:	5d                   	pop    %rbp
    86d7:	c3                   	ret

00000000000086d8 <_ZNK9__gnu_cxx16__aligned_membufIiE7_M_addrEv>:
    86d8:	f3 0f 1e fa          	endbr64
    86dc:	55                   	push   %rbp
    86dd:	48 89 e5             	mov    %rsp,%rbp
    86e0:	48 89 7d f8          	mov    %rdi,-0x8(%rbp)
    86e4:	48 8b 45 f8          	mov    -0x8(%rbp),%rax
    86e8:	5d                   	pop    %rbp
    86e9:	c3                   	ret

00000000000086ea <_ZNSt10_Head_baseILm1ESt14default_deleteI10BipoloNodeELb1EEC1Ev>:
    86ea:	f3 0f 1e fa          	endbr64
    86ee:	55                   	push   %rbp
    86ef:	48 89 e5             	mov    %rsp,%rbp
    86f2:	48 89 7d f8          	mov    %rdi,-0x8(%rbp)
    86f6:	90                   	nop
    86f7:	5d                   	pop    %rbp
    86f8:	c3                   	ret

00000000000086f9 <_ZNSt10_Head_baseILm1ESt14default_deleteI10BipoloNodeELb1EE7_M_headERS3_>:
    86f9:	f3 0f 1e fa          	endbr64
    86fd:	55                   	push   %rbp
    86fe:	48 89 e5             	mov    %rsp,%rbp
    8701:	48 89 7d f8          	mov    %rdi,-0x8(%rbp)
    8705:	48 8b 45 f8          	mov    -0x8(%rbp),%rax
    8709:	5d                   	pop    %rbp
    870a:	c3                   	ret
    870b:	90                   	nop

000000000000870c <_ZNSt14default_deleteI14ExpressionNodeEC1I10BipoloNodevEERKS_IT_E>:
    870c:	f3 0f 1e fa          	endbr64
    8710:	55                   	push   %rbp
    8711:	48 89 e5             	mov    %rsp,%rbp
    8714:	48 89 7d f8          	mov    %rdi,-0x8(%rbp)
    8718:	48 89 75 f0          	mov    %rsi,-0x10(%rbp)
    871c:	90                   	nop
    871d:	5d                   	pop    %rbp
    871e:	c3                   	ret
    871f:	90                   	nop

0000000000008720 <_ZNSt10_Head_baseILm1ESt14default_deleteI13OperationNodeELb1EEC1Ev>:
    8720:	f3 0f 1e fa          	endbr64
    8724:	55                   	push   %rbp
    8725:	48 89 e5             	mov    %rsp,%rbp
    8728:	48 89 7d f8          	mov    %rdi,-0x8(%rbp)
    872c:	90                   	nop
    872d:	5d                   	pop    %rbp
    872e:	c3                   	ret

000000000000872f <_ZNSt10_Head_baseILm1ESt14default_deleteI13OperationNodeELb1EE7_M_headERS3_>:
    872f:	f3 0f 1e fa          	endbr64
    8733:	55                   	push   %rbp
    8734:	48 89 e5             	mov    %rsp,%rbp
    8737:	48 89 7d f8          	mov    %rdi,-0x8(%rbp)
    873b:	48 8b 45 f8          	mov    -0x8(%rbp),%rax
    873f:	5d                   	pop    %rbp
    8740:	c3                   	ret
    8741:	90                   	nop

0000000000008742 <_ZNSt10_Head_baseILm1ESt14default_deleteI8CircuitoELb1EEC1Ev>:
    8742:	f3 0f 1e fa          	endbr64
    8746:	55                   	push   %rbp
    8747:	48 89 e5             	mov    %rsp,%rbp
    874a:	48 89 7d f8          	mov    %rdi,-0x8(%rbp)
    874e:	90                   	nop
    874f:	5d                   	pop    %rbp
    8750:	c3                   	ret

0000000000008751 <_ZNSt10_Head_baseILm1ESt14default_deleteI8CircuitoELb1EE7_M_headERS3_>:
    8751:	f3 0f 1e fa          	endbr64
    8755:	55                   	push   %rbp
    8756:	48 89 e5             	mov    %rsp,%rbp
    8759:	48 89 7d f8          	mov    %rdi,-0x8(%rbp)
    875d:	48 8b 45 f8          	mov    -0x8(%rbp),%rax
    8761:	5d                   	pop    %rbp
    8762:	c3                   	ret

0000000000008763 <_ZNSt10_Head_baseILm0EP8CircuitoLb0EE7_M_headERKS2_>:
    8763:	f3 0f 1e fa          	endbr64
    8767:	55                   	push   %rbp
    8768:	48 89 e5             	mov    %rsp,%rbp
    876b:	48 89 7d f8          	mov    %rdi,-0x8(%rbp)
    876f:	48 8b 45 f8          	mov    -0x8(%rbp),%rax
    8773:	5d                   	pop    %rbp
    8774:	c3                   	ret

0000000000008775 <_ZSt7forwardI6bipoloEOT_RNSt16remove_referenceIS1_E4typeE>:
    8775:	f3 0f 1e fa          	endbr64
    8779:	55                   	push   %rbp
    877a:	48 89 e5             	mov    %rsp,%rbp
    877d:	48 89 7d f8          	mov    %rdi,-0x8(%rbp)
    8781:	48 8b 45 f8          	mov    -0x8(%rbp),%rax
    8785:	5d                   	pop    %rbp
    8786:	c3                   	ret
    8787:	90                   	nop

0000000000008788 <_ZN6bipoloC1EOS_>:
    8788:	f3 0f 1e fa          	endbr64
    878c:	55                   	push   %rbp
    878d:	48 89 e5             	mov    %rsp,%rbp
    8790:	48 83 ec 10          	sub    $0x10,%rsp
    8794:	48 89 7d f8          	mov    %rdi,-0x8(%rbp)
    8798:	48 89 75 f0          	mov    %rsi,-0x10(%rbp)
    879c:	48 8b 45 f0          	mov    -0x10(%rbp),%rax
    87a0:	8b 10                	mov    (%rax),%edx
    87a2:	48 8b 45 f8          	mov    -0x8(%rbp),%rax
    87a6:	89 10                	mov    %edx,(%rax)
    87a8:	48 8b 45 f8          	mov    -0x8(%rbp),%rax
    87ac:	48 83 c0 08          	add    $0x8,%rax
    87b0:	48 8b 55 f0          	mov    -0x10(%rbp),%rdx
    87b4:	48 83 c2 08          	add    $0x8,%rdx
    87b8:	48 89 d6             	mov    %rdx,%rsi
    87bb:	48 89 c7             	mov    %rax,%rdi
    87be:	e8 ad 9a ff ff       	call   2270 <_ZNSt7__cxx1112basic_stringIcSt11char_traitsIcESaIcEEC1EOS4_@plt>
    87c3:	48 8b 45 f0          	mov    -0x10(%rbp),%rax
    87c7:	8b 50 28             	mov    0x28(%rax),%edx
    87ca:	48 8b 45 f8          	mov    -0x8(%rbp),%rax
    87ce:	89 50 28             	mov    %edx,0x28(%rax)
    87d1:	48 8b 45 f0          	mov    -0x10(%rbp),%rax
    87d5:	f3 0f 10 40 2c       	movss  0x2c(%rax),%xmm0
    87da:	48 8b 45 f8          	mov    -0x8(%rbp),%rax
    87de:	f3 0f 11 40 2c       	movss  %xmm0,0x2c(%rax)
    87e3:	48 8b 45 f0          	mov    -0x10(%rbp),%rax
    87e7:	8b 50 30             	mov    0x30(%rax),%edx
    87ea:	48 8b 45 f8          	mov    -0x8(%rbp),%rax
    87ee:	89 50 30             	mov    %edx,0x30(%rax)
    87f1:	48 8b 45 f0          	mov    -0x10(%rbp),%rax
    87f5:	8b 50 34             	mov    0x34(%rax),%edx
    87f8:	48 8b 45 f8          	mov    -0x8(%rbp),%rax
    87fc:	89 50 34             	mov    %edx,0x34(%rax)
    87ff:	90                   	nop
    8800:	c9                   	leave
    8801:	c3                   	ret

0000000000008802 <_ZNSt15__new_allocatorISt13_Rb_tree_nodeIiEE8allocateEmPKv>:
    8802:	f3 0f 1e fa          	endbr64
    8806:	55                   	push   %rbp
    8807:	48 89 e5             	mov    %rsp,%rbp
    880a:	48 83 ec 30          	sub    $0x30,%rsp
    880e:	48 89 7d e8          	mov    %rdi,-0x18(%rbp)
    8812:	48 89 75 e0          	mov    %rsi,-0x20(%rbp)
    8816:	48 89 55 d8          	mov    %rdx,-0x28(%rbp)
    881a:	48 8b 45 e8          	mov    -0x18(%rbp),%rax
    881e:	48 89 45 f8          	mov    %rax,-0x8(%rbp)
    8822:	48 b8 33 33 33 33 33 	movabs $0x333333333333333,%rax
    8829:	33 33 03 
    882c:	48 3b 45 e0          	cmp    -0x20(%rbp),%rax
    8830:	0f 92 c0             	setb   %al
    8833:	0f b6 c0             	movzbl %al,%eax
    8836:	48 85 c0             	test   %rax,%rax
    8839:	0f 95 c0             	setne  %al
    883c:	84 c0                	test   %al,%al
    883e:	74 1a                	je     885a <_ZNSt15__new_allocatorISt13_Rb_tree_nodeIiEE8allocateEmPKv+0x58>
    8840:	48 b8 66 66 66 66 66 	movabs $0x666666666666666,%rax
    8847:	66 66 06 
    884a:	48 3b 45 e0          	cmp    -0x20(%rbp),%rax
    884e:	73 05                	jae    8855 <_ZNSt15__new_allocatorISt13_Rb_tree_nodeIiEE8allocateEmPKv+0x53>
    8850:	e8 5b 9a ff ff       	call   22b0 <_ZSt28__throw_bad_array_new_lengthv@plt>
    8855:	e8 d6 99 ff ff       	call   2230 <_ZSt17__throw_bad_allocv@plt>
    885a:	48 8b 55 e0          	mov    -0x20(%rbp),%rdx
    885e:	48 89 d0             	mov    %rdx,%rax
    8861:	48 c1 e0 02          	shl    $0x2,%rax
    8865:	48 01 d0             	add    %rdx,%rax
    8868:	48 c1 e0 03          	shl    $0x3,%rax
    886c:	48 89 c7             	mov    %rax,%rdi
    886f:	e8 6c 9a ff ff       	call   22e0 <_Znwm@plt>
    8874:	90                   	nop
    8875:	c9                   	leave
    8876:	c3                   	ret
    8877:	90                   	nop

0000000000008878 <_ZNSt15__new_allocatorISt13_Rb_tree_nodeI6bipoloEE8allocateEmPKv>:
    8878:	f3 0f 1e fa          	endbr64
    887c:	55                   	push   %rbp
    887d:	48 89 e5             	mov    %rsp,%rbp
    8880:	48 83 ec 30          	sub    $0x30,%rsp
    8884:	48 89 7d e8          	mov    %rdi,-0x18(%rbp)
    8888:	48 89 75 e0          	mov    %rsi,-0x20(%rbp)
    888c:	48 89 55 d8          	mov    %rdx,-0x28(%rbp)
    8890:	48 8b 45 e8          	mov    -0x18(%rbp),%rax
    8894:	48 89 45 f8          	mov    %rax,-0x8(%rbp)
    8898:	48 b8 5d 74 d1 45 17 	movabs $0x1745d1745d1745d,%rax
    889f:	5d 74 01 
    88a2:	48 3b 45 e0          	cmp    -0x20(%rbp),%rax
    88a6:	0f 92 c0             	setb   %al
    88a9:	0f b6 c0             	movzbl %al,%eax
    88ac:	48 85 c0             	test   %rax,%rax
    88af:	0f 95 c0             	setne  %al
    88b2:	84 c0                	test   %al,%al
    88b4:	74 1a                	je     88d0 <_ZNSt15__new_allocatorISt13_Rb_tree_nodeI6bipoloEE8allocateEmPKv+0x58>
    88b6:	48 b8 ba e8 a2 8b 2e 	movabs $0x2e8ba2e8ba2e8ba,%rax
    88bd:	ba e8 02 
    88c0:	48 3b 45 e0          	cmp    -0x20(%rbp),%rax
    88c4:	73 05                	jae    88cb <_ZNSt15__new_allocatorISt13_Rb_tree_nodeI6bipoloEE8allocateEmPKv+0x53>
    88c6:	e8 e5 99 ff ff       	call   22b0 <_ZSt28__throw_bad_array_new_lengthv@plt>
    88cb:	e8 60 99 ff ff       	call   2230 <_ZSt17__throw_bad_allocv@plt>
    88d0:	48 8b 55 e0          	mov    -0x20(%rbp),%rdx
    88d4:	48 89 d0             	mov    %rdx,%rax
    88d7:	48 c1 e0 02          	shl    $0x2,%rax
    88db:	48 01 d0             	add    %rdx,%rax
    88de:	48 01 c0             	add    %rax,%rax
    88e1:	48 01 d0             	add    %rdx,%rax
    88e4:	48 c1 e0 03          	shl    $0x3,%rax
    88e8:	48 89 c7             	mov    %rax,%rdi
    88eb:	e8 f0 99 ff ff       	call   22e0 <_Znwm@plt>
    88f0:	90                   	nop
    88f1:	c9                   	leave
    88f2:	c3                   	ret

Disassembly of section .fini:

00000000000088f4 <_fini>:
    88f4:	f3 0f 1e fa          	endbr64
    88f8:	48 83 ec 08          	sub    $0x8,%rsp
    88fc:	48 83 c4 08          	add    $0x8,%rsp
    8900:	c3                   	ret
