
types:     file format elf64-x86-64


Disassembly of section .init:

0000000000002000 <_init>:
    2000:	f3 0f 1e fa          	endbr64
    2004:	48 83 ec 08          	sub    $0x8,%rsp
    2008:	48 8b 05 e1 bf 00 00 	mov    0xbfe1(%rip),%rax        # dff0 <__gmon_start__@Base>
    200f:	48 85 c0             	test   %rax,%rax
    2012:	74 02                	je     2016 <_init+0x16>
    2014:	ff d0                	call   *%rax
    2016:	48 83 c4 08          	add    $0x8,%rsp
    201a:	c3                   	ret

Disassembly of section .plt:

0000000000002020 <.plt>:
    2020:	ff 35 ba be 00 00    	push   0xbeba(%rip)        # dee0 <_GLOBAL_OFFSET_TABLE_+0x8>
    2026:	ff 25 bc be 00 00    	jmp    *0xbebc(%rip)        # dee8 <_GLOBAL_OFFSET_TABLE_+0x10>
    202c:	0f 1f 40 00          	nopl   0x0(%rax)
    2030:	f3 0f 1e fa          	endbr64
    2034:	68 00 00 00 00       	push   $0x0
    2039:	e9 e2 ff ff ff       	jmp    2020 <_init+0x20>
    203e:	66 90                	xchg   %ax,%ax
    2040:	f3 0f 1e fa          	endbr64
    2044:	68 01 00 00 00       	push   $0x1
    2049:	e9 d2 ff ff ff       	jmp    2020 <_init+0x20>
    204e:	66 90                	xchg   %ax,%ax
    2050:	f3 0f 1e fa          	endbr64
    2054:	68 02 00 00 00       	push   $0x2
    2059:	e9 c2 ff ff ff       	jmp    2020 <_init+0x20>
    205e:	66 90                	xchg   %ax,%ax
    2060:	f3 0f 1e fa          	endbr64
    2064:	68 03 00 00 00       	push   $0x3
    2069:	e9 b2 ff ff ff       	jmp    2020 <_init+0x20>
    206e:	66 90                	xchg   %ax,%ax
    2070:	f3 0f 1e fa          	endbr64
    2074:	68 04 00 00 00       	push   $0x4
    2079:	e9 a2 ff ff ff       	jmp    2020 <_init+0x20>
    207e:	66 90                	xchg   %ax,%ax
    2080:	f3 0f 1e fa          	endbr64
    2084:	68 05 00 00 00       	push   $0x5
    2089:	e9 92 ff ff ff       	jmp    2020 <_init+0x20>
    208e:	66 90                	xchg   %ax,%ax
    2090:	f3 0f 1e fa          	endbr64
    2094:	68 06 00 00 00       	push   $0x6
    2099:	e9 82 ff ff ff       	jmp    2020 <_init+0x20>
    209e:	66 90                	xchg   %ax,%ax
    20a0:	f3 0f 1e fa          	endbr64
    20a4:	68 07 00 00 00       	push   $0x7
    20a9:	e9 72 ff ff ff       	jmp    2020 <_init+0x20>
    20ae:	66 90                	xchg   %ax,%ax
    20b0:	f3 0f 1e fa          	endbr64
    20b4:	68 08 00 00 00       	push   $0x8
    20b9:	e9 62 ff ff ff       	jmp    2020 <_init+0x20>
    20be:	66 90                	xchg   %ax,%ax
    20c0:	f3 0f 1e fa          	endbr64
    20c4:	68 09 00 00 00       	push   $0x9
    20c9:	e9 52 ff ff ff       	jmp    2020 <_init+0x20>
    20ce:	66 90                	xchg   %ax,%ax
    20d0:	f3 0f 1e fa          	endbr64
    20d4:	68 0a 00 00 00       	push   $0xa
    20d9:	e9 42 ff ff ff       	jmp    2020 <_init+0x20>
    20de:	66 90                	xchg   %ax,%ax
    20e0:	f3 0f 1e fa          	endbr64
    20e4:	68 0b 00 00 00       	push   $0xb
    20e9:	e9 32 ff ff ff       	jmp    2020 <_init+0x20>
    20ee:	66 90                	xchg   %ax,%ax
    20f0:	f3 0f 1e fa          	endbr64
    20f4:	68 0c 00 00 00       	push   $0xc
    20f9:	e9 22 ff ff ff       	jmp    2020 <_init+0x20>
    20fe:	66 90                	xchg   %ax,%ax
    2100:	f3 0f 1e fa          	endbr64
    2104:	68 0d 00 00 00       	push   $0xd
    2109:	e9 12 ff ff ff       	jmp    2020 <_init+0x20>
    210e:	66 90                	xchg   %ax,%ax
    2110:	f3 0f 1e fa          	endbr64
    2114:	68 0e 00 00 00       	push   $0xe
    2119:	e9 02 ff ff ff       	jmp    2020 <_init+0x20>
    211e:	66 90                	xchg   %ax,%ax
    2120:	f3 0f 1e fa          	endbr64
    2124:	68 0f 00 00 00       	push   $0xf
    2129:	e9 f2 fe ff ff       	jmp    2020 <_init+0x20>
    212e:	66 90                	xchg   %ax,%ax
    2130:	f3 0f 1e fa          	endbr64
    2134:	68 10 00 00 00       	push   $0x10
    2139:	e9 e2 fe ff ff       	jmp    2020 <_init+0x20>
    213e:	66 90                	xchg   %ax,%ax
    2140:	f3 0f 1e fa          	endbr64
    2144:	68 11 00 00 00       	push   $0x11
    2149:	e9 d2 fe ff ff       	jmp    2020 <_init+0x20>
    214e:	66 90                	xchg   %ax,%ax
    2150:	f3 0f 1e fa          	endbr64
    2154:	68 12 00 00 00       	push   $0x12
    2159:	e9 c2 fe ff ff       	jmp    2020 <_init+0x20>
    215e:	66 90                	xchg   %ax,%ax
    2160:	f3 0f 1e fa          	endbr64
    2164:	68 13 00 00 00       	push   $0x13
    2169:	e9 b2 fe ff ff       	jmp    2020 <_init+0x20>
    216e:	66 90                	xchg   %ax,%ax
    2170:	f3 0f 1e fa          	endbr64
    2174:	68 14 00 00 00       	push   $0x14
    2179:	e9 a2 fe ff ff       	jmp    2020 <_init+0x20>
    217e:	66 90                	xchg   %ax,%ax
    2180:	f3 0f 1e fa          	endbr64
    2184:	68 15 00 00 00       	push   $0x15
    2189:	e9 92 fe ff ff       	jmp    2020 <_init+0x20>
    218e:	66 90                	xchg   %ax,%ax
    2190:	f3 0f 1e fa          	endbr64
    2194:	68 16 00 00 00       	push   $0x16
    2199:	e9 82 fe ff ff       	jmp    2020 <_init+0x20>
    219e:	66 90                	xchg   %ax,%ax
    21a0:	f3 0f 1e fa          	endbr64
    21a4:	68 17 00 00 00       	push   $0x17
    21a9:	e9 72 fe ff ff       	jmp    2020 <_init+0x20>
    21ae:	66 90                	xchg   %ax,%ax
    21b0:	f3 0f 1e fa          	endbr64
    21b4:	68 18 00 00 00       	push   $0x18
    21b9:	e9 62 fe ff ff       	jmp    2020 <_init+0x20>
    21be:	66 90                	xchg   %ax,%ax
    21c0:	f3 0f 1e fa          	endbr64
    21c4:	68 19 00 00 00       	push   $0x19
    21c9:	e9 52 fe ff ff       	jmp    2020 <_init+0x20>
    21ce:	66 90                	xchg   %ax,%ax
    21d0:	f3 0f 1e fa          	endbr64
    21d4:	68 1a 00 00 00       	push   $0x1a
    21d9:	e9 42 fe ff ff       	jmp    2020 <_init+0x20>
    21de:	66 90                	xchg   %ax,%ax
    21e0:	f3 0f 1e fa          	endbr64
    21e4:	68 1b 00 00 00       	push   $0x1b
    21e9:	e9 32 fe ff ff       	jmp    2020 <_init+0x20>
    21ee:	66 90                	xchg   %ax,%ax

Disassembly of section .plt.got:

00000000000021f0 <__cxa_finalize@plt>:
    21f0:	f3 0f 1e fa          	endbr64
    21f4:	ff 25 d6 bd 00 00    	jmp    *0xbdd6(%rip)        # dfd0 <__cxa_finalize@GLIBC_2.2.5>
    21fa:	66 0f 1f 44 00 00    	nopw   0x0(%rax,%rax,1)

Disassembly of section .plt.sec:

0000000000002200 <_ZSt29_Rb_tree_insert_and_rebalancebPSt18_Rb_tree_node_baseS0_RS_@plt>:
    2200:	f3 0f 1e fa          	endbr64
    2204:	ff 25 e6 bc 00 00    	jmp    *0xbce6(%rip)        # def0 <_ZSt29_Rb_tree_insert_and_rebalancebPSt18_Rb_tree_node_baseS0_RS_@GLIBCXX_3.4>
    220a:	66 0f 1f 44 00 00    	nopw   0x0(%rax,%rax,1)

0000000000002210 <_ZNSirsERf@plt>:
    2210:	f3 0f 1e fa          	endbr64
    2214:	ff 25 de bc 00 00    	jmp    *0xbcde(%rip)        # def8 <_ZNSirsERf@GLIBCXX_3.4>
    221a:	66 0f 1f 44 00 00    	nopw   0x0(%rax,%rax,1)

0000000000002220 <_ZNSt7__cxx1112basic_stringIcSt11char_traitsIcESaIcEE6insertEmPKc@plt>:
    2220:	f3 0f 1e fa          	endbr64
    2224:	ff 25 d6 bc 00 00    	jmp    *0xbcd6(%rip)        # df00 <_ZNSt7__cxx1112basic_stringIcSt11char_traitsIcESaIcEE6insertEmPKc@GLIBCXX_3.4.21>
    222a:	66 0f 1f 44 00 00    	nopw   0x0(%rax,%rax,1)

0000000000002230 <_ZSt17__throw_bad_allocv@plt>:
    2230:	f3 0f 1e fa          	endbr64
    2234:	ff 25 ce bc 00 00    	jmp    *0xbcce(%rip)        # df08 <_ZSt17__throw_bad_allocv@GLIBCXX_3.4>
    223a:	66 0f 1f 44 00 00    	nopw   0x0(%rax,%rax,1)

0000000000002240 <__cxa_begin_catch@plt>:
    2240:	f3 0f 1e fa          	endbr64
    2244:	ff 25 c6 bc 00 00    	jmp    *0xbcc6(%rip)        # df10 <__cxa_begin_catch@CXXABI_1.3>
    224a:	66 0f 1f 44 00 00    	nopw   0x0(%rax,%rax,1)

0000000000002250 <_ZNSt7__cxx1112basic_stringIcSt11char_traitsIcESaIcEEC1ERKS4_@plt>:
    2250:	f3 0f 1e fa          	endbr64
    2254:	ff 25 be bc 00 00    	jmp    *0xbcbe(%rip)        # df18 <_ZNSt7__cxx1112basic_stringIcSt11char_traitsIcESaIcEEC1ERKS4_@GLIBCXX_3.4.21>
    225a:	66 0f 1f 44 00 00    	nopw   0x0(%rax,%rax,1)

0000000000002260 <_ZSt20__throw_length_errorPKc@plt>:
    2260:	f3 0f 1e fa          	endbr64
    2264:	ff 25 b6 bc 00 00    	jmp    *0xbcb6(%rip)        # df20 <_ZSt20__throw_length_errorPKc@GLIBCXX_3.4>
    226a:	66 0f 1f 44 00 00    	nopw   0x0(%rax,%rax,1)

0000000000002270 <_ZNSt7__cxx1112basic_stringIcSt11char_traitsIcESaIcEEC1EOS4_@plt>:
    2270:	f3 0f 1e fa          	endbr64
    2274:	ff 25 ae bc 00 00    	jmp    *0xbcae(%rip)        # df28 <_ZNSt7__cxx1112basic_stringIcSt11char_traitsIcESaIcEEC1EOS4_@GLIBCXX_3.4.21>
    227a:	66 0f 1f 44 00 00    	nopw   0x0(%rax,%rax,1)

0000000000002280 <_ZNSirsERi@plt>:
    2280:	f3 0f 1e fa          	endbr64
    2284:	ff 25 a6 bc 00 00    	jmp    *0xbca6(%rip)        # df30 <_ZNSirsERi@GLIBCXX_3.4>
    228a:	66 0f 1f 44 00 00    	nopw   0x0(%rax,%rax,1)

0000000000002290 <_ZNSt7__cxx1112basic_stringIcSt11char_traitsIcESaIcEED1Ev@plt>:
    2290:	f3 0f 1e fa          	endbr64
    2294:	ff 25 9e bc 00 00    	jmp    *0xbc9e(%rip)        # df38 <_ZNSt7__cxx1112basic_stringIcSt11char_traitsIcESaIcEED1Ev@GLIBCXX_3.4.21>
    229a:	66 0f 1f 44 00 00    	nopw   0x0(%rax,%rax,1)

00000000000022a0 <_ZNSolsEf@plt>:
    22a0:	f3 0f 1e fa          	endbr64
    22a4:	ff 25 96 bc 00 00    	jmp    *0xbc96(%rip)        # df40 <_ZNSolsEf@GLIBCXX_3.4>
    22aa:	66 0f 1f 44 00 00    	nopw   0x0(%rax,%rax,1)

00000000000022b0 <_ZSt28__throw_bad_array_new_lengthv@plt>:
    22b0:	f3 0f 1e fa          	endbr64
    22b4:	ff 25 8e bc 00 00    	jmp    *0xbc8e(%rip)        # df48 <_ZSt28__throw_bad_array_new_lengthv@GLIBCXX_3.4.29>
    22ba:	66 0f 1f 44 00 00    	nopw   0x0(%rax,%rax,1)

00000000000022c0 <_ZNSt7__cxx1112basic_stringIcSt11char_traitsIcESaIcEE13_M_local_dataEv@plt>:
    22c0:	f3 0f 1e fa          	endbr64
    22c4:	ff 25 86 bc 00 00    	jmp    *0xbc86(%rip)        # df50 <_ZNSt7__cxx1112basic_stringIcSt11char_traitsIcESaIcEE13_M_local_dataEv@GLIBCXX_3.4.21>
    22ca:	66 0f 1f 44 00 00    	nopw   0x0(%rax,%rax,1)

00000000000022d0 <_ZStlsISt11char_traitsIcEERSt13basic_ostreamIcT_ES5_PKc@plt>:
    22d0:	f3 0f 1e fa          	endbr64
    22d4:	ff 25 7e bc 00 00    	jmp    *0xbc7e(%rip)        # df58 <_ZStlsISt11char_traitsIcEERSt13basic_ostreamIcT_ES5_PKc@GLIBCXX_3.4>
    22da:	66 0f 1f 44 00 00    	nopw   0x0(%rax,%rax,1)

00000000000022e0 <_Znwm@plt>:
    22e0:	f3 0f 1e fa          	endbr64
    22e4:	ff 25 76 bc 00 00    	jmp    *0xbc76(%rip)        # df60 <_Znwm@GLIBCXX_3.4>
    22ea:	66 0f 1f 44 00 00    	nopw   0x0(%rax,%rax,1)

00000000000022f0 <_ZdlPvm@plt>:
    22f0:	f3 0f 1e fa          	endbr64
    22f4:	ff 25 6e bc 00 00    	jmp    *0xbc6e(%rip)        # df68 <_ZdlPvm@CXXABI_1.3.9>
    22fa:	66 0f 1f 44 00 00    	nopw   0x0(%rax,%rax,1)

0000000000002300 <_ZSt18_Rb_tree_decrementPSt18_Rb_tree_node_base@plt>:
    2300:	f3 0f 1e fa          	endbr64
    2304:	ff 25 66 bc 00 00    	jmp    *0xbc66(%rip)        # df70 <_ZSt18_Rb_tree_decrementPSt18_Rb_tree_node_base@GLIBCXX_3.4>
    230a:	66 0f 1f 44 00 00    	nopw   0x0(%rax,%rax,1)

0000000000002310 <_ZNSolsEPFRSoS_E@plt>:
    2310:	f3 0f 1e fa          	endbr64
    2314:	ff 25 5e bc 00 00    	jmp    *0xbc5e(%rip)        # df78 <_ZNSolsEPFRSoS_E@GLIBCXX_3.4>
    231a:	66 0f 1f 44 00 00    	nopw   0x0(%rax,%rax,1)

0000000000002320 <_ZNSt7__cxx1112basic_stringIcSt11char_traitsIcESaIcEE12_Alloc_hiderC1EPcRKS3_@plt>:
    2320:	f3 0f 1e fa          	endbr64
    2324:	ff 25 56 bc 00 00    	jmp    *0xbc56(%rip)        # df80 <_ZNSt7__cxx1112basic_stringIcSt11char_traitsIcESaIcEE12_Alloc_hiderC1EPcRKS3_@GLIBCXX_3.4.21>
    232a:	66 0f 1f 44 00 00    	nopw   0x0(%rax,%rax,1)

0000000000002330 <__stack_chk_fail@plt>:
    2330:	f3 0f 1e fa          	endbr64
    2334:	ff 25 4e bc 00 00    	jmp    *0xbc4e(%rip)        # df88 <__stack_chk_fail@GLIBC_2.4>
    233a:	66 0f 1f 44 00 00    	nopw   0x0(%rax,%rax,1)

0000000000002340 <_ZSt18_Rb_tree_incrementPKSt18_Rb_tree_node_base@plt>:
    2340:	f3 0f 1e fa          	endbr64
    2344:	ff 25 46 bc 00 00    	jmp    *0xbc46(%rip)        # df90 <_ZSt18_Rb_tree_incrementPKSt18_Rb_tree_node_base@GLIBCXX_3.4>
    234a:	66 0f 1f 44 00 00    	nopw   0x0(%rax,%rax,1)

0000000000002350 <_ZNSt7__cxx1112basic_stringIcSt11char_traitsIcESaIcEE12_M_constructEmc@plt>:
    2350:	f3 0f 1e fa          	endbr64
    2354:	ff 25 3e bc 00 00    	jmp    *0xbc3e(%rip)        # df98 <_ZNSt7__cxx1112basic_stringIcSt11char_traitsIcESaIcEE12_M_constructEmc@GLIBCXX_3.4.21>
    235a:	66 0f 1f 44 00 00    	nopw   0x0(%rax,%rax,1)

0000000000002360 <_ZStrsIcSt11char_traitsIcEERSt13basic_istreamIT_T0_ES6_RS3_@plt>:
    2360:	f3 0f 1e fa          	endbr64
    2364:	ff 25 36 bc 00 00    	jmp    *0xbc36(%rip)        # dfa0 <_ZStrsIcSt11char_traitsIcEERSt13basic_istreamIT_T0_ES6_RS3_@GLIBCXX_3.4>
    236a:	66 0f 1f 44 00 00    	nopw   0x0(%rax,%rax,1)

0000000000002370 <__cxa_rethrow@plt>:
    2370:	f3 0f 1e fa          	endbr64
    2374:	ff 25 2e bc 00 00    	jmp    *0xbc2e(%rip)        # dfa8 <__cxa_rethrow@CXXABI_1.3>
    237a:	66 0f 1f 44 00 00    	nopw   0x0(%rax,%rax,1)

0000000000002380 <__cxa_end_catch@plt>:
    2380:	f3 0f 1e fa          	endbr64
    2384:	ff 25 26 bc 00 00    	jmp    *0xbc26(%rip)        # dfb0 <__cxa_end_catch@CXXABI_1.3>
    238a:	66 0f 1f 44 00 00    	nopw   0x0(%rax,%rax,1)

0000000000002390 <_ZNSolsEi@plt>:
    2390:	f3 0f 1e fa          	endbr64
    2394:	ff 25 1e bc 00 00    	jmp    *0xbc1e(%rip)        # dfb8 <_ZNSolsEi@GLIBCXX_3.4>
    239a:	66 0f 1f 44 00 00    	nopw   0x0(%rax,%rax,1)

00000000000023a0 <_Unwind_Resume@plt>:
    23a0:	f3 0f 1e fa          	endbr64
    23a4:	ff 25 16 bc 00 00    	jmp    *0xbc16(%rip)        # dfc0 <_Unwind_Resume@GCC_3.0>
    23aa:	66 0f 1f 44 00 00    	nopw   0x0(%rax,%rax,1)

00000000000023b0 <_ZNSt7__cxx1112basic_stringIcSt11char_traitsIcESaIcEEixEm@plt>:
    23b0:	f3 0f 1e fa          	endbr64
    23b4:	ff 25 0e bc 00 00    	jmp    *0xbc0e(%rip)        # dfc8 <_ZNSt7__cxx1112basic_stringIcSt11char_traitsIcESaIcEEixEm@GLIBCXX_3.4.21>
    23ba:	66 0f 1f 44 00 00    	nopw   0x0(%rax,%rax,1)

Disassembly of section .text:

00000000000023c0 <_start>:
    23c0:	f3 0f 1e fa          	endbr64
    23c4:	31 ed                	xor    %ebp,%ebp
    23c6:	49 89 d1             	mov    %rdx,%r9
    23c9:	5e                   	pop    %rsi
    23ca:	48 89 e2             	mov    %rsp,%rdx
    23cd:	48 83 e4 f0          	and    $0xfffffffffffffff0,%rsp
    23d1:	50                   	push   %rax
    23d2:	54                   	push   %rsp
    23d3:	45 31 c0             	xor    %r8d,%r8d
    23d6:	31 c9                	xor    %ecx,%ecx
    23d8:	48 8d 3d dc 06 00 00 	lea    0x6dc(%rip),%rdi        # 2abb <main>
    23df:	ff 15 fb bb 00 00    	call   *0xbbfb(%rip)        # dfe0 <__libc_start_main@GLIBC_2.34>
    23e5:	f4                   	hlt
    23e6:	66 2e 0f 1f 84 00 00 	cs nopw 0x0(%rax,%rax,1)
    23ed:	00 00 00 

00000000000023f0 <deregister_tm_clones>:
    23f0:	48 8d 3d 21 bc 00 00 	lea    0xbc21(%rip),%rdi        # e018 <__TMC_END__>
    23f7:	48 8d 05 1a bc 00 00 	lea    0xbc1a(%rip),%rax        # e018 <__TMC_END__>
    23fe:	48 39 f8             	cmp    %rdi,%rax
    2401:	74 15                	je     2418 <deregister_tm_clones+0x28>
    2403:	48 8b 05 de bb 00 00 	mov    0xbbde(%rip),%rax        # dfe8 <_ITM_deregisterTMCloneTable@Base>
    240a:	48 85 c0             	test   %rax,%rax
    240d:	74 09                	je     2418 <deregister_tm_clones+0x28>
    240f:	ff e0                	jmp    *%rax
    2411:	0f 1f 80 00 00 00 00 	nopl   0x0(%rax)
    2418:	c3                   	ret
    2419:	0f 1f 80 00 00 00 00 	nopl   0x0(%rax)

0000000000002420 <register_tm_clones>:
    2420:	48 8d 3d f1 bb 00 00 	lea    0xbbf1(%rip),%rdi        # e018 <__TMC_END__>
    2427:	48 8d 35 ea bb 00 00 	lea    0xbbea(%rip),%rsi        # e018 <__TMC_END__>
    242e:	48 29 fe             	sub    %rdi,%rsi
    2431:	48 89 f0             	mov    %rsi,%rax
    2434:	48 c1 ee 3f          	shr    $0x3f,%rsi
    2438:	48 c1 f8 03          	sar    $0x3,%rax
    243c:	48 01 c6             	add    %rax,%rsi
    243f:	48 d1 fe             	sar    $1,%rsi
    2442:	74 14                	je     2458 <register_tm_clones+0x38>
    2444:	48 8b 05 ad bb 00 00 	mov    0xbbad(%rip),%rax        # dff8 <_ITM_registerTMCloneTable@Base>
    244b:	48 85 c0             	test   %rax,%rax
    244e:	74 08                	je     2458 <register_tm_clones+0x38>
    2450:	ff e0                	jmp    *%rax
    2452:	66 0f 1f 44 00 00    	nopw   0x0(%rax,%rax,1)
    2458:	c3                   	ret
    2459:	0f 1f 80 00 00 00 00 	nopl   0x0(%rax)

0000000000002460 <__do_global_dtors_aux>:
    2460:	f3 0f 1e fa          	endbr64
    2464:	80 3d 0d be 00 00 00 	cmpb   $0x0,0xbe0d(%rip)        # e278 <completed.0>
    246b:	75 2b                	jne    2498 <__do_global_dtors_aux+0x38>
    246d:	55                   	push   %rbp
    246e:	48 83 3d 5a bb 00 00 	cmpq   $0x0,0xbb5a(%rip)        # dfd0 <__cxa_finalize@GLIBC_2.2.5>
    2475:	00 
    2476:	48 89 e5             	mov    %rsp,%rbp
    2479:	74 0c                	je     2487 <__do_global_dtors_aux+0x27>
    247b:	48 8b 3d 86 bb 00 00 	mov    0xbb86(%rip),%rdi        # e008 <__dso_handle>
    2482:	e8 69 fd ff ff       	call   21f0 <__cxa_finalize@plt>
    2487:	e8 64 ff ff ff       	call   23f0 <deregister_tm_clones>
    248c:	c6 05 e5 bd 00 00 01 	movb   $0x1,0xbde5(%rip)        # e278 <completed.0>
    2493:	5d                   	pop    %rbp
    2494:	c3                   	ret
    2495:	0f 1f 00             	nopl   (%rax)
    2498:	c3                   	ret
    2499:	0f 1f 80 00 00 00 00 	nopl   0x0(%rax)

00000000000024a0 <frame_dummy>:
    24a0:	f3 0f 1e fa          	endbr64
    24a4:	e9 77 ff ff ff       	jmp    2420 <register_tm_clones>

00000000000024a9 <_Z19buildExpressionTreei>:
    24a9:	f3 0f 1e fa          	endbr64
    24ad:	55                   	push   %rbp
    24ae:	48 89 e5             	mov    %rsp,%rbp
    24b1:	41 55                	push   %r13
    24b3:	41 54                	push   %r12
    24b5:	53                   	push   %rbx
    24b6:	48 81 ec 38 01 00 00 	sub    $0x138,%rsp
    24bd:	48 89 bd b8 fe ff ff 	mov    %rdi,-0x148(%rbp)
    24c4:	89 b5 b4 fe ff ff    	mov    %esi,-0x14c(%rbp)
    24ca:	64 48 8b 04 25 28 00 	mov    %fs:0x28,%rax
    24d1:	00 00 
    24d3:	48 89 45 d8          	mov    %rax,-0x28(%rbp)
    24d7:	31 c0                	xor    %eax,%eax
    24d9:	48 8d 85 d0 fe ff ff 	lea    -0x130(%rbp),%rax
    24e0:	be 00 00 00 00       	mov    $0x0,%esi
    24e5:	48 89 c7             	mov    %rax,%rdi
    24e8:	e8 b9 1f 00 00       	call   44a6 <_ZNSt10unique_ptrI14ExpressionNodeSt14default_deleteIS0_EEC1IS2_vEEDn>
    24ed:	48 8d 85 00 ff ff ff 	lea    -0x100(%rbp),%rax
    24f4:	48 89 c7             	mov    %rax,%rdi
    24f7:	e8 da 10 00 00       	call   35d6 <_ZNSt3setI6bipoloSt4lessIS0_ESaIS0_EEC1Ev>
    24fc:	48 8d 85 30 ff ff ff 	lea    -0xd0(%rbp),%rax
    2503:	48 89 c7             	mov    %rax,%rdi
    2506:	e8 53 11 00 00       	call   365e <_ZNSt3setIiSt4lessIiESaIiEEC1Ev>
    250b:	8b 85 b4 fe ff ff    	mov    -0x14c(%rbp),%eax
    2511:	89 85 cc fe ff ff    	mov    %eax,-0x134(%rbp)
    2517:	e9 1b 03 00 00       	jmp    2837 <_Z19buildExpressionTreei+0x38e>
    251c:	48 8d 05 4d 6b 00 00 	lea    0x6b4d(%rip),%rax        # 9070 <_ZN5Eigen8internalL18defaultL3CacheSizeE+0x8>
    2523:	48 89 c6             	mov    %rax,%rsi
    2526:	48 8d 05 13 bb 00 00 	lea    0xbb13(%rip),%rax        # e040 <_ZSt4cout@GLIBCXX_3.4>
    252d:	48 89 c7             	mov    %rax,%rdi
    2530:	e8 9b fd ff ff       	call   22d0 <_ZStlsISt11char_traitsIcEERSt13basic_ostreamIcT_ES5_PKc@plt>
    2535:	48 89 c2             	mov    %rax,%rdx
    2538:	8b 85 cc fe ff ff    	mov    -0x134(%rbp),%eax
    253e:	89 c6                	mov    %eax,%esi
    2540:	48 89 d7             	mov    %rdx,%rdi
    2543:	e8 48 fe ff ff       	call   2390 <_ZNSolsEi@plt>
    2548:	48 89 c2             	mov    %rax,%rdx
    254b:	48 8d 05 3d 6b 00 00 	lea    0x6b3d(%rip),%rax        # 908f <_ZN5Eigen8internalL18defaultL3CacheSizeE+0x27>
    2552:	48 89 c6             	mov    %rax,%rsi
    2555:	48 89 d7             	mov    %rdx,%rdi
    2558:	e8 73 fd ff ff       	call   22d0 <_ZStlsISt11char_traitsIcEERSt13basic_ostreamIcT_ES5_PKc@plt>
    255d:	48 8d 85 c4 fe ff ff 	lea    -0x13c(%rbp),%rax
    2564:	48 89 c6             	mov    %rax,%rsi
    2567:	48 8d 05 f2 bb 00 00 	lea    0xbbf2(%rip),%rax        # e160 <_ZSt3cin@GLIBCXX_3.4>
    256e:	48 89 c7             	mov    %rax,%rdi
    2571:	e8 9a fc ff ff       	call   2210 <_ZNSirsERf@plt>
    2576:	48 8d 05 15 6b 00 00 	lea    0x6b15(%rip),%rax        # 9092 <_ZN5Eigen8internalL18defaultL3CacheSizeE+0x2a>
    257d:	48 89 c6             	mov    %rax,%rsi
    2580:	48 8d 05 b9 ba 00 00 	lea    0xbab9(%rip),%rax        # e040 <_ZSt4cout@GLIBCXX_3.4>
    2587:	48 89 c7             	mov    %rax,%rdi
    258a:	e8 41 fd ff ff       	call   22d0 <_ZStlsISt11char_traitsIcEERSt13basic_ostreamIcT_ES5_PKc@plt>
    258f:	48 89 c2             	mov    %rax,%rdx
    2592:	8b 85 cc fe ff ff    	mov    -0x134(%rbp),%eax
    2598:	89 c6                	mov    %eax,%esi
    259a:	48 89 d7             	mov    %rdx,%rdi
    259d:	e8 ee fd ff ff       	call   2390 <_ZNSolsEi@plt>
    25a2:	48 89 c2             	mov    %rax,%rdx
    25a5:	48 8d 05 e3 6a 00 00 	lea    0x6ae3(%rip),%rax        # 908f <_ZN5Eigen8internalL18defaultL3CacheSizeE+0x27>
    25ac:	48 89 c6             	mov    %rax,%rsi
    25af:	48 89 d7             	mov    %rdx,%rdi
    25b2:	e8 19 fd ff ff       	call   22d0 <_ZStlsISt11char_traitsIcEERSt13basic_ostreamIcT_ES5_PKc@plt>
    25b7:	48 8d 85 c8 fe ff ff 	lea    -0x138(%rbp),%rax
    25be:	48 89 c6             	mov    %rax,%rsi
    25c1:	48 8d 05 98 bb 00 00 	lea    0xbb98(%rip),%rax        # e160 <_ZSt3cin@GLIBCXX_3.4>
    25c8:	48 89 c7             	mov    %rax,%rdi
    25cb:	e8 b0 fc ff ff       	call   2280 <_ZNSirsERi@plt>
    25d0:	48 8d 05 d5 6a 00 00 	lea    0x6ad5(%rip),%rax        # 90ac <_ZN5Eigen8internalL18defaultL3CacheSizeE+0x44>
    25d7:	48 89 c6             	mov    %rax,%rsi
    25da:	48 8d 05 5f ba 00 00 	lea    0xba5f(%rip),%rax        # e040 <_ZSt4cout@GLIBCXX_3.4>
    25e1:	48 89 c7             	mov    %rax,%rdi
    25e4:	e8 e7 fc ff ff       	call   22d0 <_ZStlsISt11char_traitsIcEERSt13basic_ostreamIcT_ES5_PKc@plt>
    25e9:	48 89 c2             	mov    %rax,%rdx
    25ec:	8b 85 cc fe ff ff    	mov    -0x134(%rbp),%eax
    25f2:	89 c6                	mov    %eax,%esi
    25f4:	48 89 d7             	mov    %rdx,%rdi
    25f7:	e8 94 fd ff ff       	call   2390 <_ZNSolsEi@plt>
    25fc:	48 89 c2             	mov    %rax,%rdx
    25ff:	48 8d 05 89 6a 00 00 	lea    0x6a89(%rip),%rax        # 908f <_ZN5Eigen8internalL18defaultL3CacheSizeE+0x27>
    2606:	48 89 c6             	mov    %rax,%rsi
    2609:	48 89 d7             	mov    %rdx,%rdi
    260c:	e8 bf fc ff ff       	call   22d0 <_ZStlsISt11char_traitsIcEERSt13basic_ostreamIcT_ES5_PKc@plt>
    2611:	48 8d 85 d8 fe ff ff 	lea    -0x128(%rbp),%rax
    2618:	48 89 c6             	mov    %rax,%rsi
    261b:	48 8d 05 3e bb 00 00 	lea    0xbb3e(%rip),%rax        # e160 <_ZSt3cin@GLIBCXX_3.4>
    2622:	48 89 c7             	mov    %rax,%rdi
    2625:	e8 56 fc ff ff       	call   2280 <_ZNSirsERi@plt>
    262a:	44 8b ad d8 fe ff ff 	mov    -0x128(%rbp),%r13d
    2631:	44 8b a5 c8 fe ff ff 	mov    -0x138(%rbp),%r12d
    2638:	8b 9d c4 fe ff ff    	mov    -0x13c(%rbp),%ebx
    263e:	48 8d 85 60 ff ff ff 	lea    -0xa0(%rbp),%rax
    2645:	8b 95 cc fe ff ff    	mov    -0x134(%rbp),%edx
    264b:	89 d6                	mov    %edx,%esi
    264d:	48 89 c7             	mov    %rax,%rdi
    2650:	e8 fe 08 00 00       	call   2f53 <_ZNSt7__cxx119to_stringEi>
    2655:	48 8d 45 80          	lea    -0x80(%rbp),%rax
    2659:	48 8d 95 60 ff ff ff 	lea    -0xa0(%rbp),%rdx
    2660:	48 8d 0d 5f 6a 00 00 	lea    0x6a5f(%rip),%rcx        # 90c6 <_ZN5Eigen8internalL18defaultL3CacheSizeE+0x5e>
    2667:	48 89 ce             	mov    %rcx,%rsi
    266a:	48 89 c7             	mov    %rax,%rdi
    266d:	e8 d1 15 00 00       	call   3c43 <_ZStplIcSt11char_traitsIcESaIcEENSt7__cxx1112basic_stringIT_T0_T1_EEPKS5_OS8_>
    2672:	48 8d 55 80          	lea    -0x80(%rbp),%rdx
    2676:	8b b5 cc fe ff ff    	mov    -0x134(%rbp),%esi
    267c:	48 8d 45 a0          	lea    -0x60(%rbp),%rax
    2680:	45 89 e9             	mov    %r13d,%r9d
    2683:	45 89 e0             	mov    %r12d,%r8d
    2686:	66 0f 6e c3          	movd   %ebx,%xmm0
    268a:	b9 01 00 00 00       	mov    $0x1,%ecx
    268f:	48 89 c7             	mov    %rax,%rdi
    2692:	e8 53 0a 00 00       	call   30ea <_ZN6bipoloC1EiRKNSt7__cxx1112basic_stringIcSt11char_traitsIcESaIcEEE4Tipofii>
    2697:	48 8d 45 80          	lea    -0x80(%rbp),%rax
    269b:	48 89 c7             	mov    %rax,%rdi
    269e:	e8 ed fb ff ff       	call   2290 <_ZNSt7__cxx1112basic_stringIcSt11char_traitsIcESaIcEED1Ev@plt>
    26a3:	48 8d 85 60 ff ff ff 	lea    -0xa0(%rbp),%rax
    26aa:	48 89 c7             	mov    %rax,%rdi
    26ad:	e8 de fb ff ff       	call   2290 <_ZNSt7__cxx1112basic_stringIcSt11char_traitsIcESaIcEED1Ev@plt>
    26b2:	48 8d 45 a0          	lea    -0x60(%rbp),%rax
    26b6:	48 8d 50 30          	lea    0x30(%rax),%rdx
    26ba:	48 8d 85 30 ff ff ff 	lea    -0xd0(%rbp),%rax
    26c1:	48 89 d6             	mov    %rdx,%rsi
    26c4:	48 89 c7             	mov    %rax,%rdi
    26c7:	e8 08 1f 00 00       	call   45d4 <_ZNSt3setIiSt4lessIiESaIiEE6insertERKi>
    26cc:	48 8d 45 a0          	lea    -0x60(%rbp),%rax
    26d0:	48 8d 50 34          	lea    0x34(%rax),%rdx
    26d4:	48 8d 85 30 ff ff ff 	lea    -0xd0(%rbp),%rax
    26db:	48 89 d6             	mov    %rdx,%rsi
    26de:	48 89 c7             	mov    %rax,%rdi
    26e1:	e8 ee 1e 00 00       	call   45d4 <_ZNSt3setIiSt4lessIiESaIiEE6insertERKi>
    26e6:	48 8d 55 a0          	lea    -0x60(%rbp),%rdx
    26ea:	48 8d 85 00 ff ff ff 	lea    -0x100(%rbp),%rax
    26f1:	48 89 d6             	mov    %rdx,%rsi
    26f4:	48 89 c7             	mov    %rax,%rdi
    26f7:	e8 50 1f 00 00       	call   464c <_ZNSt3setI6bipoloSt4lessIS0_ESaIS0_EE6insertERKS0_>
    26fc:	48 8d 85 e8 fe ff ff 	lea    -0x118(%rbp),%rax
    2703:	48 8d 55 a0          	lea    -0x60(%rbp),%rdx
    2707:	48 89 d6             	mov    %rdx,%rsi
    270a:	48 89 c7             	mov    %rax,%rdi
    270d:	e8 b1 1f 00 00       	call   46c3 <_ZSt11make_uniqueI10BipoloNodeJR6bipoloEENSt8__detail9_MakeUniqIT_E15__single_objectEDpOT0_>
    2712:	48 8d 95 e8 fe ff ff 	lea    -0x118(%rbp),%rdx
    2719:	48 8d 85 e0 fe ff ff 	lea    -0x120(%rbp),%rax
    2720:	48 89 d6             	mov    %rdx,%rsi
    2723:	48 89 c7             	mov    %rax,%rdi
    2726:	e8 b9 20 00 00       	call   47e4 <_ZNSt10unique_ptrI14ExpressionNodeSt14default_deleteIS0_EEC1I10BipoloNodeS1_IS5_EvEEOS_IT_T0_E>
    272b:	48 8d 85 e8 fe ff ff 	lea    -0x118(%rbp),%rax
    2732:	48 89 c7             	mov    %rax,%rdi
    2735:	e8 10 20 00 00       	call   474a <_ZNSt10unique_ptrI10BipoloNodeSt14default_deleteIS0_EED1Ev>
    273a:	48 8d 85 d0 fe ff ff 	lea    -0x130(%rbp),%rax
    2741:	be 00 00 00 00       	mov    $0x0,%esi
    2746:	48 89 c7             	mov    %rax,%rdi
    2749:	e8 ec 20 00 00       	call   483a <_ZSteqI14ExpressionNodeSt14default_deleteIS0_EEbRKSt10unique_ptrIT_T0_EDn>
    274e:	84 c0                	test   %al,%al
    2750:	74 29                	je     277b <_Z19buildExpressionTreei+0x2d2>
    2752:	48 8d 85 e0 fe ff ff 	lea    -0x120(%rbp),%rax
    2759:	48 89 c7             	mov    %rax,%rdi
    275c:	e8 00 1c 00 00       	call   4361 <_ZSt4moveIRSt10unique_ptrI14ExpressionNodeSt14default_deleteIS1_EEEONSt16remove_referenceIT_E4typeEOS7_>
    2761:	48 89 c2             	mov    %rax,%rdx
    2764:	48 8d 85 d0 fe ff ff 	lea    -0x130(%rbp),%rax
    276b:	48 89 d6             	mov    %rdx,%rsi
    276e:	48 89 c7             	mov    %rax,%rdi
    2771:	e8 56 0f 00 00       	call   36cc <_ZNSt10unique_ptrI14ExpressionNodeSt14default_deleteIS0_EEaSEOS3_>
    2776:	e9 9a 00 00 00       	jmp    2815 <_Z19buildExpressionTreei+0x36c>
    277b:	48 8d 05 4e 69 00 00 	lea    0x694e(%rip),%rax        # 90d0 <_ZN5Eigen8internalL18defaultL3CacheSizeE+0x68>
    2782:	48 89 c6             	mov    %rax,%rsi
    2785:	48 8d 05 b4 b8 00 00 	lea    0xb8b4(%rip),%rax        # e040 <_ZSt4cout@GLIBCXX_3.4>
    278c:	48 89 c7             	mov    %rax,%rdi
    278f:	e8 3c fb ff ff       	call   22d0 <_ZStlsISt11char_traitsIcEERSt13basic_ostreamIcT_ES5_PKc@plt>
    2794:	48 8d 85 c3 fe ff ff 	lea    -0x13d(%rbp),%rax
    279b:	48 89 c6             	mov    %rax,%rsi
    279e:	48 8d 05 bb b9 00 00 	lea    0xb9bb(%rip),%rax        # e160 <_ZSt3cin@GLIBCXX_3.4>
    27a5:	48 89 c7             	mov    %rax,%rdi
    27a8:	e8 b3 fb ff ff       	call   2360 <_ZStrsIcSt11char_traitsIcEERSt13basic_istreamIT_T0_ES6_RS3_@plt>
    27ad:	48 8d 85 e0 fe ff ff 	lea    -0x120(%rbp),%rax
    27b4:	48 89 c7             	mov    %rax,%rdi
    27b7:	e8 a5 1b 00 00       	call   4361 <_ZSt4moveIRSt10unique_ptrI14ExpressionNodeSt14default_deleteIS1_EEEONSt16remove_referenceIT_E4typeEOS7_>
    27bc:	48 89 c3             	mov    %rax,%rbx
    27bf:	48 8d 85 d0 fe ff ff 	lea    -0x130(%rbp),%rax
    27c6:	48 89 c7             	mov    %rax,%rdi
    27c9:	e8 93 1b 00 00       	call   4361 <_ZSt4moveIRSt10unique_ptrI14ExpressionNodeSt14default_deleteIS1_EEEONSt16remove_referenceIT_E4typeEOS7_>
    27ce:	48 89 c6             	mov    %rax,%rsi
    27d1:	48 8d 85 e8 fe ff ff 	lea    -0x118(%rbp),%rax
    27d8:	48 8d 95 c3 fe ff ff 	lea    -0x13d(%rbp),%rdx
    27df:	48 89 d1             	mov    %rdx,%rcx
    27e2:	48 89 da             	mov    %rbx,%rdx
    27e5:	48 89 c7             	mov    %rax,%rdi
    27e8:	e8 cb 20 00 00       	call   48b8 <_ZSt11make_uniqueI13OperationNodeJSt10unique_ptrI14ExpressionNodeSt14default_deleteIS2_EES5_RcEENSt8__detail9_MakeUniqIT_E15__single_objectEDpOT0_>
    27ed:	48 8d 95 e8 fe ff ff 	lea    -0x118(%rbp),%rdx
    27f4:	48 8d 85 d0 fe ff ff 	lea    -0x130(%rbp),%rax
    27fb:	48 89 d6             	mov    %rdx,%rsi
    27fe:	48 89 c7             	mov    %rax,%rdi
    2801:	e8 02 22 00 00       	call   4a08 <_ZNSt10unique_ptrI14ExpressionNodeSt14default_deleteIS0_EEaSI13OperationNodeS1_IS5_EEENSt9enable_ifIXsrSt6__and_IJS8_IJSt14is_convertibleINS_IT_T0_E7pointerEPS0_ESt6__not_ISt8is_arrayISA_EEEESt13is_assignableIRS2_OSB_EEE5valueERS3_E4typeEOSC_>
    2806:	48 8d 85 e8 fe ff ff 	lea    -0x118(%rbp),%rax
    280d:	48 89 c7             	mov    %rax,%rdi
    2810:	e8 8b 21 00 00       	call   49a0 <_ZNSt10unique_ptrI13OperationNodeSt14default_deleteIS0_EED1Ev>
    2815:	48 8d 85 e0 fe ff ff 	lea    -0x120(%rbp),%rax
    281c:	48 89 c7             	mov    %rax,%rdi
    281f:	e8 fc 1b 00 00       	call   4420 <_ZNSt10unique_ptrI14ExpressionNodeSt14default_deleteIS0_EED1Ev>
    2824:	48 8d 45 a0          	lea    -0x60(%rbp),%rax
    2828:	48 89 c7             	mov    %rax,%rdi
    282b:	e8 2c 0b 00 00       	call   335c <_ZN6bipoloD1Ev>
    2830:	83 ad cc fe ff ff 01 	subl   $0x1,-0x134(%rbp)
    2837:	83 bd cc fe ff ff 00 	cmpl   $0x0,-0x134(%rbp)
    283e:	0f 8f d8 fc ff ff    	jg     251c <_Z19buildExpressionTreei+0x73>
    2844:	48 8d 85 30 ff ff ff 	lea    -0xd0(%rbp),%rax
    284b:	48 89 c7             	mov    %rax,%rdi
    284e:	e8 43 22 00 00       	call   4a96 <_ZNKSt3setIiSt4lessIiESaIiEE4sizeEv>
    2853:	48 89 85 e8 fe ff ff 	mov    %rax,-0x118(%rbp)
    285a:	48 8d 85 d8 fe ff ff 	lea    -0x128(%rbp),%rax
    2861:	48 8d 95 e8 fe ff ff 	lea    -0x118(%rbp),%rdx
    2868:	48 89 d6             	mov    %rdx,%rsi
    286b:	48 89 c7             	mov    %rax,%rdi
    286e:	e8 41 22 00 00       	call   4ab4 <_ZSt11make_uniqueI8CircuitoJmEENSt8__detail9_MakeUniqIT_E15__single_objectEDpOT0_>
    2873:	48 8d 85 00 ff ff ff 	lea    -0x100(%rbp),%rax
    287a:	48 89 85 f0 fe ff ff 	mov    %rax,-0x110(%rbp)
    2881:	48 8b 85 f0 fe ff ff 	mov    -0x110(%rbp),%rax
    2888:	48 89 c7             	mov    %rax,%rdi
    288b:	e8 e0 22 00 00       	call   4b70 <_ZNKSt3setI6bipoloSt4lessIS0_ESaIS0_EE5beginEv>
    2890:	48 89 85 e0 fe ff ff 	mov    %rax,-0x120(%rbp)
    2897:	48 8b 85 f0 fe ff ff 	mov    -0x110(%rbp),%rax
    289e:	48 89 c7             	mov    %rax,%rdi
    28a1:	e8 e8 22 00 00       	call   4b8e <_ZNKSt3setI6bipoloSt4lessIS0_ESaIS0_EE3endEv>
    28a6:	48 89 85 e8 fe ff ff 	mov    %rax,-0x118(%rbp)
    28ad:	eb 68                	jmp    2917 <_Z19buildExpressionTreei+0x46e>
    28af:	48 8d 85 e0 fe ff ff 	lea    -0x120(%rbp),%rax
    28b6:	48 89 c7             	mov    %rax,%rdi
    28b9:	e8 40 23 00 00       	call   4bfe <_ZNKSt23_Rb_tree_const_iteratorI6bipoloEdeEv>
    28be:	48 89 85 f8 fe ff ff 	mov    %rax,-0x108(%rbp)
    28c5:	48 8d 85 d8 fe ff ff 	lea    -0x128(%rbp),%rax
    28cc:	48 89 c7             	mov    %rax,%rdi
    28cf:	e8 4c 23 00 00       	call   4c20 <_ZNKSt10unique_ptrI8CircuitoSt14default_deleteIS0_EEptEv>
    28d4:	48 89 c3             	mov    %rax,%rbx
    28d7:	48 8b 95 f8 fe ff ff 	mov    -0x108(%rbp),%rdx
    28de:	48 8d 45 a0          	lea    -0x60(%rbp),%rax
    28e2:	48 89 d6             	mov    %rdx,%rsi
    28e5:	48 89 c7             	mov    %rax,%rdi
    28e8:	e8 f5 09 00 00       	call   32e2 <_ZN6bipoloC1ERKS_>
    28ed:	48 8d 45 a0          	lea    -0x60(%rbp),%rax
    28f1:	48 89 c6             	mov    %rax,%rsi
    28f4:	48 89 df             	mov    %rbx,%rdi
    28f7:	e8 50 09 00 00       	call   324c <_ZN8Circuito14aggiungiBipoloE6bipolo>
    28fc:	48 8d 45 a0          	lea    -0x60(%rbp),%rax
    2900:	48 89 c7             	mov    %rax,%rdi
    2903:	e8 54 0a 00 00       	call   335c <_ZN6bipoloD1Ev>
    2908:	48 8d 85 e0 fe ff ff 	lea    -0x120(%rbp),%rax
    290f:	48 89 c7             	mov    %rax,%rdi
    2912:	e8 bb 22 00 00       	call   4bd2 <_ZNSt23_Rb_tree_const_iteratorI6bipoloEppEv>
    2917:	48 8d 95 e8 fe ff ff 	lea    -0x118(%rbp),%rdx
    291e:	48 8d 85 e0 fe ff ff 	lea    -0x120(%rbp),%rax
    2925:	48 89 d6             	mov    %rdx,%rsi
    2928:	48 89 c7             	mov    %rax,%rdi
    292b:	e8 7c 22 00 00       	call   4bac <_ZStneRKSt23_Rb_tree_const_iteratorI6bipoloES3_>
    2930:	84 c0                	test   %al,%al
    2932:	0f 85 77 ff ff ff    	jne    28af <_Z19buildExpressionTreei+0x406>
    2938:	48 8d 85 d8 fe ff ff 	lea    -0x128(%rbp),%rax
    293f:	48 89 c7             	mov    %rax,%rdi
    2942:	e8 f7 22 00 00       	call   4c3e <_ZSt4moveIRSt10unique_ptrI8CircuitoSt14default_deleteIS1_EEEONSt16remove_referenceIT_E4typeEOS7_>
    2947:	48 89 c3             	mov    %rax,%rbx
    294a:	48 8d 85 d0 fe ff ff 	lea    -0x130(%rbp),%rax
    2951:	48 89 c7             	mov    %rax,%rdi
    2954:	e8 08 1a 00 00       	call   4361 <_ZSt4moveIRSt10unique_ptrI14ExpressionNodeSt14default_deleteIS1_EEEONSt16remove_referenceIT_E4typeEOS7_>
    2959:	48 89 c1             	mov    %rax,%rcx
    295c:	48 8b 85 b8 fe ff ff 	mov    -0x148(%rbp),%rax
    2963:	48 89 da             	mov    %rbx,%rdx
    2966:	48 89 ce             	mov    %rcx,%rsi
    2969:	48 89 c7             	mov    %rax,%rdi
    296c:	e8 df 22 00 00       	call   4c50 <_ZSt9make_pairISt10unique_ptrI14ExpressionNodeSt14default_deleteIS1_EES0_I8CircuitoS2_IS5_EEESt4pairINSt25__strip_reference_wrapperINSt5decayIT_E4typeEE6__typeENS9_INSA_IT0_E4typeEE6__typeEEOSB_OSG_>
    2971:	90                   	nop
    2972:	48 8d 85 d8 fe ff ff 	lea    -0x128(%rbp),%rax
    2979:	48 89 c7             	mov    %rax,%rdi
    297c:	e8 87 21 00 00       	call   4b08 <_ZNSt10unique_ptrI8CircuitoSt14default_deleteIS0_EED1Ev>
    2981:	48 8d 85 30 ff ff ff 	lea    -0xd0(%rbp),%rax
    2988:	48 89 c7             	mov    %rax,%rdi
    298b:	e8 ee 0c 00 00       	call   367e <_ZNSt3setIiSt4lessIiESaIiEED1Ev>
    2990:	48 8d 85 00 ff ff ff 	lea    -0x100(%rbp),%rax
    2997:	48 89 c7             	mov    %rax,%rdi
    299a:	e8 57 0c 00 00       	call   35f6 <_ZNSt3setI6bipoloSt4lessIS0_ESaIS0_EED1Ev>
    299f:	48 8d 85 d0 fe ff ff 	lea    -0x130(%rbp),%rax
    29a6:	48 89 c7             	mov    %rax,%rdi
    29a9:	e8 72 1a 00 00       	call   4420 <_ZNSt10unique_ptrI14ExpressionNodeSt14default_deleteIS0_EED1Ev>
    29ae:	90                   	nop
    29af:	48 8b 45 d8          	mov    -0x28(%rbp),%rax
    29b3:	64 48 2b 04 25 28 00 	sub    %fs:0x28,%rax
    29ba:	00 00 
    29bc:	0f 84 e4 00 00 00    	je     2aa6 <_Z19buildExpressionTreei+0x5fd>
    29c2:	e9 da 00 00 00       	jmp    2aa1 <_Z19buildExpressionTreei+0x5f8>
    29c7:	f3 0f 1e fa          	endbr64
    29cb:	48 89 c3             	mov    %rax,%rbx
    29ce:	48 8d 45 80          	lea    -0x80(%rbp),%rax
    29d2:	48 89 c7             	mov    %rax,%rdi
    29d5:	e8 b6 f8 ff ff       	call   2290 <_ZNSt7__cxx1112basic_stringIcSt11char_traitsIcESaIcEED1Ev@plt>
    29da:	eb 07                	jmp    29e3 <_Z19buildExpressionTreei+0x53a>
    29dc:	f3 0f 1e fa          	endbr64
    29e0:	48 89 c3             	mov    %rax,%rbx
    29e3:	48 8d 85 60 ff ff ff 	lea    -0xa0(%rbp),%rax
    29ea:	48 89 c7             	mov    %rax,%rdi
    29ed:	e8 9e f8 ff ff       	call   2290 <_ZNSt7__cxx1112basic_stringIcSt11char_traitsIcESaIcEED1Ev@plt>
    29f2:	eb 61                	jmp    2a55 <_Z19buildExpressionTreei+0x5ac>
    29f4:	f3 0f 1e fa          	endbr64
    29f8:	48 89 c3             	mov    %rax,%rbx
    29fb:	48 8d 85 e0 fe ff ff 	lea    -0x120(%rbp),%rax
    2a02:	48 89 c7             	mov    %rax,%rdi
    2a05:	e8 16 1a 00 00       	call   4420 <_ZNSt10unique_ptrI14ExpressionNodeSt14default_deleteIS0_EED1Ev>
    2a0a:	eb 07                	jmp    2a13 <_Z19buildExpressionTreei+0x56a>
    2a0c:	f3 0f 1e fa          	endbr64
    2a10:	48 89 c3             	mov    %rax,%rbx
    2a13:	48 8d 45 a0          	lea    -0x60(%rbp),%rax
    2a17:	48 89 c7             	mov    %rax,%rdi
    2a1a:	e8 3d 09 00 00       	call   335c <_ZN6bipoloD1Ev>
    2a1f:	eb 34                	jmp    2a55 <_Z19buildExpressionTreei+0x5ac>
    2a21:	f3 0f 1e fa          	endbr64
    2a25:	48 89 c3             	mov    %rax,%rbx
    2a28:	48 8d 45 a0          	lea    -0x60(%rbp),%rax
    2a2c:	48 89 c7             	mov    %rax,%rdi
    2a2f:	e8 28 09 00 00       	call   335c <_ZN6bipoloD1Ev>
    2a34:	eb 07                	jmp    2a3d <_Z19buildExpressionTreei+0x594>
    2a36:	f3 0f 1e fa          	endbr64
    2a3a:	48 89 c3             	mov    %rax,%rbx
    2a3d:	48 8d 85 d8 fe ff ff 	lea    -0x128(%rbp),%rax
    2a44:	48 89 c7             	mov    %rax,%rdi
    2a47:	e8 bc 20 00 00       	call   4b08 <_ZNSt10unique_ptrI8CircuitoSt14default_deleteIS0_EED1Ev>
    2a4c:	eb 07                	jmp    2a55 <_Z19buildExpressionTreei+0x5ac>
    2a4e:	f3 0f 1e fa          	endbr64
    2a52:	48 89 c3             	mov    %rax,%rbx
    2a55:	48 8d 85 30 ff ff ff 	lea    -0xd0(%rbp),%rax
    2a5c:	48 89 c7             	mov    %rax,%rdi
    2a5f:	e8 1a 0c 00 00       	call   367e <_ZNSt3setIiSt4lessIiESaIiEED1Ev>
    2a64:	48 8d 85 00 ff ff ff 	lea    -0x100(%rbp),%rax
    2a6b:	48 89 c7             	mov    %rax,%rdi
    2a6e:	e8 83 0b 00 00       	call   35f6 <_ZNSt3setI6bipoloSt4lessIS0_ESaIS0_EED1Ev>
    2a73:	48 8d 85 d0 fe ff ff 	lea    -0x130(%rbp),%rax
    2a7a:	48 89 c7             	mov    %rax,%rdi
    2a7d:	e8 9e 19 00 00       	call   4420 <_ZNSt10unique_ptrI14ExpressionNodeSt14default_deleteIS0_EED1Ev>
    2a82:	48 89 d8             	mov    %rbx,%rax
    2a85:	48 8b 55 d8          	mov    -0x28(%rbp),%rdx
    2a89:	64 48 2b 14 25 28 00 	sub    %fs:0x28,%rdx
    2a90:	00 00 
    2a92:	74 05                	je     2a99 <_Z19buildExpressionTreei+0x5f0>
    2a94:	e8 97 f8 ff ff       	call   2330 <__stack_chk_fail@plt>
    2a99:	48 89 c7             	mov    %rax,%rdi
    2a9c:	e8 ff f8 ff ff       	call   23a0 <_Unwind_Resume@plt>
    2aa1:	e8 8a f8 ff ff       	call   2330 <__stack_chk_fail@plt>
    2aa6:	48 8b 85 b8 fe ff ff 	mov    -0x148(%rbp),%rax
    2aad:	48 81 c4 38 01 00 00 	add    $0x138,%rsp
    2ab4:	5b                   	pop    %rbx
    2ab5:	41 5c                	pop    %r12
    2ab7:	41 5d                	pop    %r13
    2ab9:	5d                   	pop    %rbp
    2aba:	c3                   	ret

0000000000002abb <main>:
    2abb:	f3 0f 1e fa          	endbr64
    2abf:	55                   	push   %rbp
    2ac0:	48 89 e5             	mov    %rsp,%rbp
    2ac3:	41 55                	push   %r13
    2ac5:	41 54                	push   %r12
    2ac7:	53                   	push   %rbx
    2ac8:	48 81 ec b8 00 00 00 	sub    $0xb8,%rsp
    2acf:	64 48 8b 04 25 28 00 	mov    %fs:0x28,%rax
    2ad6:	00 00 
    2ad8:	48 89 45 d8          	mov    %rax,-0x28(%rbp)
    2adc:	31 c0                	xor    %eax,%eax
    2ade:	48 8d 05 53 66 00 00 	lea    0x6653(%rip),%rax        # 9138 <_ZN5Eigen8internalL18defaultL3CacheSizeE+0xd0>
    2ae5:	48 89 c6             	mov    %rax,%rsi
    2ae8:	48 8d 05 51 b5 00 00 	lea    0xb551(%rip),%rax        # e040 <_ZSt4cout@GLIBCXX_3.4>
    2aef:	48 89 c7             	mov    %rax,%rdi
    2af2:	e8 d9 f7 ff ff       	call   22d0 <_ZStlsISt11char_traitsIcEERSt13basic_ostreamIcT_ES5_PKc@plt>
    2af7:	48 8d 85 38 ff ff ff 	lea    -0xc8(%rbp),%rax
    2afe:	48 89 c6             	mov    %rax,%rsi
    2b01:	48 8d 05 58 b6 00 00 	lea    0xb658(%rip),%rax        # e160 <_ZSt3cin@GLIBCXX_3.4>
    2b08:	48 89 c7             	mov    %rax,%rdi
    2b0b:	e8 70 f7 ff ff       	call   2280 <_ZNSirsERi@plt>
    2b10:	48 8d 05 51 66 00 00 	lea    0x6651(%rip),%rax        # 9168 <_ZN5Eigen8internalL18defaultL3CacheSizeE+0x100>
    2b17:	48 89 c6             	mov    %rax,%rsi
    2b1a:	48 8d 05 1f b5 00 00 	lea    0xb51f(%rip),%rax        # e040 <_ZSt4cout@GLIBCXX_3.4>
    2b21:	48 89 c7             	mov    %rax,%rdi
    2b24:	e8 a7 f7 ff ff       	call   22d0 <_ZStlsISt11char_traitsIcEERSt13basic_ostreamIcT_ES5_PKc@plt>
    2b29:	48 8d 85 3c ff ff ff 	lea    -0xc4(%rbp),%rax
    2b30:	48 89 c6             	mov    %rax,%rsi
    2b33:	48 8d 05 26 b6 00 00 	lea    0xb626(%rip),%rax        # e160 <_ZSt3cin@GLIBCXX_3.4>
    2b3a:	48 89 c7             	mov    %rax,%rdi
    2b3d:	e8 3e f7 ff ff       	call   2280 <_ZNSirsERi@plt>
    2b42:	48 c7 85 58 ff ff ff 	movq   $0x0,-0xa8(%rbp)
    2b49:	00 00 00 00 
    2b4d:	8b 95 38 ff ff ff    	mov    -0xc8(%rbp),%edx
    2b53:	48 8d 85 70 ff ff ff 	lea    -0x90(%rbp),%rax
    2b5a:	89 d6                	mov    %edx,%esi
    2b5c:	48 89 c7             	mov    %rax,%rdi
    2b5f:	e8 64 06 00 00       	call   31c8 <_ZN8CircuitoC1Ei>
    2b64:	8b 95 3c ff ff ff    	mov    -0xc4(%rbp),%edx
    2b6a:	48 8d 85 60 ff ff ff 	lea    -0xa0(%rbp),%rax
    2b71:	89 d6                	mov    %edx,%esi
    2b73:	48 89 c7             	mov    %rax,%rdi
    2b76:	e8 2e f9 ff ff       	call   24a9 <_Z19buildExpressionTreei>
    2b7b:	48 8d 85 60 ff ff ff 	lea    -0xa0(%rbp),%rax
    2b82:	48 89 c7             	mov    %rax,%rdi
    2b85:	e8 d7 17 00 00       	call   4361 <_ZSt4moveIRSt10unique_ptrI14ExpressionNodeSt14default_deleteIS1_EEEONSt16remove_referenceIT_E4typeEOS7_>
    2b8a:	48 89 c2             	mov    %rax,%rdx
    2b8d:	48 8d 85 58 ff ff ff 	lea    -0xa8(%rbp),%rax
    2b94:	48 89 d6             	mov    %rdx,%rsi
    2b97:	48 89 c7             	mov    %rax,%rdi
    2b9a:	e8 2d 0b 00 00       	call   36cc <_ZNSt10unique_ptrI14ExpressionNodeSt14default_deleteIS0_EEaSEOS3_>
    2b9f:	48 8d 05 e2 65 00 00 	lea    0x65e2(%rip),%rax        # 9188 <_ZN5Eigen8internalL18defaultL3CacheSizeE+0x120>
    2ba6:	48 89 c6             	mov    %rax,%rsi
    2ba9:	48 8d 05 90 b4 00 00 	lea    0xb490(%rip),%rax        # e040 <_ZSt4cout@GLIBCXX_3.4>
    2bb0:	48 89 c7             	mov    %rax,%rdi
    2bb3:	e8 18 f7 ff ff       	call   22d0 <_ZStlsISt11char_traitsIcEERSt13basic_ostreamIcT_ES5_PKc@plt>
    2bb8:	48 8d 85 40 ff ff ff 	lea    -0xc0(%rbp),%rax
    2bbf:	48 89 c6             	mov    %rax,%rsi
    2bc2:	48 8d 05 97 b5 00 00 	lea    0xb597(%rip),%rax        # e160 <_ZSt3cin@GLIBCXX_3.4>
    2bc9:	48 89 c7             	mov    %rax,%rdi
    2bcc:	e8 af f6 ff ff       	call   2280 <_ZNSirsERi@plt>
    2bd1:	8b 85 40 ff ff ff    	mov    -0xc0(%rbp),%eax
    2bd7:	89 85 50 ff ff ff    	mov    %eax,-0xb0(%rbp)
    2bdd:	e9 33 01 00 00       	jmp    2d15 <main+0x25a>
    2be2:	48 8d 05 c7 65 00 00 	lea    0x65c7(%rip),%rax        # 91b0 <_ZN5Eigen8internalL18defaultL3CacheSizeE+0x148>
    2be9:	48 89 c6             	mov    %rax,%rsi
    2bec:	48 8d 05 4d b4 00 00 	lea    0xb44d(%rip),%rax        # e040 <_ZSt4cout@GLIBCXX_3.4>
    2bf3:	48 89 c7             	mov    %rax,%rdi
    2bf6:	e8 d5 f6 ff ff       	call   22d0 <_ZStlsISt11char_traitsIcEERSt13basic_ostreamIcT_ES5_PKc@plt>
    2bfb:	48 89 c2             	mov    %rax,%rdx
    2bfe:	8b 85 50 ff ff ff    	mov    -0xb0(%rbp),%eax
    2c04:	89 c6                	mov    %eax,%esi
    2c06:	48 89 d7             	mov    %rdx,%rdi
    2c09:	e8 82 f7 ff ff       	call   2390 <_ZNSolsEi@plt>
    2c0e:	48 89 c2             	mov    %rax,%rdx
    2c11:	48 8d 05 77 64 00 00 	lea    0x6477(%rip),%rax        # 908f <_ZN5Eigen8internalL18defaultL3CacheSizeE+0x27>
    2c18:	48 89 c6             	mov    %rax,%rsi
    2c1b:	48 89 d7             	mov    %rdx,%rdi
    2c1e:	e8 ad f6 ff ff       	call   22d0 <_ZStlsISt11char_traitsIcEERSt13basic_ostreamIcT_ES5_PKc@plt>
    2c23:	48 8d 85 44 ff ff ff 	lea    -0xbc(%rbp),%rax
    2c2a:	48 89 c6             	mov    %rax,%rsi
    2c2d:	48 8d 05 2c b5 00 00 	lea    0xb52c(%rip),%rax        # e160 <_ZSt3cin@GLIBCXX_3.4>
    2c34:	48 89 c7             	mov    %rax,%rdi
    2c37:	e8 d4 f5 ff ff       	call   2210 <_ZNSirsERf@plt>
    2c3c:	48 8d 05 9d 65 00 00 	lea    0x659d(%rip),%rax        # 91e0 <_ZN5Eigen8internalL18defaultL3CacheSizeE+0x178>
    2c43:	48 89 c6             	mov    %rax,%rsi
    2c46:	48 8d 05 f3 b3 00 00 	lea    0xb3f3(%rip),%rax        # e040 <_ZSt4cout@GLIBCXX_3.4>
    2c4d:	48 89 c7             	mov    %rax,%rdi
    2c50:	e8 7b f6 ff ff       	call   22d0 <_ZStlsISt11char_traitsIcEERSt13basic_ostreamIcT_ES5_PKc@plt>
    2c55:	48 8d 85 48 ff ff ff 	lea    -0xb8(%rbp),%rax
    2c5c:	48 89 c6             	mov    %rax,%rsi
    2c5f:	48 8d 05 fa b4 00 00 	lea    0xb4fa(%rip),%rax        # e160 <_ZSt3cin@GLIBCXX_3.4>
    2c66:	48 89 c7             	mov    %rax,%rdi
    2c69:	e8 12 f6 ff ff       	call   2280 <_ZNSirsERi@plt>
    2c6e:	48 89 c2             	mov    %rax,%rdx
    2c71:	48 8d 85 4c ff ff ff 	lea    -0xb4(%rbp),%rax
    2c78:	48 89 c6             	mov    %rax,%rsi
    2c7b:	48 89 d7             	mov    %rdx,%rdi
    2c7e:	e8 fd f5 ff ff       	call   2280 <_ZNSirsERi@plt>
    2c83:	44 8b ad 4c ff ff ff 	mov    -0xb4(%rbp),%r13d
    2c8a:	44 8b a5 48 ff ff ff 	mov    -0xb8(%rbp),%r12d
    2c91:	8b 9d 44 ff ff ff    	mov    -0xbc(%rbp),%ebx
    2c97:	48 8d 45 90          	lea    -0x70(%rbp),%rax
    2c9b:	8b 95 50 ff ff ff    	mov    -0xb0(%rbp),%edx
    2ca1:	89 d6                	mov    %edx,%esi
    2ca3:	48 89 c7             	mov    %rax,%rdi
    2ca6:	e8 a8 02 00 00       	call   2f53 <_ZNSt7__cxx119to_stringEi>
    2cab:	48 8d 45 b0          	lea    -0x50(%rbp),%rax
    2caf:	48 8d 55 90          	lea    -0x70(%rbp),%rdx
    2cb3:	48 8d 0d 56 65 00 00 	lea    0x6556(%rip),%rcx        # 9210 <_ZN5Eigen8internalL18defaultL3CacheSizeE+0x1a8>
    2cba:	48 89 ce             	mov    %rcx,%rsi
    2cbd:	48 89 c7             	mov    %rax,%rdi
    2cc0:	e8 7e 0f 00 00       	call   3c43 <_ZStplIcSt11char_traitsIcESaIcEENSt7__cxx1112basic_stringIT_T0_T1_EEPKS5_OS8_>
    2cc5:	8b 95 3c ff ff ff    	mov    -0xc4(%rbp),%edx
    2ccb:	8b 85 50 ff ff ff    	mov    -0xb0(%rbp),%eax
    2cd1:	8d 34 02             	lea    (%rdx,%rax,1),%esi
    2cd4:	48 8d 55 b0          	lea    -0x50(%rbp),%rdx
    2cd8:	48 8d 85 70 ff ff ff 	lea    -0x90(%rbp),%rax
    2cdf:	45 89 e9             	mov    %r13d,%r9d
    2ce2:	45 89 e0             	mov    %r12d,%r8d
    2ce5:	66 0f 6e c3          	movd   %ebx,%xmm0
    2ce9:	b9 02 00 00 00       	mov    $0x2,%ecx
    2cee:	48 89 c7             	mov    %rax,%rdi
    2cf1:	e8 fe 04 00 00       	call   31f4 <_ZN8Circuito14aggiungiBipoloEiRKNSt7__cxx1112basic_stringIcSt11char_traitsIcESaIcEEE4Tipofii>
    2cf6:	48 8d 45 b0          	lea    -0x50(%rbp),%rax
    2cfa:	48 89 c7             	mov    %rax,%rdi
    2cfd:	e8 8e f5 ff ff       	call   2290 <_ZNSt7__cxx1112basic_stringIcSt11char_traitsIcESaIcEED1Ev@plt>
    2d02:	48 8d 45 90          	lea    -0x70(%rbp),%rax
    2d06:	48 89 c7             	mov    %rax,%rdi
    2d09:	e8 82 f5 ff ff       	call   2290 <_ZNSt7__cxx1112basic_stringIcSt11char_traitsIcESaIcEED1Ev@plt>
    2d0e:	83 ad 50 ff ff ff 01 	subl   $0x1,-0xb0(%rbp)
    2d15:	83 bd 50 ff ff ff 00 	cmpl   $0x0,-0xb0(%rbp)
    2d1c:	0f 8f c0 fe ff ff    	jg     2be2 <main+0x127>
    2d22:	48 8d 85 58 ff ff ff 	lea    -0xa8(%rbp),%rax
    2d29:	be 00 00 00 00       	mov    $0x0,%esi
    2d2e:	48 89 c7             	mov    %rax,%rdi
    2d31:	e8 6d 1f 00 00       	call   4ca3 <_ZStneI14ExpressionNodeSt14default_deleteIS0_EEbRKSt10unique_ptrIT_T0_EDn>
    2d36:	84 c0                	test   %al,%al
    2d38:	74 7b                	je     2db5 <main+0x2fa>
    2d3a:	48 8d 85 58 ff ff ff 	lea    -0xa8(%rbp),%rax
    2d41:	48 89 c7             	mov    %rax,%rdi
    2d44:	e8 3f 17 00 00       	call   4488 <_ZNKSt10unique_ptrI14ExpressionNodeSt14default_deleteIS0_EEptEv>
    2d49:	48 8b 10             	mov    (%rax),%rdx
    2d4c:	48 8b 12             	mov    (%rdx),%rdx
    2d4f:	48 89 c7             	mov    %rax,%rdi
    2d52:	ff d2                	call   *%rdx
    2d54:	66 0f 7e c0          	movd   %xmm0,%eax
    2d58:	89 85 54 ff ff ff    	mov    %eax,-0xac(%rbp)
    2d5e:	48 8d 05 bb 64 00 00 	lea    0x64bb(%rip),%rax        # 9220 <_ZN5Eigen8internalL18defaultL3CacheSizeE+0x1b8>
    2d65:	48 89 c6             	mov    %rax,%rsi
    2d68:	48 8d 05 d1 b2 00 00 	lea    0xb2d1(%rip),%rax        # e040 <_ZSt4cout@GLIBCXX_3.4>
    2d6f:	48 89 c7             	mov    %rax,%rdi
    2d72:	e8 59 f5 ff ff       	call   22d0 <_ZStlsISt11char_traitsIcEERSt13basic_ostreamIcT_ES5_PKc@plt>
    2d77:	48 89 c2             	mov    %rax,%rdx
    2d7a:	8b 85 54 ff ff ff    	mov    -0xac(%rbp),%eax
    2d80:	66 0f 6e c0          	movd   %eax,%xmm0
    2d84:	48 89 d7             	mov    %rdx,%rdi
    2d87:	e8 14 f5 ff ff       	call   22a0 <_ZNSolsEf@plt>
    2d8c:	48 89 c2             	mov    %rax,%rdx
    2d8f:	48 8d 05 be 64 00 00 	lea    0x64be(%rip),%rax        # 9254 <_ZN5Eigen8internalL18defaultL3CacheSizeE+0x1ec>
    2d96:	48 89 c6             	mov    %rax,%rsi
    2d99:	48 89 d7             	mov    %rdx,%rdi
    2d9c:	e8 2f f5 ff ff       	call   22d0 <_ZStlsISt11char_traitsIcEERSt13basic_ostreamIcT_ES5_PKc@plt>
    2da1:	48 8b 15 30 b2 00 00 	mov    0xb230(%rip),%rdx        # dfd8 <_ZSt4endlIcSt11char_traitsIcEERSt13basic_ostreamIT_T0_ES6_@GLIBCXX_3.4>
    2da8:	48 89 d6             	mov    %rdx,%rsi
    2dab:	48 89 c7             	mov    %rax,%rdi
    2dae:	e8 5d f5 ff ff       	call   2310 <_ZNSolsEPFRSoS_E@plt>
    2db3:	eb 2b                	jmp    2de0 <main+0x325>
    2db5:	48 8d 05 a4 64 00 00 	lea    0x64a4(%rip),%rax        # 9260 <_ZN5Eigen8internalL18defaultL3CacheSizeE+0x1f8>
    2dbc:	48 89 c6             	mov    %rax,%rsi
    2dbf:	48 8d 05 7a b2 00 00 	lea    0xb27a(%rip),%rax        # e040 <_ZSt4cout@GLIBCXX_3.4>
    2dc6:	48 89 c7             	mov    %rax,%rdi
    2dc9:	e8 02 f5 ff ff       	call   22d0 <_ZStlsISt11char_traitsIcEERSt13basic_ostreamIcT_ES5_PKc@plt>
    2dce:	48 8b 15 03 b2 00 00 	mov    0xb203(%rip),%rdx        # dfd8 <_ZSt4endlIcSt11char_traitsIcEERSt13basic_ostreamIT_T0_ES6_@GLIBCXX_3.4>
    2dd5:	48 89 d6             	mov    %rdx,%rsi
    2dd8:	48 89 c7             	mov    %rax,%rdi
    2ddb:	e8 30 f5 ff ff       	call   2310 <_ZNSolsEPFRSoS_E@plt>
    2de0:	bb 00 00 00 00       	mov    $0x0,%ebx
    2de5:	48 8d 85 60 ff ff ff 	lea    -0xa0(%rbp),%rax
    2dec:	48 89 c7             	mov    %rax,%rdi
    2def:	e8 06 09 00 00       	call   36fa <_ZNSt4pairISt10unique_ptrI14ExpressionNodeSt14default_deleteIS1_EES0_I8CircuitoS2_IS5_EEED1Ev>
    2df4:	48 8d 85 70 ff ff ff 	lea    -0x90(%rbp),%rax
    2dfb:	48 89 c7             	mov    %rax,%rdi
    2dfe:	e8 fd 09 00 00       	call   3800 <_ZN8CircuitoD1Ev>
    2e03:	48 8d 85 58 ff ff ff 	lea    -0xa8(%rbp),%rax
    2e0a:	48 89 c7             	mov    %rax,%rdi
    2e0d:	e8 0e 16 00 00       	call   4420 <_ZNSt10unique_ptrI14ExpressionNodeSt14default_deleteIS0_EED1Ev>
    2e12:	89 d8                	mov    %ebx,%eax
    2e14:	48 8b 55 d8          	mov    -0x28(%rbp),%rdx
    2e18:	64 48 2b 14 25 28 00 	sub    %fs:0x28,%rdx
    2e1f:	00 00 
    2e21:	0f 84 90 00 00 00    	je     2eb7 <main+0x3fc>
    2e27:	e9 86 00 00 00       	jmp    2eb2 <main+0x3f7>
    2e2c:	f3 0f 1e fa          	endbr64
    2e30:	48 89 c3             	mov    %rax,%rbx
    2e33:	48 8d 45 b0          	lea    -0x50(%rbp),%rax
    2e37:	48 89 c7             	mov    %rax,%rdi
    2e3a:	e8 51 f4 ff ff       	call   2290 <_ZNSt7__cxx1112basic_stringIcSt11char_traitsIcESaIcEED1Ev@plt>
    2e3f:	eb 07                	jmp    2e48 <main+0x38d>
    2e41:	f3 0f 1e fa          	endbr64
    2e45:	48 89 c3             	mov    %rax,%rbx
    2e48:	48 8d 45 90          	lea    -0x70(%rbp),%rax
    2e4c:	48 89 c7             	mov    %rax,%rdi
    2e4f:	e8 3c f4 ff ff       	call   2290 <_ZNSt7__cxx1112basic_stringIcSt11char_traitsIcESaIcEED1Ev@plt>
    2e54:	eb 07                	jmp    2e5d <main+0x3a2>
    2e56:	f3 0f 1e fa          	endbr64
    2e5a:	48 89 c3             	mov    %rax,%rbx
    2e5d:	48 8d 85 60 ff ff ff 	lea    -0xa0(%rbp),%rax
    2e64:	48 89 c7             	mov    %rax,%rdi
    2e67:	e8 8e 08 00 00       	call   36fa <_ZNSt4pairISt10unique_ptrI14ExpressionNodeSt14default_deleteIS1_EES0_I8CircuitoS2_IS5_EEED1Ev>
    2e6c:	eb 07                	jmp    2e75 <main+0x3ba>
    2e6e:	f3 0f 1e fa          	endbr64
    2e72:	48 89 c3             	mov    %rax,%rbx
    2e75:	48 8d 85 70 ff ff ff 	lea    -0x90(%rbp),%rax
    2e7c:	48 89 c7             	mov    %rax,%rdi
    2e7f:	e8 7c 09 00 00       	call   3800 <_ZN8CircuitoD1Ev>
    2e84:	48 8d 85 58 ff ff ff 	lea    -0xa8(%rbp),%rax
    2e8b:	48 89 c7             	mov    %rax,%rdi
    2e8e:	e8 8d 15 00 00       	call   4420 <_ZNSt10unique_ptrI14ExpressionNodeSt14default_deleteIS0_EED1Ev>
    2e93:	48 89 d8             	mov    %rbx,%rax
    2e96:	48 8b 55 d8          	mov    -0x28(%rbp),%rdx
    2e9a:	64 48 2b 14 25 28 00 	sub    %fs:0x28,%rdx
    2ea1:	00 00 
    2ea3:	74 05                	je     2eaa <main+0x3ef>
    2ea5:	e8 86 f4 ff ff       	call   2330 <__stack_chk_fail@plt>
    2eaa:	48 89 c7             	mov    %rax,%rdi
    2ead:	e8 ee f4 ff ff       	call   23a0 <_Unwind_Resume@plt>
    2eb2:	e8 79 f4 ff ff       	call   2330 <__stack_chk_fail@plt>
    2eb7:	48 81 c4 b8 00 00 00 	add    $0xb8,%rsp
    2ebe:	5b                   	pop    %rbx
    2ebf:	41 5c                	pop    %r12
    2ec1:	41 5d                	pop    %r13
    2ec3:	5d                   	pop    %rbp
    2ec4:	c3                   	ret

0000000000002ec5 <_Z41__static_initialization_and_destruction_0v>:
    2ec5:	f3 0f 1e fa          	endbr64
    2ec9:	55                   	push   %rbp
    2eca:	48 89 e5             	mov    %rsp,%rbp
    2ecd:	48 8d 05 a5 b3 00 00 	lea    0xb3a5(%rip),%rax        # e279 <_ZN5EigenL4lastE>
    2ed4:	48 89 c7             	mov    %rax,%rdi
    2ed7:	e8 e4 0d 00 00       	call   3cc0 <_ZN5Eigen8symbolic10SymbolExprINS_8internal17symbolic_last_tagEEC1Ev>
    2edc:	48 8d 05 9a b3 00 00 	lea    0xb39a(%rip),%rax        # e27d <_ZN5EigenL3fixILi1EEE>
    2ee3:	48 89 c7             	mov    %rax,%rdi
    2ee6:	e8 e5 0d 00 00       	call   3cd0 <_ZN5Eigen8internal8FixedIntILi1EEC1Ev>
    2eeb:	48 8d 05 8b b3 00 00 	lea    0xb38b(%rip),%rax        # e27d <_ZN5EigenL3fixILi1EEE>
    2ef2:	48 89 c7             	mov    %rax,%rdi
    2ef5:	e8 e6 0d 00 00       	call   3ce0 <_ZNK5Eigen8internal8FixedIntILi1EEclEv>
    2efa:	48 8d 05 78 b3 00 00 	lea    0xb378(%rip),%rax        # e279 <_ZN5EigenL4lastE>
    2f01:	48 89 c7             	mov    %rax,%rdi
    2f04:	e8 e7 0d 00 00       	call   3cf0 <_ZNK5Eigen8symbolic8BaseExprINS0_10SymbolExprINS_8internal17symbolic_last_tagEEEEplILi1EEENS0_7AddExprIS5_NS0_9ValueExprINS3_8FixedIntIXT_EEEEEEESB_>
    2f09:	48 8d 05 6c b3 00 00 	lea    0xb36c(%rip),%rax        # e27c <_ZN5EigenL3allE>
    2f10:	48 89 c7             	mov    %rax,%rdi
    2f13:	e8 9e 01 00 00       	call   30b6 <_ZN5Eigen8internal5all_tC1Ev>
    2f18:	90                   	nop
    2f19:	5d                   	pop    %rbp
    2f1a:	c3                   	ret

0000000000002f1b <_GLOBAL__sub_I__Z19buildExpressionTreei>:
    2f1b:	f3 0f 1e fa          	endbr64
    2f1f:	55                   	push   %rbp
    2f20:	48 89 e5             	mov    %rsp,%rbp
    2f23:	e8 9d ff ff ff       	call   2ec5 <_Z41__static_initialization_and_destruction_0v>
    2f28:	5d                   	pop    %rbp
    2f29:	c3                   	ret

0000000000002f2a <_ZnwmPv>:
    2f2a:	f3 0f 1e fa          	endbr64
    2f2e:	55                   	push   %rbp
    2f2f:	48 89 e5             	mov    %rsp,%rbp
    2f32:	48 89 7d f8          	mov    %rdi,-0x8(%rbp)
    2f36:	48 89 75 f0          	mov    %rsi,-0x10(%rbp)
    2f3a:	48 8b 45 f0          	mov    -0x10(%rbp),%rax
    2f3e:	5d                   	pop    %rbp
    2f3f:	c3                   	ret

0000000000002f40 <_ZdlPvS_>:
    2f40:	f3 0f 1e fa          	endbr64
    2f44:	55                   	push   %rbp
    2f45:	48 89 e5             	mov    %rsp,%rbp
    2f48:	48 89 7d f8          	mov    %rdi,-0x8(%rbp)
    2f4c:	48 89 75 f0          	mov    %rsi,-0x10(%rbp)
    2f50:	90                   	nop
    2f51:	5d                   	pop    %rbp
    2f52:	c3                   	ret

0000000000002f53 <_ZNSt7__cxx119to_stringEi>:
    2f53:	f3 0f 1e fa          	endbr64
    2f57:	55                   	push   %rbp
    2f58:	48 89 e5             	mov    %rsp,%rbp
    2f5b:	48 83 ec 30          	sub    $0x30,%rsp
    2f5f:	48 89 7d d8          	mov    %rdi,-0x28(%rbp)
    2f63:	89 75 d4             	mov    %esi,-0x2c(%rbp)
    2f66:	64 48 8b 04 25 28 00 	mov    %fs:0x28,%rax
    2f6d:	00 00 
    2f6f:	48 89 45 f8          	mov    %rax,-0x8(%rbp)
    2f73:	31 c0                	xor    %eax,%eax
    2f75:	8b 45 d4             	mov    -0x2c(%rbp),%eax
    2f78:	c1 e8 1f             	shr    $0x1f,%eax
    2f7b:	88 45 e7             	mov    %al,-0x19(%rbp)
    2f7e:	80 7d e7 00          	cmpb   $0x0,-0x19(%rbp)
    2f82:	74 07                	je     2f8b <_ZNSt7__cxx119to_stringEi+0x38>
    2f84:	8b 45 d4             	mov    -0x2c(%rbp),%eax
    2f87:	f7 d8                	neg    %eax
    2f89:	eb 03                	jmp    2f8e <_ZNSt7__cxx119to_stringEi+0x3b>
    2f8b:	8b 45 d4             	mov    -0x2c(%rbp),%eax
    2f8e:	89 45 e8             	mov    %eax,-0x18(%rbp)
    2f91:	8b 45 e8             	mov    -0x18(%rbp),%eax
    2f94:	be 0a 00 00 00       	mov    $0xa,%esi
    2f99:	89 c7                	mov    %eax,%edi
    2f9b:	e8 7f 08 00 00       	call   381f <_ZNSt8__detail14__to_chars_lenIjEEjT_i>
    2fa0:	89 45 ec             	mov    %eax,-0x14(%rbp)
    2fa3:	48 8d 45 e6          	lea    -0x1a(%rbp),%rax
    2fa7:	48 89 45 f0          	mov    %rax,-0x10(%rbp)
    2fab:	90                   	nop
    2fac:	90                   	nop
    2fad:	0f b6 55 e7          	movzbl -0x19(%rbp),%edx
    2fb1:	8b 45 ec             	mov    -0x14(%rbp),%eax
    2fb4:	01 d0                	add    %edx,%eax
    2fb6:	89 c6                	mov    %eax,%esi
    2fb8:	48 8d 55 e6          	lea    -0x1a(%rbp),%rdx
    2fbc:	48 8b 45 d8          	mov    -0x28(%rbp),%rax
    2fc0:	48 89 d1             	mov    %rdx,%rcx
    2fc3:	ba 2d 00 00 00       	mov    $0x2d,%edx
    2fc8:	48 89 c7             	mov    %rax,%rdi
    2fcb:	e8 04 09 00 00       	call   38d4 <_ZNSt7__cxx1112basic_stringIcSt11char_traitsIcESaIcEEC1IS3_EEmcRKS3_>
    2fd0:	48 8d 45 e6          	lea    -0x1a(%rbp),%rax
    2fd4:	48 89 c7             	mov    %rax,%rdi
    2fd7:	e8 ea 1c 00 00       	call   4cc6 <_ZNSt15__new_allocatorIcED1Ev>
    2fdc:	90                   	nop
    2fdd:	0f b6 55 e7          	movzbl -0x19(%rbp),%edx
    2fe1:	48 8b 45 d8          	mov    -0x28(%rbp),%rax
    2fe5:	48 89 d6             	mov    %rdx,%rsi
    2fe8:	48 89 c7             	mov    %rax,%rdi
    2feb:	e8 c0 f3 ff ff       	call   23b0 <_ZNSt7__cxx1112basic_stringIcSt11char_traitsIcESaIcEEixEm@plt>
    2ff0:	48 89 c1             	mov    %rax,%rcx
    2ff3:	8b 55 e8             	mov    -0x18(%rbp),%edx
    2ff6:	8b 45 ec             	mov    -0x14(%rbp),%eax
    2ff9:	89 c6                	mov    %eax,%esi
    2ffb:	48 89 cf             	mov    %rcx,%rdi
    2ffe:	e8 51 09 00 00       	call   3954 <_ZNSt8__detail18__to_chars_10_implIjEEvPcjT_>
    3003:	90                   	nop
    3004:	48 8b 45 f8          	mov    -0x8(%rbp),%rax
    3008:	64 48 2b 04 25 28 00 	sub    %fs:0x28,%rax
    300f:	00 00 
    3011:	74 05                	je     3018 <_ZNSt7__cxx119to_stringEi+0xc5>
    3013:	e8 18 f3 ff ff       	call   2330 <__stack_chk_fail@plt>
    3018:	48 8b 45 d8          	mov    -0x28(%rbp),%rax
    301c:	c9                   	leave
    301d:	c3                   	ret

000000000000301e <_ZNSt15_Rb_tree_headerC1Ev>:
    301e:	f3 0f 1e fa          	endbr64
    3022:	55                   	push   %rbp
    3023:	48 89 e5             	mov    %rsp,%rbp
    3026:	48 83 ec 10          	sub    $0x10,%rsp
    302a:	48 89 7d f8          	mov    %rdi,-0x8(%rbp)
    302e:	48 8b 45 f8          	mov    -0x8(%rbp),%rax
    3032:	c7 00 00 00 00 00    	movl   $0x0,(%rax)
    3038:	48 8b 45 f8          	mov    -0x8(%rbp),%rax
    303c:	48 89 c7             	mov    %rax,%rdi
    303f:	e8 04 00 00 00       	call   3048 <_ZNSt15_Rb_tree_header8_M_resetEv>
    3044:	90                   	nop
    3045:	c9                   	leave
    3046:	c3                   	ret
    3047:	90                   	nop

0000000000003048 <_ZNSt15_Rb_tree_header8_M_resetEv>:
    3048:	f3 0f 1e fa          	endbr64
    304c:	55                   	push   %rbp
    304d:	48 89 e5             	mov    %rsp,%rbp
    3050:	48 89 7d f8          	mov    %rdi,-0x8(%rbp)
    3054:	48 8b 45 f8          	mov    -0x8(%rbp),%rax
    3058:	48 c7 40 08 00 00 00 	movq   $0x0,0x8(%rax)
    305f:	00 
    3060:	48 8b 55 f8          	mov    -0x8(%rbp),%rdx
    3064:	48 8b 45 f8          	mov    -0x8(%rbp),%rax
    3068:	48 89 50 10          	mov    %rdx,0x10(%rax)
    306c:	48 8b 55 f8          	mov    -0x8(%rbp),%rdx
    3070:	48 8b 45 f8          	mov    -0x8(%rbp),%rax
    3074:	48 89 50 18          	mov    %rdx,0x18(%rax)
    3078:	48 8b 45 f8          	mov    -0x8(%rbp),%rax
    307c:	48 c7 40 20 00 00 00 	movq   $0x0,0x20(%rax)
    3083:	00 
    3084:	90                   	nop
    3085:	5d                   	pop    %rbp
    3086:	c3                   	ret

0000000000003087 <_ZSt3minImERKT_S2_S2_>:
    3087:	f3 0f 1e fa          	endbr64
    308b:	55                   	push   %rbp
    308c:	48 89 e5             	mov    %rsp,%rbp
    308f:	48 89 7d f8          	mov    %rdi,-0x8(%rbp)
    3093:	48 89 75 f0          	mov    %rsi,-0x10(%rbp)
    3097:	48 8b 45 f0          	mov    -0x10(%rbp),%rax
    309b:	48 8b 10             	mov    (%rax),%rdx
    309e:	48 8b 45 f8          	mov    -0x8(%rbp),%rax
    30a2:	48 8b 00             	mov    (%rax),%rax
    30a5:	48 39 c2             	cmp    %rax,%rdx
    30a8:	73 06                	jae    30b0 <_ZSt3minImERKT_S2_S2_+0x29>
    30aa:	48 8b 45 f0          	mov    -0x10(%rbp),%rax
    30ae:	eb 04                	jmp    30b4 <_ZSt3minImERKT_S2_S2_+0x2d>
    30b0:	48 8b 45 f8          	mov    -0x8(%rbp),%rax
    30b4:	5d                   	pop    %rbp
    30b5:	c3                   	ret

00000000000030b6 <_ZN5Eigen8internal5all_tC1Ev>:
    30b6:	f3 0f 1e fa          	endbr64
    30ba:	55                   	push   %rbp
    30bb:	48 89 e5             	mov    %rsp,%rbp
    30be:	48 89 7d f8          	mov    %rdi,-0x8(%rbp)
    30c2:	90                   	nop
    30c3:	5d                   	pop    %rbp
    30c4:	c3                   	ret
    30c5:	90                   	nop

00000000000030c6 <_ZNK6bipololtERKS_>:
    30c6:	f3 0f 1e fa          	endbr64
    30ca:	55                   	push   %rbp
    30cb:	48 89 e5             	mov    %rsp,%rbp
    30ce:	48 89 7d f8          	mov    %rdi,-0x8(%rbp)
    30d2:	48 89 75 f0          	mov    %rsi,-0x10(%rbp)
    30d6:	48 8b 45 f8          	mov    -0x8(%rbp),%rax
    30da:	8b 10                	mov    (%rax),%edx
    30dc:	48 8b 45 f0          	mov    -0x10(%rbp),%rax
    30e0:	8b 00                	mov    (%rax),%eax
    30e2:	39 c2                	cmp    %eax,%edx
    30e4:	0f 9c c0             	setl   %al
    30e7:	5d                   	pop    %rbp
    30e8:	c3                   	ret
    30e9:	90                   	nop

00000000000030ea <_ZN6bipoloC1EiRKNSt7__cxx1112basic_stringIcSt11char_traitsIcESaIcEEE4Tipofii>:
    30ea:	f3 0f 1e fa          	endbr64
    30ee:	55                   	push   %rbp
    30ef:	48 89 e5             	mov    %rsp,%rbp
    30f2:	48 83 ec 30          	sub    $0x30,%rsp
    30f6:	48 89 7d f8          	mov    %rdi,-0x8(%rbp)
    30fa:	89 75 f4             	mov    %esi,-0xc(%rbp)
    30fd:	48 89 55 e8          	mov    %rdx,-0x18(%rbp)
    3101:	89 4d f0             	mov    %ecx,-0x10(%rbp)
    3104:	f3 0f 11 45 e4       	movss  %xmm0,-0x1c(%rbp)
    3109:	44 89 45 e0          	mov    %r8d,-0x20(%rbp)
    310d:	44 89 4d dc          	mov    %r9d,-0x24(%rbp)
    3111:	48 8b 45 f8          	mov    -0x8(%rbp),%rax
    3115:	8b 55 f4             	mov    -0xc(%rbp),%edx
    3118:	89 10                	mov    %edx,(%rax)
    311a:	48 8b 45 f8          	mov    -0x8(%rbp),%rax
    311e:	48 8d 50 08          	lea    0x8(%rax),%rdx
    3122:	48 8b 45 e8          	mov    -0x18(%rbp),%rax
    3126:	48 89 c6             	mov    %rax,%rsi
    3129:	48 89 d7             	mov    %rdx,%rdi
    312c:	e8 1f f1 ff ff       	call   2250 <_ZNSt7__cxx1112basic_stringIcSt11char_traitsIcESaIcEEC1ERKS4_@plt>
    3131:	48 8b 45 f8          	mov    -0x8(%rbp),%rax
    3135:	8b 55 f0             	mov    -0x10(%rbp),%edx
    3138:	89 50 28             	mov    %edx,0x28(%rax)
    313b:	48 8b 45 f8          	mov    -0x8(%rbp),%rax
    313f:	f3 0f 10 45 e4       	movss  -0x1c(%rbp),%xmm0
    3144:	f3 0f 11 40 2c       	movss  %xmm0,0x2c(%rax)
    3149:	48 8b 45 f8          	mov    -0x8(%rbp),%rax
    314d:	8b 55 e0             	mov    -0x20(%rbp),%edx
    3150:	89 50 30             	mov    %edx,0x30(%rax)
    3153:	48 8b 45 f8          	mov    -0x8(%rbp),%rax
    3157:	8b 55 dc             	mov    -0x24(%rbp),%edx
    315a:	89 50 34             	mov    %edx,0x34(%rax)
    315d:	90                   	nop
    315e:	c9                   	leave
    315f:	c3                   	ret

0000000000003160 <_ZNSt12_Vector_baseI6bipoloSaIS0_EE12_Vector_implD1Ev>:
    3160:	f3 0f 1e fa          	endbr64
    3164:	55                   	push   %rbp
    3165:	48 89 e5             	mov    %rsp,%rbp
    3168:	48 83 ec 20          	sub    $0x20,%rsp
    316c:	48 89 7d e8          	mov    %rdi,-0x18(%rbp)
    3170:	48 8b 45 e8          	mov    -0x18(%rbp),%rax
    3174:	48 89 45 f8          	mov    %rax,-0x8(%rbp)
    3178:	48 8b 45 f8          	mov    -0x8(%rbp),%rax
    317c:	48 89 c7             	mov    %rax,%rdi
    317f:	e8 f4 1b 00 00       	call   4d78 <_ZNSt15__new_allocatorI6bipoloED1Ev>
    3184:	90                   	nop
    3185:	90                   	nop
    3186:	c9                   	leave
    3187:	c3                   	ret

0000000000003188 <_ZNSt12_Vector_baseI6bipoloSaIS0_EEC1Ev>:
    3188:	f3 0f 1e fa          	endbr64
    318c:	55                   	push   %rbp
    318d:	48 89 e5             	mov    %rsp,%rbp
    3190:	48 83 ec 10          	sub    $0x10,%rsp
    3194:	48 89 7d f8          	mov    %rdi,-0x8(%rbp)
    3198:	48 8b 45 f8          	mov    -0x8(%rbp),%rax
    319c:	48 89 c7             	mov    %rax,%rdi
    319f:	e8 b0 0b 00 00       	call   3d54 <_ZNSt12_Vector_baseI6bipoloSaIS0_EE12_Vector_implC1Ev>
    31a4:	90                   	nop
    31a5:	c9                   	leave
    31a6:	c3                   	ret
    31a7:	90                   	nop

00000000000031a8 <_ZNSt6vectorI6bipoloSaIS0_EEC1Ev>:
    31a8:	f3 0f 1e fa          	endbr64
    31ac:	55                   	push   %rbp
    31ad:	48 89 e5             	mov    %rsp,%rbp
    31b0:	48 83 ec 10          	sub    $0x10,%rsp
    31b4:	48 89 7d f8          	mov    %rdi,-0x8(%rbp)
    31b8:	48 8b 45 f8          	mov    -0x8(%rbp),%rax
    31bc:	48 89 c7             	mov    %rax,%rdi
    31bf:	e8 c4 ff ff ff       	call   3188 <_ZNSt12_Vector_baseI6bipoloSaIS0_EEC1Ev>
    31c4:	90                   	nop
    31c5:	c9                   	leave
    31c6:	c3                   	ret
    31c7:	90                   	nop

00000000000031c8 <_ZN8CircuitoC1Ei>:
    31c8:	f3 0f 1e fa          	endbr64
    31cc:	55                   	push   %rbp
    31cd:	48 89 e5             	mov    %rsp,%rbp
    31d0:	48 83 ec 10          	sub    $0x10,%rsp
    31d4:	48 89 7d f8          	mov    %rdi,-0x8(%rbp)
    31d8:	89 75 f4             	mov    %esi,-0xc(%rbp)
    31db:	48 8b 45 f8          	mov    -0x8(%rbp),%rax
    31df:	48 89 c7             	mov    %rax,%rdi
    31e2:	e8 c1 ff ff ff       	call   31a8 <_ZNSt6vectorI6bipoloSaIS0_EEC1Ev>
    31e7:	48 8b 45 f8          	mov    -0x8(%rbp),%rax
    31eb:	8b 55 f4             	mov    -0xc(%rbp),%edx
    31ee:	89 50 18             	mov    %edx,0x18(%rax)
    31f1:	90                   	nop
    31f2:	c9                   	leave
    31f3:	c3                   	ret

00000000000031f4 <_ZN8Circuito14aggiungiBipoloEiRKNSt7__cxx1112basic_stringIcSt11char_traitsIcESaIcEEE4Tipofii>:
    31f4:	f3 0f 1e fa          	endbr64
    31f8:	55                   	push   %rbp
    31f9:	48 89 e5             	mov    %rsp,%rbp
    31fc:	48 83 ec 30          	sub    $0x30,%rsp
    3200:	48 89 7d f8          	mov    %rdi,-0x8(%rbp)
    3204:	89 75 f4             	mov    %esi,-0xc(%rbp)
    3207:	48 89 55 e8          	mov    %rdx,-0x18(%rbp)
    320b:	89 4d f0             	mov    %ecx,-0x10(%rbp)
    320e:	f3 0f 11 45 e4       	movss  %xmm0,-0x1c(%rbp)
    3213:	44 89 45 e0          	mov    %r8d,-0x20(%rbp)
    3217:	44 89 4d dc          	mov    %r9d,-0x24(%rbp)
    321b:	48 8b 45 f8          	mov    -0x8(%rbp),%rax
    321f:	4c 8d 4d e0          	lea    -0x20(%rbp),%r9
    3223:	4c 8d 45 e4          	lea    -0x1c(%rbp),%r8
    3227:	48 8d 4d f0          	lea    -0x10(%rbp),%rcx
    322b:	48 8b 55 e8          	mov    -0x18(%rbp),%rdx
    322f:	48 8d 75 f4          	lea    -0xc(%rbp),%rsi
    3233:	48 83 ec 08          	sub    $0x8,%rsp
    3237:	48 8d 7d dc          	lea    -0x24(%rbp),%rdi
    323b:	57                   	push   %rdi
    323c:	48 89 c7             	mov    %rax,%rdi
    323f:	e8 f8 0b 00 00       	call   3e3c <_ZNSt6vectorI6bipoloSaIS0_EE12emplace_backIJRiRKNSt7__cxx1112basic_stringIcSt11char_traitsIcESaIcEEER4TipoRfS4_S4_EEERS0_DpOT_>
    3244:	48 83 c4 10          	add    $0x10,%rsp
    3248:	90                   	nop
    3249:	c9                   	leave
    324a:	c3                   	ret
    324b:	90                   	nop

000000000000324c <_ZN8Circuito14aggiungiBipoloE6bipolo>:
    324c:	f3 0f 1e fa          	endbr64
    3250:	55                   	push   %rbp
    3251:	48 89 e5             	mov    %rsp,%rbp
    3254:	48 83 ec 10          	sub    $0x10,%rsp
    3258:	48 89 7d f8          	mov    %rdi,-0x8(%rbp)
    325c:	48 89 75 f0          	mov    %rsi,-0x10(%rbp)
    3260:	48 8b 45 f8          	mov    -0x8(%rbp),%rax
    3264:	48 8b 55 f0          	mov    -0x10(%rbp),%rdx
    3268:	48 89 d6             	mov    %rdx,%rsi
    326b:	48 89 c7             	mov    %rax,%rdi
    326e:	e8 11 0f 00 00       	call   4184 <_ZNSt6vectorI6bipoloSaIS0_EE12emplace_backIJRS0_EEES4_DpOT_>
    3273:	90                   	nop
    3274:	c9                   	leave
    3275:	c3                   	ret

0000000000003276 <_ZN14ExpressionNodeC1Ev>:
    3276:	f3 0f 1e fa          	endbr64
    327a:	55                   	push   %rbp
    327b:	48 89 e5             	mov    %rsp,%rbp
    327e:	48 89 7d f8          	mov    %rdi,-0x8(%rbp)
    3282:	48 8d 15 e7 a9 00 00 	lea    0xa9e7(%rip),%rdx        # dc70 <__cxa_pure_virtual@CXXABI_1.3>
    3289:	48 8b 45 f8          	mov    -0x8(%rbp),%rax
    328d:	48 89 10             	mov    %rdx,(%rax)
    3290:	90                   	nop
    3291:	5d                   	pop    %rbp
    3292:	c3                   	ret
    3293:	90                   	nop

0000000000003294 <_ZN14ExpressionNodeD1Ev>:
    3294:	f3 0f 1e fa          	endbr64
    3298:	55                   	push   %rbp
    3299:	48 89 e5             	mov    %rsp,%rbp
    329c:	48 89 7d f8          	mov    %rdi,-0x8(%rbp)
    32a0:	48 8d 15 c9 a9 00 00 	lea    0xa9c9(%rip),%rdx        # dc70 <__cxa_pure_virtual@CXXABI_1.3>
    32a7:	48 8b 45 f8          	mov    -0x8(%rbp),%rax
    32ab:	48 89 10             	mov    %rdx,(%rax)
    32ae:	90                   	nop
    32af:	5d                   	pop    %rbp
    32b0:	c3                   	ret
    32b1:	90                   	nop

00000000000032b2 <_ZN14ExpressionNodeD0Ev>:
    32b2:	f3 0f 1e fa          	endbr64
    32b6:	55                   	push   %rbp
    32b7:	48 89 e5             	mov    %rsp,%rbp
    32ba:	48 83 ec 10          	sub    $0x10,%rsp
    32be:	48 89 7d f8          	mov    %rdi,-0x8(%rbp)
    32c2:	48 8b 45 f8          	mov    -0x8(%rbp),%rax
    32c6:	48 89 c7             	mov    %rax,%rdi
    32c9:	e8 c6 ff ff ff       	call   3294 <_ZN14ExpressionNodeD1Ev>
    32ce:	48 8b 45 f8          	mov    -0x8(%rbp),%rax
    32d2:	be 08 00 00 00       	mov    $0x8,%esi
    32d7:	48 89 c7             	mov    %rax,%rdi
    32da:	e8 11 f0 ff ff       	call   22f0 <_ZdlPvm@plt>
    32df:	c9                   	leave
    32e0:	c3                   	ret
    32e1:	90                   	nop

00000000000032e2 <_ZN6bipoloC1ERKS_>:
    32e2:	f3 0f 1e fa          	endbr64
    32e6:	55                   	push   %rbp
    32e7:	48 89 e5             	mov    %rsp,%rbp
    32ea:	48 83 ec 10          	sub    $0x10,%rsp
    32ee:	48 89 7d f8          	mov    %rdi,-0x8(%rbp)
    32f2:	48 89 75 f0          	mov    %rsi,-0x10(%rbp)
    32f6:	48 8b 45 f0          	mov    -0x10(%rbp),%rax
    32fa:	8b 10                	mov    (%rax),%edx
    32fc:	48 8b 45 f8          	mov    -0x8(%rbp),%rax
    3300:	89 10                	mov    %edx,(%rax)
    3302:	48 8b 45 f8          	mov    -0x8(%rbp),%rax
    3306:	48 83 c0 08          	add    $0x8,%rax
    330a:	48 8b 55 f0          	mov    -0x10(%rbp),%rdx
    330e:	48 83 c2 08          	add    $0x8,%rdx
    3312:	48 89 d6             	mov    %rdx,%rsi
    3315:	48 89 c7             	mov    %rax,%rdi
    3318:	e8 33 ef ff ff       	call   2250 <_ZNSt7__cxx1112basic_stringIcSt11char_traitsIcESaIcEEC1ERKS4_@plt>
    331d:	48 8b 45 f0          	mov    -0x10(%rbp),%rax
    3321:	8b 50 28             	mov    0x28(%rax),%edx
    3324:	48 8b 45 f8          	mov    -0x8(%rbp),%rax
    3328:	89 50 28             	mov    %edx,0x28(%rax)
    332b:	48 8b 45 f0          	mov    -0x10(%rbp),%rax
    332f:	f3 0f 10 40 2c       	movss  0x2c(%rax),%xmm0
    3334:	48 8b 45 f8          	mov    -0x8(%rbp),%rax
    3338:	f3 0f 11 40 2c       	movss  %xmm0,0x2c(%rax)
    333d:	48 8b 45 f0          	mov    -0x10(%rbp),%rax
    3341:	8b 50 30             	mov    0x30(%rax),%edx
    3344:	48 8b 45 f8          	mov    -0x8(%rbp),%rax
    3348:	89 50 30             	mov    %edx,0x30(%rax)
    334b:	48 8b 45 f0          	mov    -0x10(%rbp),%rax
    334f:	8b 50 34             	mov    0x34(%rax),%edx
    3352:	48 8b 45 f8          	mov    -0x8(%rbp),%rax
    3356:	89 50 34             	mov    %edx,0x34(%rax)
    3359:	90                   	nop
    335a:	c9                   	leave
    335b:	c3                   	ret

000000000000335c <_ZN6bipoloD1Ev>:
    335c:	f3 0f 1e fa          	endbr64
    3360:	55                   	push   %rbp
    3361:	48 89 e5             	mov    %rsp,%rbp
    3364:	48 83 ec 10          	sub    $0x10,%rsp
    3368:	48 89 7d f8          	mov    %rdi,-0x8(%rbp)
    336c:	48 8b 45 f8          	mov    -0x8(%rbp),%rax
    3370:	48 83 c0 08          	add    $0x8,%rax
    3374:	48 89 c7             	mov    %rax,%rdi
    3377:	e8 14 ef ff ff       	call   2290 <_ZNSt7__cxx1112basic_stringIcSt11char_traitsIcESaIcEED1Ev@plt>
    337c:	90                   	nop
    337d:	c9                   	leave
    337e:	c3                   	ret
    337f:	90                   	nop

0000000000003380 <_ZN10BipoloNodeC1ERK6bipolo>:
    3380:	f3 0f 1e fa          	endbr64
    3384:	55                   	push   %rbp
    3385:	48 89 e5             	mov    %rsp,%rbp
    3388:	53                   	push   %rbx
    3389:	48 83 ec 18          	sub    $0x18,%rsp
    338d:	48 89 7d e8          	mov    %rdi,-0x18(%rbp)
    3391:	48 89 75 e0          	mov    %rsi,-0x20(%rbp)
    3395:	48 8b 45 e8          	mov    -0x18(%rbp),%rax
    3399:	48 89 c7             	mov    %rax,%rdi
    339c:	e8 d5 fe ff ff       	call   3276 <_ZN14ExpressionNodeC1Ev>
    33a1:	48 8d 15 a0 a8 00 00 	lea    0xa8a0(%rip),%rdx        # dc48 <_ZTV10BipoloNode+0x10>
    33a8:	48 8b 45 e8          	mov    -0x18(%rbp),%rax
    33ac:	48 89 10             	mov    %rdx,(%rax)
    33af:	48 8b 45 e8          	mov    -0x18(%rbp),%rax
    33b3:	48 8d 50 08          	lea    0x8(%rax),%rdx
    33b7:	48 8b 45 e0          	mov    -0x20(%rbp),%rax
    33bb:	48 89 c6             	mov    %rax,%rsi
    33be:	48 89 d7             	mov    %rdx,%rdi
    33c1:	e8 1c ff ff ff       	call   32e2 <_ZN6bipoloC1ERKS_>
    33c6:	eb 1e                	jmp    33e6 <_ZN10BipoloNodeC1ERK6bipolo+0x66>
    33c8:	f3 0f 1e fa          	endbr64
    33cc:	48 89 c3             	mov    %rax,%rbx
    33cf:	48 8b 45 e8          	mov    -0x18(%rbp),%rax
    33d3:	48 89 c7             	mov    %rax,%rdi
    33d6:	e8 b9 fe ff ff       	call   3294 <_ZN14ExpressionNodeD1Ev>
    33db:	48 89 d8             	mov    %rbx,%rax
    33de:	48 89 c7             	mov    %rax,%rdi
    33e1:	e8 ba ef ff ff       	call   23a0 <_Unwind_Resume@plt>
    33e6:	48 8b 5d f8          	mov    -0x8(%rbp),%rbx
    33ea:	c9                   	leave
    33eb:	c3                   	ret

00000000000033ec <_ZNK10BipoloNode8evaluateEv>:
    33ec:	f3 0f 1e fa          	endbr64
    33f0:	55                   	push   %rbp
    33f1:	48 89 e5             	mov    %rsp,%rbp
    33f4:	48 89 7d f8          	mov    %rdi,-0x8(%rbp)
    33f8:	48 8b 45 f8          	mov    -0x8(%rbp),%rax
    33fc:	f3 0f 10 40 34       	movss  0x34(%rax),%xmm0
    3401:	5d                   	pop    %rbp
    3402:	c3                   	ret
    3403:	90                   	nop

0000000000003404 <_ZNSt15__uniq_ptr_dataI14ExpressionNodeSt14default_deleteIS0_ELb1ELb1EEC1EOS3_>:
    3404:	f3 0f 1e fa          	endbr64
    3408:	55                   	push   %rbp
    3409:	48 89 e5             	mov    %rsp,%rbp
    340c:	48 83 ec 10          	sub    $0x10,%rsp
    3410:	48 89 7d f8          	mov    %rdi,-0x8(%rbp)
    3414:	48 89 75 f0          	mov    %rsi,-0x10(%rbp)
    3418:	48 8b 45 f8          	mov    -0x8(%rbp),%rax
    341c:	48 8b 55 f0          	mov    -0x10(%rbp),%rdx
    3420:	48 89 d6             	mov    %rdx,%rsi
    3423:	48 89 c7             	mov    %rax,%rdi
    3426:	e8 ab 0f 00 00       	call   43d6 <_ZNSt15__uniq_ptr_implI14ExpressionNodeSt14default_deleteIS0_EEC1EOS3_>
    342b:	90                   	nop
    342c:	c9                   	leave
    342d:	c3                   	ret

000000000000342e <_ZNSt10unique_ptrI14ExpressionNodeSt14default_deleteIS0_EEC1EOS3_>:
    342e:	f3 0f 1e fa          	endbr64
    3432:	55                   	push   %rbp
    3433:	48 89 e5             	mov    %rsp,%rbp
    3436:	48 83 ec 10          	sub    $0x10,%rsp
    343a:	48 89 7d f8          	mov    %rdi,-0x8(%rbp)
    343e:	48 89 75 f0          	mov    %rsi,-0x10(%rbp)
    3442:	48 8b 45 f8          	mov    -0x8(%rbp),%rax
    3446:	48 8b 55 f0          	mov    -0x10(%rbp),%rdx
    344a:	48 89 d6             	mov    %rdx,%rsi
    344d:	48 89 c7             	mov    %rax,%rdi
    3450:	e8 af ff ff ff       	call   3404 <_ZNSt15__uniq_ptr_dataI14ExpressionNodeSt14default_deleteIS0_ELb1ELb1EEC1EOS3_>
    3455:	90                   	nop
    3456:	c9                   	leave
    3457:	c3                   	ret

0000000000003458 <_ZN13OperationNodeC1ESt10unique_ptrI14ExpressionNodeSt14default_deleteIS1_EES4_c>:
    3458:	f3 0f 1e fa          	endbr64
    345c:	55                   	push   %rbp
    345d:	48 89 e5             	mov    %rsp,%rbp
    3460:	53                   	push   %rbx
    3461:	48 83 ec 28          	sub    $0x28,%rsp
    3465:	48 89 7d e8          	mov    %rdi,-0x18(%rbp)
    3469:	48 89 75 e0          	mov    %rsi,-0x20(%rbp)
    346d:	48 89 55 d8          	mov    %rdx,-0x28(%rbp)
    3471:	89 c8                	mov    %ecx,%eax
    3473:	88 45 d4             	mov    %al,-0x2c(%rbp)
    3476:	48 8b 45 e8          	mov    -0x18(%rbp),%rax
    347a:	48 89 c7             	mov    %rax,%rdi
    347d:	e8 f4 fd ff ff       	call   3276 <_ZN14ExpressionNodeC1Ev>
    3482:	48 8d 15 97 a7 00 00 	lea    0xa797(%rip),%rdx        # dc20 <_ZTV13OperationNode+0x10>
    3489:	48 8b 45 e8          	mov    -0x18(%rbp),%rax
    348d:	48 89 10             	mov    %rdx,(%rax)
    3490:	48 8b 45 e8          	mov    -0x18(%rbp),%rax
    3494:	48 8d 58 08          	lea    0x8(%rax),%rbx
    3498:	48 8b 45 e0          	mov    -0x20(%rbp),%rax
    349c:	48 89 c7             	mov    %rax,%rdi
    349f:	e8 bd 0e 00 00       	call   4361 <_ZSt4moveIRSt10unique_ptrI14ExpressionNodeSt14default_deleteIS1_EEEONSt16remove_referenceIT_E4typeEOS7_>
    34a4:	48 89 c6             	mov    %rax,%rsi
    34a7:	48 89 df             	mov    %rbx,%rdi
    34aa:	e8 7f ff ff ff       	call   342e <_ZNSt10unique_ptrI14ExpressionNodeSt14default_deleteIS0_EEC1EOS3_>
    34af:	48 8b 45 e8          	mov    -0x18(%rbp),%rax
    34b3:	48 8d 58 10          	lea    0x10(%rax),%rbx
    34b7:	48 8b 45 d8          	mov    -0x28(%rbp),%rax
    34bb:	48 89 c7             	mov    %rax,%rdi
    34be:	e8 9e 0e 00 00       	call   4361 <_ZSt4moveIRSt10unique_ptrI14ExpressionNodeSt14default_deleteIS1_EEEONSt16remove_referenceIT_E4typeEOS7_>
    34c3:	48 89 c6             	mov    %rax,%rsi
    34c6:	48 89 df             	mov    %rbx,%rdi
    34c9:	e8 60 ff ff ff       	call   342e <_ZNSt10unique_ptrI14ExpressionNodeSt14default_deleteIS0_EEC1EOS3_>
    34ce:	48 8b 45 e8          	mov    -0x18(%rbp),%rax
    34d2:	0f b6 55 d4          	movzbl -0x2c(%rbp),%edx
    34d6:	88 50 18             	mov    %dl,0x18(%rax)
    34d9:	90                   	nop
    34da:	48 8b 5d f8          	mov    -0x8(%rbp),%rbx
    34de:	c9                   	leave
    34df:	c3                   	ret

00000000000034e0 <_ZNK13OperationNode8evaluateEv>:
    34e0:	f3 0f 1e fa          	endbr64
    34e4:	55                   	push   %rbp
    34e5:	48 89 e5             	mov    %rsp,%rbp
    34e8:	48 83 ec 20          	sub    $0x20,%rsp
    34ec:	48 89 7d e8          	mov    %rdi,-0x18(%rbp)
    34f0:	48 8b 45 e8          	mov    -0x18(%rbp),%rax
    34f4:	48 83 c0 08          	add    $0x8,%rax
    34f8:	48 89 c7             	mov    %rax,%rdi
    34fb:	e8 88 0f 00 00       	call   4488 <_ZNKSt10unique_ptrI14ExpressionNodeSt14default_deleteIS0_EEptEv>
    3500:	48 8b 10             	mov    (%rax),%rdx
    3503:	48 8b 12             	mov    (%rdx),%rdx
    3506:	48 89 c7             	mov    %rax,%rdi
    3509:	ff d2                	call   *%rdx
    350b:	66 0f 7e c0          	movd   %xmm0,%eax
    350f:	89 45 f8             	mov    %eax,-0x8(%rbp)
    3512:	48 8b 45 e8          	mov    -0x18(%rbp),%rax
    3516:	48 83 c0 10          	add    $0x10,%rax
    351a:	48 89 c7             	mov    %rax,%rdi
    351d:	e8 66 0f 00 00       	call   4488 <_ZNKSt10unique_ptrI14ExpressionNodeSt14default_deleteIS0_EEptEv>
    3522:	48 8b 10             	mov    (%rax),%rdx
    3525:	48 8b 12             	mov    (%rdx),%rdx
    3528:	48 89 c7             	mov    %rax,%rdi
    352b:	ff d2                	call   *%rdx
    352d:	66 0f 7e c0          	movd   %xmm0,%eax
    3531:	89 45 fc             	mov    %eax,-0x4(%rbp)
    3534:	48 8b 45 e8          	mov    -0x18(%rbp),%rax
    3538:	0f b6 40 18          	movzbl 0x18(%rax),%eax
    353c:	3c 2b                	cmp    $0x2b,%al
    353e:	75 0c                	jne    354c <_ZNK13OperationNode8evaluateEv+0x6c>
    3540:	f3 0f 10 45 f8       	movss  -0x8(%rbp),%xmm0
    3545:	f3 0f 58 45 fc       	addss  -0x4(%rbp),%xmm0
    354a:	eb 3f                	jmp    358b <_ZNK13OperationNode8evaluateEv+0xab>
    354c:	48 8b 45 e8          	mov    -0x18(%rbp),%rax
    3550:	0f b6 40 18          	movzbl 0x18(%rax),%eax
    3554:	3c 7c                	cmp    $0x7c,%al
    3556:	75 2f                	jne    3587 <_ZNK13OperationNode8evaluateEv+0xa7>
    3558:	f3 0f 10 05 40 5d 00 	movss  0x5d40(%rip),%xmm0        # 92a0 <_ZNSt8__detail30__integer_to_chars_is_unsignedIyEE+0x4>
    355f:	00 
    3560:	0f 28 c8             	movaps %xmm0,%xmm1
    3563:	f3 0f 5e 4d f8       	divss  -0x8(%rbp),%xmm1
    3568:	f3 0f 10 05 30 5d 00 	movss  0x5d30(%rip),%xmm0        # 92a0 <_ZNSt8__detail30__integer_to_chars_is_unsignedIyEE+0x4>
    356f:	00 
    3570:	f3 0f 5e 45 fc       	divss  -0x4(%rbp),%xmm0
    3575:	f3 0f 58 c8          	addss  %xmm0,%xmm1
    3579:	f3 0f 10 05 1f 5d 00 	movss  0x5d1f(%rip),%xmm0        # 92a0 <_ZNSt8__detail30__integer_to_chars_is_unsignedIyEE+0x4>
    3580:	00 
    3581:	f3 0f 5e c1          	divss  %xmm1,%xmm0
    3585:	eb 04                	jmp    358b <_ZNK13OperationNode8evaluateEv+0xab>
    3587:	66 0f ef c0          	pxor   %xmm0,%xmm0
    358b:	c9                   	leave
    358c:	c3                   	ret
    358d:	90                   	nop

000000000000358e <_ZNSt8_Rb_treeI6bipoloS0_St9_IdentityIS0_ESt4lessIS0_ESaIS0_EE13_Rb_tree_implIS4_Lb1EED1Ev>:
    358e:	f3 0f 1e fa          	endbr64
    3592:	55                   	push   %rbp
    3593:	48 89 e5             	mov    %rsp,%rbp
    3596:	48 83 ec 20          	sub    $0x20,%rsp
    359a:	48 89 7d e8          	mov    %rdi,-0x18(%rbp)
    359e:	48 8b 45 e8          	mov    -0x18(%rbp),%rax
    35a2:	48 89 45 f8          	mov    %rax,-0x8(%rbp)
    35a6:	48 8b 45 f8          	mov    -0x8(%rbp),%rax
    35aa:	48 89 c7             	mov    %rax,%rdi
    35ad:	e8 ec 23 00 00       	call   599e <_ZNSt15__new_allocatorISt13_Rb_tree_nodeI6bipoloEED1Ev>
    35b2:	90                   	nop
    35b3:	90                   	nop
    35b4:	c9                   	leave
    35b5:	c3                   	ret

00000000000035b6 <_ZNSt8_Rb_treeI6bipoloS0_St9_IdentityIS0_ESt4lessIS0_ESaIS0_EEC1Ev>:
    35b6:	f3 0f 1e fa          	endbr64
    35ba:	55                   	push   %rbp
    35bb:	48 89 e5             	mov    %rsp,%rbp
    35be:	48 83 ec 10          	sub    $0x10,%rsp
    35c2:	48 89 7d f8          	mov    %rdi,-0x8(%rbp)
    35c6:	48 8b 45 f8          	mov    -0x8(%rbp),%rax
    35ca:	48 89 c7             	mov    %rax,%rdi
    35cd:	e8 02 0f 00 00       	call   44d4 <_ZNSt8_Rb_treeI6bipoloS0_St9_IdentityIS0_ESt4lessIS0_ESaIS0_EE13_Rb_tree_implIS4_Lb1EEC1Ev>
    35d2:	90                   	nop
    35d3:	c9                   	leave
    35d4:	c3                   	ret
    35d5:	90                   	nop

00000000000035d6 <_ZNSt3setI6bipoloSt4lessIS0_ESaIS0_EEC1Ev>:
    35d6:	f3 0f 1e fa          	endbr64
    35da:	55                   	push   %rbp
    35db:	48 89 e5             	mov    %rsp,%rbp
    35de:	48 83 ec 10          	sub    $0x10,%rsp
    35e2:	48 89 7d f8          	mov    %rdi,-0x8(%rbp)
    35e6:	48 8b 45 f8          	mov    -0x8(%rbp),%rax
    35ea:	48 89 c7             	mov    %rax,%rdi
    35ed:	e8 c4 ff ff ff       	call   35b6 <_ZNSt8_Rb_treeI6bipoloS0_St9_IdentityIS0_ESt4lessIS0_ESaIS0_EEC1Ev>
    35f2:	90                   	nop
    35f3:	c9                   	leave
    35f4:	c3                   	ret
    35f5:	90                   	nop

00000000000035f6 <_ZNSt3setI6bipoloSt4lessIS0_ESaIS0_EED1Ev>:
    35f6:	f3 0f 1e fa          	endbr64
    35fa:	55                   	push   %rbp
    35fb:	48 89 e5             	mov    %rsp,%rbp
    35fe:	48 83 ec 10          	sub    $0x10,%rsp
    3602:	48 89 7d f8          	mov    %rdi,-0x8(%rbp)
    3606:	48 8b 45 f8          	mov    -0x8(%rbp),%rax
    360a:	48 89 c7             	mov    %rax,%rdi
    360d:	e8 04 0f 00 00       	call   4516 <_ZNSt8_Rb_treeI6bipoloS0_St9_IdentityIS0_ESt4lessIS0_ESaIS0_EED1Ev>
    3612:	90                   	nop
    3613:	c9                   	leave
    3614:	c3                   	ret
    3615:	90                   	nop

0000000000003616 <_ZNSt8_Rb_treeIiiSt9_IdentityIiESt4lessIiESaIiEE13_Rb_tree_implIS3_Lb1EED1Ev>:
    3616:	f3 0f 1e fa          	endbr64
    361a:	55                   	push   %rbp
    361b:	48 89 e5             	mov    %rsp,%rbp
    361e:	48 83 ec 20          	sub    $0x20,%rsp
    3622:	48 89 7d e8          	mov    %rdi,-0x18(%rbp)
    3626:	48 8b 45 e8          	mov    -0x18(%rbp),%rax
    362a:	48 89 45 f8          	mov    %rax,-0x8(%rbp)
    362e:	48 8b 45 f8          	mov    -0x8(%rbp),%rax
    3632:	48 89 c7             	mov    %rax,%rdi
    3635:	e8 fc 23 00 00       	call   5a36 <_ZNSt15__new_allocatorISt13_Rb_tree_nodeIiEED1Ev>
    363a:	90                   	nop
    363b:	90                   	nop
    363c:	c9                   	leave
    363d:	c3                   	ret

000000000000363e <_ZNSt8_Rb_treeIiiSt9_IdentityIiESt4lessIiESaIiEEC1Ev>:
    363e:	f3 0f 1e fa          	endbr64
    3642:	55                   	push   %rbp
    3643:	48 89 e5             	mov    %rsp,%rbp
    3646:	48 83 ec 10          	sub    $0x10,%rsp
    364a:	48 89 7d f8          	mov    %rdi,-0x8(%rbp)
    364e:	48 8b 45 f8          	mov    -0x8(%rbp),%rax
    3652:	48 89 c7             	mov    %rax,%rdi
    3655:	e8 fa 0e 00 00       	call   4554 <_ZNSt8_Rb_treeIiiSt9_IdentityIiESt4lessIiESaIiEE13_Rb_tree_implIS3_Lb1EEC1Ev>
    365a:	90                   	nop
    365b:	c9                   	leave
    365c:	c3                   	ret
    365d:	90                   	nop

000000000000365e <_ZNSt3setIiSt4lessIiESaIiEEC1Ev>:
    365e:	f3 0f 1e fa          	endbr64
    3662:	55                   	push   %rbp
    3663:	48 89 e5             	mov    %rsp,%rbp
    3666:	48 83 ec 10          	sub    $0x10,%rsp
    366a:	48 89 7d f8          	mov    %rdi,-0x8(%rbp)
    366e:	48 8b 45 f8          	mov    -0x8(%rbp),%rax
    3672:	48 89 c7             	mov    %rax,%rdi
    3675:	e8 c4 ff ff ff       	call   363e <_ZNSt8_Rb_treeIiiSt9_IdentityIiESt4lessIiESaIiEEC1Ev>
    367a:	90                   	nop
    367b:	c9                   	leave
    367c:	c3                   	ret
    367d:	90                   	nop

000000000000367e <_ZNSt3setIiSt4lessIiESaIiEED1Ev>:
    367e:	f3 0f 1e fa          	endbr64
    3682:	55                   	push   %rbp
    3683:	48 89 e5             	mov    %rsp,%rbp
    3686:	48 83 ec 10          	sub    $0x10,%rsp
    368a:	48 89 7d f8          	mov    %rdi,-0x8(%rbp)
    368e:	48 8b 45 f8          	mov    -0x8(%rbp),%rax
    3692:	48 89 c7             	mov    %rax,%rdi
    3695:	e8 fc 0e 00 00       	call   4596 <_ZNSt8_Rb_treeIiiSt9_IdentityIiESt4lessIiESaIiEED1Ev>
    369a:	90                   	nop
    369b:	c9                   	leave
    369c:	c3                   	ret
    369d:	90                   	nop

000000000000369e <_ZNSt15__uniq_ptr_dataI14ExpressionNodeSt14default_deleteIS0_ELb1ELb1EEaSEOS3_>:
    369e:	f3 0f 1e fa          	endbr64
    36a2:	55                   	push   %rbp
    36a3:	48 89 e5             	mov    %rsp,%rbp
    36a6:	48 83 ec 10          	sub    $0x10,%rsp
    36aa:	48 89 7d f8          	mov    %rdi,-0x8(%rbp)
    36ae:	48 89 75 f0          	mov    %rsi,-0x10(%rbp)
    36b2:	48 8b 45 f8          	mov    -0x8(%rbp),%rax
    36b6:	48 8b 55 f0          	mov    -0x10(%rbp),%rdx
    36ba:	48 89 d6             	mov    %rdx,%rsi
    36bd:	48 89 c7             	mov    %rax,%rdi
    36c0:	e8 9b 11 00 00       	call   4860 <_ZNSt15__uniq_ptr_implI14ExpressionNodeSt14default_deleteIS0_EEaSEOS3_>
    36c5:	48 8b 45 f8          	mov    -0x8(%rbp),%rax
    36c9:	c9                   	leave
    36ca:	c3                   	ret
    36cb:	90                   	nop

00000000000036cc <_ZNSt10unique_ptrI14ExpressionNodeSt14default_deleteIS0_EEaSEOS3_>:
    36cc:	f3 0f 1e fa          	endbr64
    36d0:	55                   	push   %rbp
    36d1:	48 89 e5             	mov    %rsp,%rbp
    36d4:	48 83 ec 10          	sub    $0x10,%rsp
    36d8:	48 89 7d f8          	mov    %rdi,-0x8(%rbp)
    36dc:	48 89 75 f0          	mov    %rsi,-0x10(%rbp)
    36e0:	48 8b 55 f0          	mov    -0x10(%rbp),%rdx
    36e4:	48 8b 45 f8          	mov    -0x8(%rbp),%rax
    36e8:	48 89 d6             	mov    %rdx,%rsi
    36eb:	48 89 c7             	mov    %rax,%rdi
    36ee:	e8 ab ff ff ff       	call   369e <_ZNSt15__uniq_ptr_dataI14ExpressionNodeSt14default_deleteIS0_ELb1ELb1EEaSEOS3_>
    36f3:	48 8b 45 f8          	mov    -0x8(%rbp),%rax
    36f7:	c9                   	leave
    36f8:	c3                   	ret
    36f9:	90                   	nop

00000000000036fa <_ZNSt4pairISt10unique_ptrI14ExpressionNodeSt14default_deleteIS1_EES0_I8CircuitoS2_IS5_EEED1Ev>:
    36fa:	f3 0f 1e fa          	endbr64
    36fe:	55                   	push   %rbp
    36ff:	48 89 e5             	mov    %rsp,%rbp
    3702:	48 83 ec 10          	sub    $0x10,%rsp
    3706:	48 89 7d f8          	mov    %rdi,-0x8(%rbp)
    370a:	48 8b 45 f8          	mov    -0x8(%rbp),%rax
    370e:	48 83 c0 08          	add    $0x8,%rax
    3712:	48 89 c7             	mov    %rax,%rdi
    3715:	e8 ee 13 00 00       	call   4b08 <_ZNSt10unique_ptrI8CircuitoSt14default_deleteIS0_EED1Ev>
    371a:	48 8b 45 f8          	mov    -0x8(%rbp),%rax
    371e:	48 89 c7             	mov    %rax,%rdi
    3721:	e8 fa 0c 00 00       	call   4420 <_ZNSt10unique_ptrI14ExpressionNodeSt14default_deleteIS0_EED1Ev>
    3726:	90                   	nop
    3727:	c9                   	leave
    3728:	c3                   	ret
    3729:	90                   	nop

000000000000372a <_ZNSt15__uniq_ptr_implI14ExpressionNodeSt14default_deleteIS0_EEC1Ev>:
    372a:	f3 0f 1e fa          	endbr64
    372e:	55                   	push   %rbp
    372f:	48 89 e5             	mov    %rsp,%rbp
    3732:	48 83 ec 10          	sub    $0x10,%rsp
    3736:	48 89 7d f8          	mov    %rdi,-0x8(%rbp)
    373a:	48 8b 45 f8          	mov    -0x8(%rbp),%rax
    373e:	48 89 c7             	mov    %rax,%rdi
    3741:	e8 24 00 00 00       	call   376a <_ZNSt5tupleIJP14ExpressionNodeSt14default_deleteIS0_EEEC1ILb1ELb1EEEv>
    3746:	90                   	nop
    3747:	c9                   	leave
    3748:	c3                   	ret
    3749:	90                   	nop

000000000000374a <_ZNSt15__uniq_ptr_dataI14ExpressionNodeSt14default_deleteIS0_ELb1ELb1EECI1St15__uniq_ptr_implIS0_S2_EEv>:
    374a:	f3 0f 1e fa          	endbr64
    374e:	55                   	push   %rbp
    374f:	48 89 e5             	mov    %rsp,%rbp
    3752:	48 83 ec 10          	sub    $0x10,%rsp
    3756:	48 89 7d f8          	mov    %rdi,-0x8(%rbp)
    375a:	48 8b 45 f8          	mov    -0x8(%rbp),%rax
    375e:	48 89 c7             	mov    %rax,%rdi
    3761:	e8 c4 ff ff ff       	call   372a <_ZNSt15__uniq_ptr_implI14ExpressionNodeSt14default_deleteIS0_EEC1Ev>
    3766:	90                   	nop
    3767:	c9                   	leave
    3768:	c3                   	ret
    3769:	90                   	nop

000000000000376a <_ZNSt5tupleIJP14ExpressionNodeSt14default_deleteIS0_EEEC1ILb1ELb1EEEv>:
    376a:	f3 0f 1e fa          	endbr64
    376e:	55                   	push   %rbp
    376f:	48 89 e5             	mov    %rsp,%rbp
    3772:	48 83 ec 10          	sub    $0x10,%rsp
    3776:	48 89 7d f8          	mov    %rdi,-0x8(%rbp)
    377a:	48 8b 45 f8          	mov    -0x8(%rbp),%rax
    377e:	48 89 c7             	mov    %rax,%rdi
    3781:	e8 04 00 00 00       	call   378a <_ZNSt11_Tuple_implILm0EJP14ExpressionNodeSt14default_deleteIS0_EEEC2Ev>
    3786:	90                   	nop
    3787:	c9                   	leave
    3788:	c3                   	ret
    3789:	90                   	nop

000000000000378a <_ZNSt11_Tuple_implILm0EJP14ExpressionNodeSt14default_deleteIS0_EEEC2Ev>:
    378a:	f3 0f 1e fa          	endbr64
    378e:	55                   	push   %rbp
    378f:	48 89 e5             	mov    %rsp,%rbp
    3792:	48 83 ec 10          	sub    $0x10,%rsp
    3796:	48 89 7d f8          	mov    %rdi,-0x8(%rbp)
    379a:	48 8b 45 f8          	mov    -0x8(%rbp),%rax
    379e:	48 89 c7             	mov    %rax,%rdi
    37a1:	e8 10 00 00 00       	call   37b6 <_ZNSt11_Tuple_implILm1EJSt14default_deleteI14ExpressionNodeEEEC2Ev>
    37a6:	48 8b 45 f8          	mov    -0x8(%rbp),%rax
    37aa:	48 89 c7             	mov    %rax,%rdi
    37ad:	e8 34 00 00 00       	call   37e6 <_ZNSt10_Head_baseILm0EP14ExpressionNodeLb0EEC2Ev>
    37b2:	90                   	nop
    37b3:	c9                   	leave
    37b4:	c3                   	ret
    37b5:	90                   	nop

00000000000037b6 <_ZNSt11_Tuple_implILm1EJSt14default_deleteI14ExpressionNodeEEEC2Ev>:
    37b6:	f3 0f 1e fa          	endbr64
    37ba:	55                   	push   %rbp
    37bb:	48 89 e5             	mov    %rsp,%rbp
    37be:	48 83 ec 10          	sub    $0x10,%rsp
    37c2:	48 89 7d f8          	mov    %rdi,-0x8(%rbp)
    37c6:	48 8b 45 f8          	mov    -0x8(%rbp),%rax
    37ca:	48 89 c7             	mov    %rax,%rdi
    37cd:	e8 04 00 00 00       	call   37d6 <_ZNSt10_Head_baseILm1ESt14default_deleteI14ExpressionNodeELb1EEC2Ev>
    37d2:	90                   	nop
    37d3:	c9                   	leave
    37d4:	c3                   	ret
    37d5:	90                   	nop

00000000000037d6 <_ZNSt10_Head_baseILm1ESt14default_deleteI14ExpressionNodeELb1EEC2Ev>:
    37d6:	f3 0f 1e fa          	endbr64
    37da:	55                   	push   %rbp
    37db:	48 89 e5             	mov    %rsp,%rbp
    37de:	48 89 7d f8          	mov    %rdi,-0x8(%rbp)
    37e2:	90                   	nop
    37e3:	5d                   	pop    %rbp
    37e4:	c3                   	ret
    37e5:	90                   	nop

00000000000037e6 <_ZNSt10_Head_baseILm0EP14ExpressionNodeLb0EEC2Ev>:
    37e6:	f3 0f 1e fa          	endbr64
    37ea:	55                   	push   %rbp
    37eb:	48 89 e5             	mov    %rsp,%rbp
    37ee:	48 89 7d f8          	mov    %rdi,-0x8(%rbp)
    37f2:	48 8b 45 f8          	mov    -0x8(%rbp),%rax
    37f6:	48 c7 00 00 00 00 00 	movq   $0x0,(%rax)
    37fd:	90                   	nop
    37fe:	5d                   	pop    %rbp
    37ff:	c3                   	ret

0000000000003800 <_ZN8CircuitoD1Ev>:
    3800:	f3 0f 1e fa          	endbr64
    3804:	55                   	push   %rbp
    3805:	48 89 e5             	mov    %rsp,%rbp
    3808:	48 83 ec 10          	sub    $0x10,%rsp
    380c:	48 89 7d f8          	mov    %rdi,-0x8(%rbp)
    3810:	48 8b 45 f8          	mov    -0x8(%rbp),%rax
    3814:	48 89 c7             	mov    %rax,%rdi
    3817:	e8 c6 05 00 00       	call   3de2 <_ZNSt6vectorI6bipoloSaIS0_EED1Ev>
    381c:	90                   	nop
    381d:	c9                   	leave
    381e:	c3                   	ret

000000000000381f <_ZNSt8__detail14__to_chars_lenIjEEjT_i>:
    381f:	f3 0f 1e fa          	endbr64
    3823:	55                   	push   %rbp
    3824:	48 89 e5             	mov    %rsp,%rbp
    3827:	89 7d dc             	mov    %edi,-0x24(%rbp)
    382a:	89 75 d8             	mov    %esi,-0x28(%rbp)
    382d:	c7 45 ec 01 00 00 00 	movl   $0x1,-0x14(%rbp)
    3834:	8b 45 d8             	mov    -0x28(%rbp),%eax
    3837:	0f af c0             	imul   %eax,%eax
    383a:	89 45 f0             	mov    %eax,-0x10(%rbp)
    383d:	8b 45 d8             	mov    -0x28(%rbp),%eax
    3840:	8b 55 f0             	mov    -0x10(%rbp),%edx
    3843:	0f af c2             	imul   %edx,%eax
    3846:	89 45 f4             	mov    %eax,-0xc(%rbp)
    3849:	8b 45 d8             	mov    -0x28(%rbp),%eax
    384c:	0f af 45 f4          	imul   -0xc(%rbp),%eax
    3850:	89 c0                	mov    %eax,%eax
    3852:	48 89 45 f8          	mov    %rax,-0x8(%rbp)
    3856:	8b 45 d8             	mov    -0x28(%rbp),%eax
    3859:	39 45 dc             	cmp    %eax,-0x24(%rbp)
    385c:	73 05                	jae    3863 <_ZNSt8__detail14__to_chars_lenIjEEjT_i+0x44>
    385e:	8b 45 ec             	mov    -0x14(%rbp),%eax
    3861:	eb 46                	jmp    38a9 <_ZNSt8__detail14__to_chars_lenIjEEjT_i+0x8a>
    3863:	8b 45 dc             	mov    -0x24(%rbp),%eax
    3866:	3b 45 f0             	cmp    -0x10(%rbp),%eax
    3869:	73 08                	jae    3873 <_ZNSt8__detail14__to_chars_lenIjEEjT_i+0x54>
    386b:	8b 45 ec             	mov    -0x14(%rbp),%eax
    386e:	83 c0 01             	add    $0x1,%eax
    3871:	eb 36                	jmp    38a9 <_ZNSt8__detail14__to_chars_lenIjEEjT_i+0x8a>
    3873:	8b 45 dc             	mov    -0x24(%rbp),%eax
    3876:	3b 45 f4             	cmp    -0xc(%rbp),%eax
    3879:	73 08                	jae    3883 <_ZNSt8__detail14__to_chars_lenIjEEjT_i+0x64>
    387b:	8b 45 ec             	mov    -0x14(%rbp),%eax
    387e:	83 c0 02             	add    $0x2,%eax
    3881:	eb 26                	jmp    38a9 <_ZNSt8__detail14__to_chars_lenIjEEjT_i+0x8a>
    3883:	8b 45 dc             	mov    -0x24(%rbp),%eax
    3886:	48 3b 45 f8          	cmp    -0x8(%rbp),%rax
    388a:	73 08                	jae    3894 <_ZNSt8__detail14__to_chars_lenIjEEjT_i+0x75>
    388c:	8b 45 ec             	mov    -0x14(%rbp),%eax
    388f:	83 c0 03             	add    $0x3,%eax
    3892:	eb 15                	jmp    38a9 <_ZNSt8__detail14__to_chars_lenIjEEjT_i+0x8a>
    3894:	8b 45 dc             	mov    -0x24(%rbp),%eax
    3897:	ba 00 00 00 00       	mov    $0x0,%edx
    389c:	48 f7 75 f8          	divq   -0x8(%rbp)
    38a0:	89 45 dc             	mov    %eax,-0x24(%rbp)
    38a3:	83 45 ec 04          	addl   $0x4,-0x14(%rbp)
    38a7:	eb ad                	jmp    3856 <_ZNSt8__detail14__to_chars_lenIjEEjT_i+0x37>
    38a9:	5d                   	pop    %rbp
    38aa:	c3                   	ret
    38ab:	90                   	nop

00000000000038ac <_ZNSt7__cxx1112basic_stringIcSt11char_traitsIcESaIcEE12_Alloc_hiderD1Ev>:
    38ac:	f3 0f 1e fa          	endbr64
    38b0:	55                   	push   %rbp
    38b1:	48 89 e5             	mov    %rsp,%rbp
    38b4:	48 83 ec 20          	sub    $0x20,%rsp
    38b8:	48 89 7d e8          	mov    %rdi,-0x18(%rbp)
    38bc:	48 8b 45 e8          	mov    -0x18(%rbp),%rax
    38c0:	48 89 45 f8          	mov    %rax,-0x8(%rbp)
    38c4:	48 8b 45 f8          	mov    -0x8(%rbp),%rax
    38c8:	48 89 c7             	mov    %rax,%rdi
    38cb:	e8 f6 13 00 00       	call   4cc6 <_ZNSt15__new_allocatorIcED1Ev>
    38d0:	90                   	nop
    38d1:	90                   	nop
    38d2:	c9                   	leave
    38d3:	c3                   	ret

00000000000038d4 <_ZNSt7__cxx1112basic_stringIcSt11char_traitsIcESaIcEEC1IS3_EEmcRKS3_>:
    38d4:	f3 0f 1e fa          	endbr64
    38d8:	55                   	push   %rbp
    38d9:	48 89 e5             	mov    %rsp,%rbp
    38dc:	53                   	push   %rbx
    38dd:	48 83 ec 28          	sub    $0x28,%rsp
    38e1:	48 89 7d e8          	mov    %rdi,-0x18(%rbp)
    38e5:	48 89 75 e0          	mov    %rsi,-0x20(%rbp)
    38e9:	89 d0                	mov    %edx,%eax
    38eb:	48 89 4d d0          	mov    %rcx,-0x30(%rbp)
    38ef:	88 45 dc             	mov    %al,-0x24(%rbp)
    38f2:	48 8b 5d e8          	mov    -0x18(%rbp),%rbx
    38f6:	48 8b 45 e8          	mov    -0x18(%rbp),%rax
    38fa:	48 89 c7             	mov    %rax,%rdi
    38fd:	e8 be e9 ff ff       	call   22c0 <_ZNSt7__cxx1112basic_stringIcSt11char_traitsIcESaIcEE13_M_local_dataEv@plt>
    3902:	48 89 c1             	mov    %rax,%rcx
    3905:	48 8b 45 d0          	mov    -0x30(%rbp),%rax
    3909:	48 89 c2             	mov    %rax,%rdx
    390c:	48 89 ce             	mov    %rcx,%rsi
    390f:	48 89 df             	mov    %rbx,%rdi
    3912:	e8 09 ea ff ff       	call   2320 <_ZNSt7__cxx1112basic_stringIcSt11char_traitsIcESaIcEE12_Alloc_hiderC1EPcRKS3_@plt>
    3917:	0f be 55 dc          	movsbl -0x24(%rbp),%edx
    391b:	48 8b 4d e0          	mov    -0x20(%rbp),%rcx
    391f:	48 8b 45 e8          	mov    -0x18(%rbp),%rax
    3923:	48 89 ce             	mov    %rcx,%rsi
    3926:	48 89 c7             	mov    %rax,%rdi
    3929:	e8 22 ea ff ff       	call   2350 <_ZNSt7__cxx1112basic_stringIcSt11char_traitsIcESaIcEE12_M_constructEmc@plt>
    392e:	eb 1e                	jmp    394e <_ZNSt7__cxx1112basic_stringIcSt11char_traitsIcESaIcEEC1IS3_EEmcRKS3_+0x7a>
    3930:	f3 0f 1e fa          	endbr64
    3934:	48 89 c3             	mov    %rax,%rbx
    3937:	48 8b 45 e8          	mov    -0x18(%rbp),%rax
    393b:	48 89 c7             	mov    %rax,%rdi
    393e:	e8 69 ff ff ff       	call   38ac <_ZNSt7__cxx1112basic_stringIcSt11char_traitsIcESaIcEE12_Alloc_hiderD1Ev>
    3943:	48 89 d8             	mov    %rbx,%rax
    3946:	48 89 c7             	mov    %rax,%rdi
    3949:	e8 52 ea ff ff       	call   23a0 <_Unwind_Resume@plt>
    394e:	48 8b 5d f8          	mov    -0x8(%rbp),%rbx
    3952:	c9                   	leave
    3953:	c3                   	ret

0000000000003954 <_ZNSt8__detail18__to_chars_10_implIjEEvPcjT_>:
    3954:	f3 0f 1e fa          	endbr64
    3958:	55                   	push   %rbp
    3959:	48 89 e5             	mov    %rsp,%rbp
    395c:	48 81 ec 00 01 00 00 	sub    $0x100,%rsp
    3963:	48 89 bd 08 ff ff ff 	mov    %rdi,-0xf8(%rbp)
    396a:	89 b5 04 ff ff ff    	mov    %esi,-0xfc(%rbp)
    3970:	89 95 00 ff ff ff    	mov    %edx,-0x100(%rbp)
    3976:	64 48 8b 04 25 28 00 	mov    %fs:0x28,%rax
    397d:	00 00 
    397f:	48 89 45 f8          	mov    %rax,-0x8(%rbp)
    3983:	31 c0                	xor    %eax,%eax
    3985:	48 b8 30 30 30 31 30 	movabs $0x3330323031303030,%rax
    398c:	32 30 33 
    398f:	48 ba 30 34 30 35 30 	movabs $0x3730363035303430,%rdx
    3996:	36 30 37 
    3999:	48 89 85 20 ff ff ff 	mov    %rax,-0xe0(%rbp)
    39a0:	48 89 95 28 ff ff ff 	mov    %rdx,-0xd8(%rbp)
    39a7:	48 b8 30 38 30 39 31 	movabs $0x3131303139303830,%rax
    39ae:	30 31 31 
    39b1:	48 ba 31 32 31 33 31 	movabs $0x3531343133313231,%rdx
    39b8:	34 31 35 
    39bb:	48 89 85 30 ff ff ff 	mov    %rax,-0xd0(%rbp)
    39c2:	48 89 95 38 ff ff ff 	mov    %rdx,-0xc8(%rbp)
    39c9:	48 b8 31 36 31 37 31 	movabs $0x3931383137313631,%rax
    39d0:	38 31 39 
    39d3:	48 ba 32 30 32 31 32 	movabs $0x3332323231323032,%rdx
    39da:	32 32 33 
    39dd:	48 89 85 40 ff ff ff 	mov    %rax,-0xc0(%rbp)
    39e4:	48 89 95 48 ff ff ff 	mov    %rdx,-0xb8(%rbp)
    39eb:	48 b8 32 34 32 35 32 	movabs $0x3732363235323432,%rax
    39f2:	36 32 37 
    39f5:	48 ba 32 38 32 39 33 	movabs $0x3133303339323832,%rdx
    39fc:	30 33 31 
    39ff:	48 89 85 50 ff ff ff 	mov    %rax,-0xb0(%rbp)
    3a06:	48 89 95 58 ff ff ff 	mov    %rdx,-0xa8(%rbp)
    3a0d:	48 b8 33 32 33 33 33 	movabs $0x3533343333333233,%rax
    3a14:	34 33 35 
    3a17:	48 ba 33 36 33 37 33 	movabs $0x3933383337333633,%rdx
    3a1e:	38 33 39 
    3a21:	48 89 85 60 ff ff ff 	mov    %rax,-0xa0(%rbp)
    3a28:	48 89 95 68 ff ff ff 	mov    %rdx,-0x98(%rbp)
    3a2f:	48 b8 34 30 34 31 34 	movabs $0x3334323431343034,%rax
    3a36:	32 34 33 
    3a39:	48 ba 34 34 34 35 34 	movabs $0x3734363435343434,%rdx
    3a40:	36 34 37 
    3a43:	48 89 85 70 ff ff ff 	mov    %rax,-0x90(%rbp)
    3a4a:	48 89 95 78 ff ff ff 	mov    %rdx,-0x88(%rbp)
    3a51:	48 b8 34 38 34 39 35 	movabs $0x3135303539343834,%rax
    3a58:	30 35 31 
    3a5b:	48 ba 35 32 35 33 35 	movabs $0x3535343533353235,%rdx
    3a62:	34 35 35 
    3a65:	48 89 45 80          	mov    %rax,-0x80(%rbp)
    3a69:	48 89 55 88          	mov    %rdx,-0x78(%rbp)
    3a6d:	48 b8 35 36 35 37 35 	movabs $0x3935383537353635,%rax
    3a74:	38 35 39 
    3a77:	48 ba 36 30 36 31 36 	movabs $0x3336323631363036,%rdx
    3a7e:	32 36 33 
    3a81:	48 89 45 90          	mov    %rax,-0x70(%rbp)
    3a85:	48 89 55 98          	mov    %rdx,-0x68(%rbp)
    3a89:	48 b8 36 34 36 35 36 	movabs $0x3736363635363436,%rax
    3a90:	36 36 37 
    3a93:	48 ba 36 38 36 39 37 	movabs $0x3137303739363836,%rdx
    3a9a:	30 37 31 
    3a9d:	48 89 45 a0          	mov    %rax,-0x60(%rbp)
    3aa1:	48 89 55 a8          	mov    %rdx,-0x58(%rbp)
    3aa5:	48 b8 37 32 37 33 37 	movabs $0x3537343733373237,%rax
    3aac:	34 37 35 
    3aaf:	48 ba 37 36 37 37 37 	movabs $0x3937383737373637,%rdx
    3ab6:	38 37 39 
    3ab9:	48 89 45 b0          	mov    %rax,-0x50(%rbp)
    3abd:	48 89 55 b8          	mov    %rdx,-0x48(%rbp)
    3ac1:	48 b8 38 30 38 31 38 	movabs $0x3338323831383038,%rax
    3ac8:	32 38 33 
    3acb:	48 ba 38 34 38 35 38 	movabs $0x3738363835383438,%rdx
    3ad2:	36 38 37 
    3ad5:	48 89 45 c0          	mov    %rax,-0x40(%rbp)
    3ad9:	48 89 55 c8          	mov    %rdx,-0x38(%rbp)
    3add:	48 b8 38 38 38 39 39 	movabs $0x3139303939383838,%rax
    3ae4:	30 39 31 
    3ae7:	48 ba 39 32 39 33 39 	movabs $0x3539343933393239,%rdx
    3aee:	34 39 35 
    3af1:	48 89 45 d0          	mov    %rax,-0x30(%rbp)
    3af5:	48 89 55 d8          	mov    %rdx,-0x28(%rbp)
    3af9:	48 b8 32 39 33 39 34 	movabs $0x3935393439333932,%rax
    3b00:	39 35 39 
    3b03:	48 ba 36 39 37 39 38 	movabs $0x39393839373936,%rdx
    3b0a:	39 39 00 
    3b0d:	48 89 45 d9          	mov    %rax,-0x27(%rbp)
    3b11:	48 89 55 e1          	mov    %rdx,-0x1f(%rbp)
    3b15:	8b 85 04 ff ff ff    	mov    -0xfc(%rbp),%eax
    3b1b:	83 e8 01             	sub    $0x1,%eax
    3b1e:	89 85 14 ff ff ff    	mov    %eax,-0xec(%rbp)
    3b24:	e9 92 00 00 00       	jmp    3bbb <_ZNSt8__detail18__to_chars_10_implIjEEvPcjT_+0x267>
    3b29:	8b 8d 00 ff ff ff    	mov    -0x100(%rbp),%ecx
    3b2f:	89 c8                	mov    %ecx,%eax
    3b31:	48 69 c0 1f 85 eb 51 	imul   $0x51eb851f,%rax,%rax
    3b38:	48 c1 e8 20          	shr    $0x20,%rax
    3b3c:	c1 e8 05             	shr    $0x5,%eax
    3b3f:	6b d0 64             	imul   $0x64,%eax,%edx
    3b42:	89 c8                	mov    %ecx,%eax
    3b44:	29 d0                	sub    %edx,%eax
    3b46:	01 c0                	add    %eax,%eax
    3b48:	89 85 1c ff ff ff    	mov    %eax,-0xe4(%rbp)
    3b4e:	8b 85 00 ff ff ff    	mov    -0x100(%rbp),%eax
    3b54:	89 c0                	mov    %eax,%eax
    3b56:	48 69 c0 1f 85 eb 51 	imul   $0x51eb851f,%rax,%rax
    3b5d:	48 c1 e8 20          	shr    $0x20,%rax
    3b61:	c1 e8 05             	shr    $0x5,%eax
    3b64:	89 85 00 ff ff ff    	mov    %eax,-0x100(%rbp)
    3b6a:	8b 85 1c ff ff ff    	mov    -0xe4(%rbp),%eax
    3b70:	8d 48 01             	lea    0x1(%rax),%ecx
    3b73:	8b 95 14 ff ff ff    	mov    -0xec(%rbp),%edx
    3b79:	48 8b 85 08 ff ff ff 	mov    -0xf8(%rbp),%rax
    3b80:	48 01 c2             	add    %rax,%rdx
    3b83:	89 c8                	mov    %ecx,%eax
    3b85:	0f b6 84 05 20 ff ff 	movzbl -0xe0(%rbp,%rax,1),%eax
    3b8c:	ff 
    3b8d:	88 02                	mov    %al,(%rdx)
    3b8f:	8b 85 14 ff ff ff    	mov    -0xec(%rbp),%eax
    3b95:	83 e8 01             	sub    $0x1,%eax
    3b98:	89 c2                	mov    %eax,%edx
    3b9a:	48 8b 85 08 ff ff ff 	mov    -0xf8(%rbp),%rax
    3ba1:	48 01 c2             	add    %rax,%rdx
    3ba4:	8b 85 1c ff ff ff    	mov    -0xe4(%rbp),%eax
    3baa:	0f b6 84 05 20 ff ff 	movzbl -0xe0(%rbp,%rax,1),%eax
    3bb1:	ff 
    3bb2:	88 02                	mov    %al,(%rdx)
    3bb4:	83 ad 14 ff ff ff 02 	subl   $0x2,-0xec(%rbp)
    3bbb:	83 bd 00 ff ff ff 63 	cmpl   $0x63,-0x100(%rbp)
    3bc2:	0f 87 61 ff ff ff    	ja     3b29 <_ZNSt8__detail18__to_chars_10_implIjEEvPcjT_+0x1d5>
    3bc8:	83 bd 00 ff ff ff 09 	cmpl   $0x9,-0x100(%rbp)
    3bcf:	76 47                	jbe    3c18 <_ZNSt8__detail18__to_chars_10_implIjEEvPcjT_+0x2c4>
    3bd1:	8b 85 00 ff ff ff    	mov    -0x100(%rbp),%eax
    3bd7:	01 c0                	add    %eax,%eax
    3bd9:	89 85 18 ff ff ff    	mov    %eax,-0xe8(%rbp)
    3bdf:	8b 85 18 ff ff ff    	mov    -0xe8(%rbp),%eax
    3be5:	8d 48 01             	lea    0x1(%rax),%ecx
    3be8:	48 8b 85 08 ff ff ff 	mov    -0xf8(%rbp),%rax
    3bef:	48 8d 50 01          	lea    0x1(%rax),%rdx
    3bf3:	89 c8                	mov    %ecx,%eax
    3bf5:	0f b6 84 05 20 ff ff 	movzbl -0xe0(%rbp,%rax,1),%eax
    3bfc:	ff 
    3bfd:	88 02                	mov    %al,(%rdx)
    3bff:	8b 85 18 ff ff ff    	mov    -0xe8(%rbp),%eax
    3c05:	0f b6 94 05 20 ff ff 	movzbl -0xe0(%rbp,%rax,1),%edx
    3c0c:	ff 
    3c0d:	48 8b 85 08 ff ff ff 	mov    -0xf8(%rbp),%rax
    3c14:	88 10                	mov    %dl,(%rax)
    3c16:	eb 14                	jmp    3c2c <_ZNSt8__detail18__to_chars_10_implIjEEvPcjT_+0x2d8>
    3c18:	8b 85 00 ff ff ff    	mov    -0x100(%rbp),%eax
    3c1e:	83 c0 30             	add    $0x30,%eax
    3c21:	89 c2                	mov    %eax,%edx
    3c23:	48 8b 85 08 ff ff ff 	mov    -0xf8(%rbp),%rax
    3c2a:	88 10                	mov    %dl,(%rax)
    3c2c:	90                   	nop
    3c2d:	48 8b 45 f8          	mov    -0x8(%rbp),%rax
    3c31:	64 48 2b 04 25 28 00 	sub    %fs:0x28,%rax
    3c38:	00 00 
    3c3a:	74 05                	je     3c41 <_ZNSt8__detail18__to_chars_10_implIjEEvPcjT_+0x2ed>
    3c3c:	e8 ef e6 ff ff       	call   2330 <__stack_chk_fail@plt>
    3c41:	c9                   	leave
    3c42:	c3                   	ret

0000000000003c43 <_ZStplIcSt11char_traitsIcESaIcEENSt7__cxx1112basic_stringIT_T0_T1_EEPKS5_OS8_>:
    3c43:	f3 0f 1e fa          	endbr64
    3c47:	55                   	push   %rbp
    3c48:	48 89 e5             	mov    %rsp,%rbp
    3c4b:	48 83 ec 20          	sub    $0x20,%rsp
    3c4f:	48 89 7d f8          	mov    %rdi,-0x8(%rbp)
    3c53:	48 89 75 f0          	mov    %rsi,-0x10(%rbp)
    3c57:	48 89 55 e8          	mov    %rdx,-0x18(%rbp)
    3c5b:	48 8b 55 f0          	mov    -0x10(%rbp),%rdx
    3c5f:	48 8b 45 e8          	mov    -0x18(%rbp),%rax
    3c63:	be 00 00 00 00       	mov    $0x0,%esi
    3c68:	48 89 c7             	mov    %rax,%rdi
    3c6b:	e8 b0 e5 ff ff       	call   2220 <_ZNSt7__cxx1112basic_stringIcSt11char_traitsIcESaIcEE6insertEmPKc@plt>
    3c70:	48 89 c7             	mov    %rax,%rdi
    3c73:	e8 5d 10 00 00       	call   4cd5 <_ZSt4moveIRNSt7__cxx1112basic_stringIcSt11char_traitsIcESaIcEEEEONSt16remove_referenceIT_E4typeEOS8_>
    3c78:	48 89 c2             	mov    %rax,%rdx
    3c7b:	48 8b 45 f8          	mov    -0x8(%rbp),%rax
    3c7f:	48 89 d6             	mov    %rdx,%rsi
    3c82:	48 89 c7             	mov    %rax,%rdi
    3c85:	e8 e6 e5 ff ff       	call   2270 <_ZNSt7__cxx1112basic_stringIcSt11char_traitsIcESaIcEEC1EOS4_@plt>
    3c8a:	48 8b 45 f8          	mov    -0x8(%rbp),%rax
    3c8e:	c9                   	leave
    3c8f:	c3                   	ret

0000000000003c90 <_ZSt3maxImERKT_S2_S2_>:
    3c90:	f3 0f 1e fa          	endbr64
    3c94:	55                   	push   %rbp
    3c95:	48 89 e5             	mov    %rsp,%rbp
    3c98:	48 89 7d f8          	mov    %rdi,-0x8(%rbp)
    3c9c:	48 89 75 f0          	mov    %rsi,-0x10(%rbp)
    3ca0:	48 8b 45 f8          	mov    -0x8(%rbp),%rax
    3ca4:	48 8b 10             	mov    (%rax),%rdx
    3ca7:	48 8b 45 f0          	mov    -0x10(%rbp),%rax
    3cab:	48 8b 00             	mov    (%rax),%rax
    3cae:	48 39 c2             	cmp    %rax,%rdx
    3cb1:	73 06                	jae    3cb9 <_ZSt3maxImERKT_S2_S2_+0x29>
    3cb3:	48 8b 45 f0          	mov    -0x10(%rbp),%rax
    3cb7:	eb 04                	jmp    3cbd <_ZSt3maxImERKT_S2_S2_+0x2d>
    3cb9:	48 8b 45 f8          	mov    -0x8(%rbp),%rax
    3cbd:	5d                   	pop    %rbp
    3cbe:	c3                   	ret
    3cbf:	90                   	nop

0000000000003cc0 <_ZN5Eigen8symbolic10SymbolExprINS_8internal17symbolic_last_tagEEC1Ev>:
    3cc0:	f3 0f 1e fa          	endbr64
    3cc4:	55                   	push   %rbp
    3cc5:	48 89 e5             	mov    %rsp,%rbp
    3cc8:	48 89 7d f8          	mov    %rdi,-0x8(%rbp)
    3ccc:	90                   	nop
    3ccd:	5d                   	pop    %rbp
    3cce:	c3                   	ret
    3ccf:	90                   	nop

0000000000003cd0 <_ZN5Eigen8internal8FixedIntILi1EEC1Ev>:
    3cd0:	f3 0f 1e fa          	endbr64
    3cd4:	55                   	push   %rbp
    3cd5:	48 89 e5             	mov    %rsp,%rbp
    3cd8:	48 89 7d f8          	mov    %rdi,-0x8(%rbp)
    3cdc:	90                   	nop
    3cdd:	5d                   	pop    %rbp
    3cde:	c3                   	ret
    3cdf:	90                   	nop

0000000000003ce0 <_ZNK5Eigen8internal8FixedIntILi1EEclEv>:
    3ce0:	f3 0f 1e fa          	endbr64
    3ce4:	55                   	push   %rbp
    3ce5:	48 89 e5             	mov    %rsp,%rbp
    3ce8:	48 89 7d f8          	mov    %rdi,-0x8(%rbp)
    3cec:	90                   	nop
    3ced:	5d                   	pop    %rbp
    3cee:	c3                   	ret
    3cef:	90                   	nop

0000000000003cf0 <_ZNK5Eigen8symbolic8BaseExprINS0_10SymbolExprINS_8internal17symbolic_last_tagEEEEplILi1EEENS0_7AddExprIS5_NS0_9ValueExprINS3_8FixedIntIXT_EEEEEEESB_>:
    3cf0:	f3 0f 1e fa          	endbr64
    3cf4:	55                   	push   %rbp
    3cf5:	48 89 e5             	mov    %rsp,%rbp
    3cf8:	48 83 ec 20          	sub    $0x20,%rsp
    3cfc:	48 89 7d e8          	mov    %rdi,-0x18(%rbp)
    3d00:	64 48 8b 04 25 28 00 	mov    %fs:0x28,%rax
    3d07:	00 00 
    3d09:	48 89 45 f8          	mov    %rax,-0x8(%rbp)
    3d0d:	31 c0                	xor    %eax,%eax
    3d0f:	48 8d 45 f5          	lea    -0xb(%rbp),%rax
    3d13:	48 89 c7             	mov    %rax,%rdi
    3d16:	e8 03 10 00 00       	call   4d1e <_ZN5Eigen8symbolic9ValueExprINS_8internal8FixedIntILi1EEEEC1Ev>
    3d1b:	48 8b 45 e8          	mov    -0x18(%rbp),%rax
    3d1f:	48 89 c7             	mov    %rax,%rdi
    3d22:	e8 e5 0f 00 00       	call   4d0c <_ZNK5Eigen8symbolic8BaseExprINS0_10SymbolExprINS_8internal17symbolic_last_tagEEEE7derivedEv>
    3d27:	48 89 c1             	mov    %rax,%rcx
    3d2a:	48 8d 55 f5          	lea    -0xb(%rbp),%rdx
    3d2e:	48 8d 45 f6          	lea    -0xa(%rbp),%rax
    3d32:	48 89 ce             	mov    %rcx,%rsi
    3d35:	48 89 c7             	mov    %rax,%rdi
    3d38:	e8 f1 0f 00 00       	call   4d2e <_ZN5Eigen8symbolic7AddExprINS0_10SymbolExprINS_8internal17symbolic_last_tagEEENS0_9ValueExprINS3_8FixedIntILi1EEEEEEC1ERKS5_RKS9_>
    3d3d:	90                   	nop
    3d3e:	48 8b 45 f8          	mov    -0x8(%rbp),%rax
    3d42:	64 48 2b 04 25 28 00 	sub    %fs:0x28,%rax
    3d49:	00 00 
    3d4b:	74 05                	je     3d52 <_ZNK5Eigen8symbolic8BaseExprINS0_10SymbolExprINS_8internal17symbolic_last_tagEEEEplILi1EEENS0_7AddExprIS5_NS0_9ValueExprINS3_8FixedIntIXT_EEEEEEESB_+0x62>
    3d4d:	e8 de e5 ff ff       	call   2330 <__stack_chk_fail@plt>
    3d52:	c9                   	leave
    3d53:	c3                   	ret

0000000000003d54 <_ZNSt12_Vector_baseI6bipoloSaIS0_EE12_Vector_implC1Ev>:
    3d54:	f3 0f 1e fa          	endbr64
    3d58:	55                   	push   %rbp
    3d59:	48 89 e5             	mov    %rsp,%rbp
    3d5c:	48 83 ec 20          	sub    $0x20,%rsp
    3d60:	48 89 7d e8          	mov    %rdi,-0x18(%rbp)
    3d64:	48 8b 45 e8          	mov    -0x18(%rbp),%rax
    3d68:	48 89 45 f0          	mov    %rax,-0x10(%rbp)
    3d6c:	48 8b 45 f0          	mov    -0x10(%rbp),%rax
    3d70:	48 89 45 f8          	mov    %rax,-0x8(%rbp)
    3d74:	90                   	nop
    3d75:	90                   	nop
    3d76:	48 8b 45 e8          	mov    -0x18(%rbp),%rax
    3d7a:	48 89 c7             	mov    %rax,%rdi
    3d7d:	e8 c4 0f 00 00       	call   4d46 <_ZNSt12_Vector_baseI6bipoloSaIS0_EE17_Vector_impl_dataC1Ev>
    3d82:	90                   	nop
    3d83:	c9                   	leave
    3d84:	c3                   	ret
    3d85:	90                   	nop

0000000000003d86 <_ZNSt12_Vector_baseI6bipoloSaIS0_EED1Ev>:
    3d86:	f3 0f 1e fa          	endbr64
    3d8a:	55                   	push   %rbp
    3d8b:	48 89 e5             	mov    %rsp,%rbp
    3d8e:	48 83 ec 10          	sub    $0x10,%rsp
    3d92:	48 89 7d f8          	mov    %rdi,-0x8(%rbp)
    3d96:	48 8b 45 f8          	mov    -0x8(%rbp),%rax
    3d9a:	48 8b 50 10          	mov    0x10(%rax),%rdx
    3d9e:	48 8b 45 f8          	mov    -0x8(%rbp),%rax
    3da2:	48 8b 00             	mov    (%rax),%rax
    3da5:	48 29 c2             	sub    %rax,%rdx
    3da8:	48 c1 fa 03          	sar    $0x3,%rdx
    3dac:	48 b8 b7 6d db b6 6d 	movabs $0x6db6db6db6db6db7,%rax
    3db3:	db b6 6d 
    3db6:	48 0f af c2          	imul   %rdx,%rax
    3dba:	48 89 c2             	mov    %rax,%rdx
    3dbd:	48 8b 45 f8          	mov    -0x8(%rbp),%rax
    3dc1:	48 8b 08             	mov    (%rax),%rcx
    3dc4:	48 8b 45 f8          	mov    -0x8(%rbp),%rax
    3dc8:	48 89 ce             	mov    %rcx,%rsi
    3dcb:	48 89 c7             	mov    %rax,%rdi
    3dce:	e8 b5 0f 00 00       	call   4d88 <_ZNSt12_Vector_baseI6bipoloSaIS0_EE13_M_deallocateEPS0_m>
    3dd3:	48 8b 45 f8          	mov    -0x8(%rbp),%rax
    3dd7:	48 89 c7             	mov    %rax,%rdi
    3dda:	e8 81 f3 ff ff       	call   3160 <_ZNSt12_Vector_baseI6bipoloSaIS0_EE12_Vector_implD1Ev>
    3ddf:	90                   	nop
    3de0:	c9                   	leave
    3de1:	c3                   	ret

0000000000003de2 <_ZNSt6vectorI6bipoloSaIS0_EED1Ev>:
    3de2:	f3 0f 1e fa          	endbr64
    3de6:	55                   	push   %rbp
    3de7:	48 89 e5             	mov    %rsp,%rbp
    3dea:	48 83 ec 30          	sub    $0x30,%rsp
    3dee:	48 89 7d d8          	mov    %rdi,-0x28(%rbp)
    3df2:	48 8b 45 d8          	mov    -0x28(%rbp),%rax
    3df6:	48 89 c7             	mov    %rax,%rdi
    3df9:	e8 dc 0f 00 00       	call   4dda <_ZNSt12_Vector_baseI6bipoloSaIS0_EE19_M_get_Tp_allocatorEv>
    3dfe:	48 8b 55 d8          	mov    -0x28(%rbp),%rdx
    3e02:	48 8b 52 08          	mov    0x8(%rdx),%rdx
    3e06:	48 8b 4d d8          	mov    -0x28(%rbp),%rcx
    3e0a:	48 8b 09             	mov    (%rcx),%rcx
    3e0d:	48 89 4d e8          	mov    %rcx,-0x18(%rbp)
    3e11:	48 89 55 f0          	mov    %rdx,-0x10(%rbp)
    3e15:	48 89 45 f8          	mov    %rax,-0x8(%rbp)
    3e19:	48 8b 55 f0          	mov    -0x10(%rbp),%rdx
    3e1d:	48 8b 45 e8          	mov    -0x18(%rbp),%rax
    3e21:	48 89 d6             	mov    %rdx,%rsi
    3e24:	48 89 c7             	mov    %rax,%rdi
    3e27:	e8 8c 26 00 00       	call   64b8 <_ZSt8_DestroyIP6bipoloEvT_S2_>
    3e2c:	90                   	nop
    3e2d:	48 8b 45 d8          	mov    -0x28(%rbp),%rax
    3e31:	48 89 c7             	mov    %rax,%rdi
    3e34:	e8 4d ff ff ff       	call   3d86 <_ZNSt12_Vector_baseI6bipoloSaIS0_EED1Ev>
    3e39:	90                   	nop
    3e3a:	c9                   	leave
    3e3b:	c3                   	ret

0000000000003e3c <_ZNSt6vectorI6bipoloSaIS0_EE12emplace_backIJRiRKNSt7__cxx1112basic_stringIcSt11char_traitsIcESaIcEEER4TipoRfS4_S4_EEERS0_DpOT_>:
    3e3c:	f3 0f 1e fa          	endbr64
    3e40:	55                   	push   %rbp
    3e41:	48 89 e5             	mov    %rsp,%rbp
    3e44:	41 57                	push   %r15
    3e46:	41 56                	push   %r14
    3e48:	41 55                	push   %r13
    3e4a:	41 54                	push   %r12
    3e4c:	53                   	push   %rbx
    3e4d:	48 81 ec c8 00 00 00 	sub    $0xc8,%rsp
    3e54:	48 89 bd 48 ff ff ff 	mov    %rdi,-0xb8(%rbp)
    3e5b:	48 89 b5 40 ff ff ff 	mov    %rsi,-0xc0(%rbp)
    3e62:	48 89 95 38 ff ff ff 	mov    %rdx,-0xc8(%rbp)
    3e69:	48 89 8d 30 ff ff ff 	mov    %rcx,-0xd0(%rbp)
    3e70:	4c 89 85 28 ff ff ff 	mov    %r8,-0xd8(%rbp)
    3e77:	4c 89 8d 20 ff ff ff 	mov    %r9,-0xe0(%rbp)
    3e7e:	48 8b 85 48 ff ff ff 	mov    -0xb8(%rbp),%rax
    3e85:	48 8b 50 08          	mov    0x8(%rax),%rdx
    3e89:	48 8b 85 48 ff ff ff 	mov    -0xb8(%rbp),%rax
    3e90:	48 8b 40 10          	mov    0x10(%rax),%rax
    3e94:	48 39 c2             	cmp    %rax,%rdx
    3e97:	0f 84 23 02 00 00    	je     40c0 <_ZNSt6vectorI6bipoloSaIS0_EE12emplace_backIJRiRKNSt7__cxx1112basic_stringIcSt11char_traitsIcESaIcEEER4TipoRfS4_S4_EEERS0_DpOT_+0x284>
    3e9d:	48 8b 45 10          	mov    0x10(%rbp),%rax
    3ea1:	48 89 c7             	mov    %rax,%rdi
    3ea4:	e8 43 0f 00 00       	call   4dec <_ZSt7forwardIRiEOT_RNSt16remove_referenceIS1_E4typeE>
    3ea9:	48 89 c3             	mov    %rax,%rbx
    3eac:	48 8b 85 20 ff ff ff 	mov    -0xe0(%rbp),%rax
    3eb3:	48 89 c7             	mov    %rax,%rdi
    3eb6:	e8 31 0f 00 00       	call   4dec <_ZSt7forwardIRiEOT_RNSt16remove_referenceIS1_E4typeE>
    3ebb:	49 89 c4             	mov    %rax,%r12
    3ebe:	48 8b 85 28 ff ff ff 	mov    -0xd8(%rbp),%rax
    3ec5:	48 89 c7             	mov    %rax,%rdi
    3ec8:	e8 55 0f 00 00       	call   4e22 <_ZSt7forwardIRfEOT_RNSt16remove_referenceIS1_E4typeE>
    3ecd:	49 89 c5             	mov    %rax,%r13
    3ed0:	48 8b 85 30 ff ff ff 	mov    -0xd0(%rbp),%rax
    3ed7:	48 89 c7             	mov    %rax,%rdi
    3eda:	e8 31 0f 00 00       	call   4e10 <_ZSt7forwardIR4TipoEOT_RNSt16remove_referenceIS2_E4typeE>
    3edf:	49 89 c6             	mov    %rax,%r14
    3ee2:	48 8b 85 38 ff ff ff 	mov    -0xc8(%rbp),%rax
    3ee9:	48 89 c7             	mov    %rax,%rdi
    3eec:	e8 0d 0f 00 00       	call   4dfe <_ZSt7forwardIRKNSt7__cxx1112basic_stringIcSt11char_traitsIcESaIcEEEEOT_RNSt16remove_referenceIS8_E4typeE>
    3ef1:	49 89 c7             	mov    %rax,%r15
    3ef4:	48 8b 85 40 ff ff ff 	mov    -0xc0(%rbp),%rax
    3efb:	48 89 c7             	mov    %rax,%rdi
    3efe:	e8 e9 0e 00 00       	call   4dec <_ZSt7forwardIRiEOT_RNSt16remove_referenceIS1_E4typeE>
    3f03:	48 8b 95 48 ff ff ff 	mov    -0xb8(%rbp),%rdx
    3f0a:	48 8b 52 08          	mov    0x8(%rdx),%rdx
    3f0e:	48 8b 8d 48 ff ff ff 	mov    -0xb8(%rbp),%rcx
    3f15:	48 89 8d 50 ff ff ff 	mov    %rcx,-0xb0(%rbp)
    3f1c:	48 89 95 58 ff ff ff 	mov    %rdx,-0xa8(%rbp)
    3f23:	48 89 85 60 ff ff ff 	mov    %rax,-0xa0(%rbp)
    3f2a:	4c 89 bd 68 ff ff ff 	mov    %r15,-0x98(%rbp)
    3f31:	4c 89 b5 70 ff ff ff 	mov    %r14,-0x90(%rbp)
    3f38:	4c 89 ad 78 ff ff ff 	mov    %r13,-0x88(%rbp)
    3f3f:	4c 89 65 80          	mov    %r12,-0x80(%rbp)
    3f43:	48 89 5d 88          	mov    %rbx,-0x78(%rbp)
    3f47:	48 8b 45 88          	mov    -0x78(%rbp),%rax
    3f4b:	48 89 c7             	mov    %rax,%rdi
    3f4e:	e8 99 0e 00 00       	call   4dec <_ZSt7forwardIRiEOT_RNSt16remove_referenceIS1_E4typeE>
    3f53:	48 89 c3             	mov    %rax,%rbx
    3f56:	48 8b 45 80          	mov    -0x80(%rbp),%rax
    3f5a:	48 89 c7             	mov    %rax,%rdi
    3f5d:	e8 8a 0e 00 00       	call   4dec <_ZSt7forwardIRiEOT_RNSt16remove_referenceIS1_E4typeE>
    3f62:	49 89 c4             	mov    %rax,%r12
    3f65:	48 8b 85 78 ff ff ff 	mov    -0x88(%rbp),%rax
    3f6c:	48 89 c7             	mov    %rax,%rdi
    3f6f:	e8 ae 0e 00 00       	call   4e22 <_ZSt7forwardIRfEOT_RNSt16remove_referenceIS1_E4typeE>
    3f74:	49 89 c5             	mov    %rax,%r13
    3f77:	48 8b 85 70 ff ff ff 	mov    -0x90(%rbp),%rax
    3f7e:	48 89 c7             	mov    %rax,%rdi
    3f81:	e8 8a 0e 00 00       	call   4e10 <_ZSt7forwardIR4TipoEOT_RNSt16remove_referenceIS2_E4typeE>
    3f86:	49 89 c6             	mov    %rax,%r14
    3f89:	48 8b 85 68 ff ff ff 	mov    -0x98(%rbp),%rax
    3f90:	48 89 c7             	mov    %rax,%rdi
    3f93:	e8 66 0e 00 00       	call   4dfe <_ZSt7forwardIRKNSt7__cxx1112basic_stringIcSt11char_traitsIcESaIcEEEEOT_RNSt16remove_referenceIS8_E4typeE>
    3f98:	49 89 c7             	mov    %rax,%r15
    3f9b:	48 8b 85 60 ff ff ff 	mov    -0xa0(%rbp),%rax
    3fa2:	48 89 c7             	mov    %rax,%rdi
    3fa5:	e8 42 0e 00 00       	call   4dec <_ZSt7forwardIRiEOT_RNSt16remove_referenceIS1_E4typeE>
    3faa:	48 8b 95 50 ff ff ff 	mov    -0xb0(%rbp),%rdx
    3fb1:	48 89 55 90          	mov    %rdx,-0x70(%rbp)
    3fb5:	48 8b 95 58 ff ff ff 	mov    -0xa8(%rbp),%rdx
    3fbc:	48 89 55 98          	mov    %rdx,-0x68(%rbp)
    3fc0:	48 89 45 a0          	mov    %rax,-0x60(%rbp)
    3fc4:	4c 89 7d a8          	mov    %r15,-0x58(%rbp)
    3fc8:	4c 89 75 b0          	mov    %r14,-0x50(%rbp)
    3fcc:	4c 89 6d b8          	mov    %r13,-0x48(%rbp)
    3fd0:	4c 89 65 c0          	mov    %r12,-0x40(%rbp)
    3fd4:	48 89 5d c8          	mov    %rbx,-0x38(%rbp)
    3fd8:	48 8b 5d 98          	mov    -0x68(%rbp),%rbx
    3fdc:	48 89 de             	mov    %rbx,%rsi
    3fdf:	bf 38 00 00 00       	mov    $0x38,%edi
    3fe4:	e8 41 ef ff ff       	call   2f2a <_ZnwmPv>
    3fe9:	49 89 c4             	mov    %rax,%r12
    3fec:	c6 85 18 ff ff ff 01 	movb   $0x1,-0xe8(%rbp)
    3ff3:	48 8b 45 c8          	mov    -0x38(%rbp),%rax
    3ff7:	48 89 c7             	mov    %rax,%rdi
    3ffa:	e8 ed 0d 00 00       	call   4dec <_ZSt7forwardIRiEOT_RNSt16remove_referenceIS1_E4typeE>
    3fff:	8b 00                	mov    (%rax),%eax
    4001:	89 85 14 ff ff ff    	mov    %eax,-0xec(%rbp)
    4007:	48 8b 45 c0          	mov    -0x40(%rbp),%rax
    400b:	48 89 c7             	mov    %rax,%rdi
    400e:	e8 d9 0d 00 00       	call   4dec <_ZSt7forwardIRiEOT_RNSt16remove_referenceIS1_E4typeE>
    4013:	8b 08                	mov    (%rax),%ecx
    4015:	89 8d 10 ff ff ff    	mov    %ecx,-0xf0(%rbp)
    401b:	48 8b 45 b8          	mov    -0x48(%rbp),%rax
    401f:	48 89 c7             	mov    %rax,%rdi
    4022:	e8 fb 0d 00 00       	call   4e22 <_ZSt7forwardIRfEOT_RNSt16remove_referenceIS1_E4typeE>
    4027:	44 8b 30             	mov    (%rax),%r14d
    402a:	48 8b 45 b0          	mov    -0x50(%rbp),%rax
    402e:	48 89 c7             	mov    %rax,%rdi
    4031:	e8 da 0d 00 00       	call   4e10 <_ZSt7forwardIR4TipoEOT_RNSt16remove_referenceIS2_E4typeE>
    4036:	44 8b 28             	mov    (%rax),%r13d
    4039:	48 8b 45 a8          	mov    -0x58(%rbp),%rax
    403d:	48 89 c7             	mov    %rax,%rdi
    4040:	e8 b9 0d 00 00       	call   4dfe <_ZSt7forwardIRKNSt7__cxx1112basic_stringIcSt11char_traitsIcESaIcEEEEOT_RNSt16remove_referenceIS8_E4typeE>
    4045:	49 89 c7             	mov    %rax,%r15
    4048:	48 8b 45 a0          	mov    -0x60(%rbp),%rax
    404c:	48 89 c7             	mov    %rax,%rdi
    404f:	e8 98 0d 00 00       	call   4dec <_ZSt7forwardIRiEOT_RNSt16remove_referenceIS1_E4typeE>
    4054:	8b 00                	mov    (%rax),%eax
    4056:	44 8b 8d 14 ff ff ff 	mov    -0xec(%rbp),%r9d
    405d:	44 8b 85 10 ff ff ff 	mov    -0xf0(%rbp),%r8d
    4064:	66 41 0f 6e c6       	movd   %r14d,%xmm0
    4069:	44 89 e9             	mov    %r13d,%ecx
    406c:	4c 89 fa             	mov    %r15,%rdx
    406f:	89 c6                	mov    %eax,%esi
    4071:	4c 89 e7             	mov    %r12,%rdi
    4074:	e8 71 f0 ff ff       	call   30ea <_ZN6bipoloC1EiRKNSt7__cxx1112basic_stringIcSt11char_traitsIcESaIcEEE4Tipofii>
    4079:	90                   	nop
    407a:	90                   	nop
    407b:	48 8b 85 48 ff ff ff 	mov    -0xb8(%rbp),%rax
    4082:	48 8b 40 08          	mov    0x8(%rax),%rax
    4086:	48 8d 50 38          	lea    0x38(%rax),%rdx
    408a:	48 8b 85 48 ff ff ff 	mov    -0xb8(%rbp),%rax
    4091:	48 89 50 08          	mov    %rdx,0x8(%rax)
    4095:	e9 cb 00 00 00       	jmp    4165 <_ZNSt6vectorI6bipoloSaIS0_EE12emplace_backIJRiRKNSt7__cxx1112basic_stringIcSt11char_traitsIcESaIcEEER4TipoRfS4_S4_EEERS0_DpOT_+0x329>
    409a:	f3 0f 1e fa          	endbr64
    409e:	49 89 c5             	mov    %rax,%r13
    40a1:	80 bd 18 ff ff ff 00 	cmpb   $0x0,-0xe8(%rbp)
    40a8:	74 0b                	je     40b5 <_ZNSt6vectorI6bipoloSaIS0_EE12emplace_backIJRiRKNSt7__cxx1112basic_stringIcSt11char_traitsIcESaIcEEER4TipoRfS4_S4_EEERS0_DpOT_+0x279>
    40aa:	48 89 de             	mov    %rbx,%rsi
    40ad:	4c 89 e7             	mov    %r12,%rdi
    40b0:	e8 8b ee ff ff       	call   2f40 <_ZdlPvS_>
    40b5:	4c 89 e8             	mov    %r13,%rax
    40b8:	48 89 c7             	mov    %rax,%rdi
    40bb:	e8 e0 e2 ff ff       	call   23a0 <_Unwind_Resume@plt>
    40c0:	48 8b 45 10          	mov    0x10(%rbp),%rax
    40c4:	48 89 c7             	mov    %rax,%rdi
    40c7:	e8 20 0d 00 00       	call   4dec <_ZSt7forwardIRiEOT_RNSt16remove_referenceIS1_E4typeE>
    40cc:	49 89 c4             	mov    %rax,%r12
    40cf:	48 8b 85 20 ff ff ff 	mov    -0xe0(%rbp),%rax
    40d6:	48 89 c7             	mov    %rax,%rdi
    40d9:	e8 0e 0d 00 00       	call   4dec <_ZSt7forwardIRiEOT_RNSt16remove_referenceIS1_E4typeE>
    40de:	48 89 c3             	mov    %rax,%rbx
    40e1:	48 8b 85 28 ff ff ff 	mov    -0xd8(%rbp),%rax
    40e8:	48 89 c7             	mov    %rax,%rdi
    40eb:	e8 32 0d 00 00       	call   4e22 <_ZSt7forwardIRfEOT_RNSt16remove_referenceIS1_E4typeE>
    40f0:	48 89 85 18 ff ff ff 	mov    %rax,-0xe8(%rbp)
    40f7:	48 8b 85 30 ff ff ff 	mov    -0xd0(%rbp),%rax
    40fe:	48 89 c7             	mov    %rax,%rdi
    4101:	e8 0a 0d 00 00       	call   4e10 <_ZSt7forwardIR4TipoEOT_RNSt16remove_referenceIS2_E4typeE>
    4106:	49 89 c7             	mov    %rax,%r15
    4109:	48 8b 85 38 ff ff ff 	mov    -0xc8(%rbp),%rax
    4110:	48 89 c7             	mov    %rax,%rdi
    4113:	e8 e6 0c 00 00       	call   4dfe <_ZSt7forwardIRKNSt7__cxx1112basic_stringIcSt11char_traitsIcESaIcEEEEOT_RNSt16remove_referenceIS8_E4typeE>
    4118:	49 89 c6             	mov    %rax,%r14
    411b:	48 8b 85 40 ff ff ff 	mov    -0xc0(%rbp),%rax
    4122:	48 89 c7             	mov    %rax,%rdi
    4125:	e8 c2 0c 00 00       	call   4dec <_ZSt7forwardIRiEOT_RNSt16remove_referenceIS1_E4typeE>
    412a:	49 89 c5             	mov    %rax,%r13
    412d:	48 8b 85 48 ff ff ff 	mov    -0xb8(%rbp),%rax
    4134:	48 89 c7             	mov    %rax,%rdi
    4137:	e8 c0 01 00 00       	call   42fc <_ZNSt6vectorI6bipoloSaIS0_EE3endEv>
    413c:	48 89 c6             	mov    %rax,%rsi
    413f:	48 8b 85 48 ff ff ff 	mov    -0xb8(%rbp),%rax
    4146:	41 54                	push   %r12
    4148:	53                   	push   %rbx
    4149:	4c 8b 8d 18 ff ff ff 	mov    -0xe8(%rbp),%r9
    4150:	4d 89 f8             	mov    %r15,%r8
    4153:	4c 89 f1             	mov    %r14,%rcx
    4156:	4c 89 ea             	mov    %r13,%rdx
    4159:	48 89 c7             	mov    %rax,%rdi
    415c:	e8 d3 0c 00 00       	call   4e34 <_ZNSt6vectorI6bipoloSaIS0_EE17_M_realloc_insertIJRiRKNSt7__cxx1112basic_stringIcSt11char_traitsIcESaIcEEER4TipoRfS4_S4_EEEvN9__gnu_cxx17__normal_iteratorIPS0_S2_EEDpOT_>
    4161:	48 83 c4 10          	add    $0x10,%rsp
    4165:	48 8b 85 48 ff ff ff 	mov    -0xb8(%rbp),%rax
    416c:	48 89 c7             	mov    %rax,%rdi
    416f:	e8 74 12 00 00       	call   53e8 <_ZNSt6vectorI6bipoloSaIS0_EE4backEv>
    4174:	48 8d 65 d8          	lea    -0x28(%rbp),%rsp
    4178:	5b                   	pop    %rbx
    4179:	41 5c                	pop    %r12
    417b:	41 5d                	pop    %r13
    417d:	41 5e                	pop    %r14
    417f:	41 5f                	pop    %r15
    4181:	5d                   	pop    %rbp
    4182:	c3                   	ret
    4183:	90                   	nop

0000000000004184 <_ZNSt6vectorI6bipoloSaIS0_EE12emplace_backIJRS0_EEES4_DpOT_>:
    4184:	f3 0f 1e fa          	endbr64
    4188:	55                   	push   %rbp
    4189:	48 89 e5             	mov    %rsp,%rbp
    418c:	41 56                	push   %r14
    418e:	41 55                	push   %r13
    4190:	41 54                	push   %r12
    4192:	53                   	push   %rbx
    4193:	48 83 ec 40          	sub    $0x40,%rsp
    4197:	48 89 7d a8          	mov    %rdi,-0x58(%rbp)
    419b:	48 89 75 a0          	mov    %rsi,-0x60(%rbp)
    419f:	48 8b 45 a8          	mov    -0x58(%rbp),%rax
    41a3:	48 8b 50 08          	mov    0x8(%rax),%rdx
    41a7:	48 8b 45 a8          	mov    -0x58(%rbp),%rax
    41ab:	48 8b 40 10          	mov    0x10(%rax),%rax
    41af:	48 39 c2             	cmp    %rax,%rdx
    41b2:	0f 84 af 00 00 00    	je     4267 <_ZNSt6vectorI6bipoloSaIS0_EE12emplace_backIJRS0_EEES4_DpOT_+0xe3>
    41b8:	48 8b 45 a0          	mov    -0x60(%rbp),%rax
    41bc:	48 89 c7             	mov    %rax,%rdi
    41bf:	e8 8a 12 00 00       	call   544e <_ZSt7forwardIR6bipoloEOT_RNSt16remove_referenceIS2_E4typeE>
    41c4:	48 8b 55 a8          	mov    -0x58(%rbp),%rdx
    41c8:	48 8b 52 08          	mov    0x8(%rdx),%rdx
    41cc:	48 8b 4d a8          	mov    -0x58(%rbp),%rcx
    41d0:	48 89 4d b0          	mov    %rcx,-0x50(%rbp)
    41d4:	48 89 55 b8          	mov    %rdx,-0x48(%rbp)
    41d8:	48 89 45 c0          	mov    %rax,-0x40(%rbp)
    41dc:	48 8b 45 c0          	mov    -0x40(%rbp),%rax
    41e0:	48 89 c7             	mov    %rax,%rdi
    41e3:	e8 66 12 00 00       	call   544e <_ZSt7forwardIR6bipoloEOT_RNSt16remove_referenceIS2_E4typeE>
    41e8:	48 8b 55 b0          	mov    -0x50(%rbp),%rdx
    41ec:	48 89 55 c8          	mov    %rdx,-0x38(%rbp)
    41f0:	48 8b 55 b8          	mov    -0x48(%rbp),%rdx
    41f4:	48 89 55 d0          	mov    %rdx,-0x30(%rbp)
    41f8:	48 89 45 d8          	mov    %rax,-0x28(%rbp)
    41fc:	48 8b 5d d0          	mov    -0x30(%rbp),%rbx
    4200:	48 89 de             	mov    %rbx,%rsi
    4203:	bf 38 00 00 00       	mov    $0x38,%edi
    4208:	e8 1d ed ff ff       	call   2f2a <_ZnwmPv>
    420d:	49 89 c4             	mov    %rax,%r12
    4210:	41 be 01 00 00 00    	mov    $0x1,%r14d
    4216:	48 8b 45 d8          	mov    -0x28(%rbp),%rax
    421a:	48 89 c7             	mov    %rax,%rdi
    421d:	e8 2c 12 00 00       	call   544e <_ZSt7forwardIR6bipoloEOT_RNSt16remove_referenceIS2_E4typeE>
    4222:	48 89 c6             	mov    %rax,%rsi
    4225:	4c 89 e7             	mov    %r12,%rdi
    4228:	e8 b5 f0 ff ff       	call   32e2 <_ZN6bipoloC1ERKS_>
    422d:	90                   	nop
    422e:	90                   	nop
    422f:	48 8b 45 a8          	mov    -0x58(%rbp),%rax
    4233:	48 8b 40 08          	mov    0x8(%rax),%rax
    4237:	48 8d 50 38          	lea    0x38(%rax),%rdx
    423b:	48 8b 45 a8          	mov    -0x58(%rbp),%rax
    423f:	48 89 50 08          	mov    %rdx,0x8(%rax)
    4243:	eb 52                	jmp    4297 <_ZNSt6vectorI6bipoloSaIS0_EE12emplace_backIJRS0_EEES4_DpOT_+0x113>
    4245:	f3 0f 1e fa          	endbr64
    4249:	49 89 c5             	mov    %rax,%r13
    424c:	45 84 f6             	test   %r14b,%r14b
    424f:	74 0b                	je     425c <_ZNSt6vectorI6bipoloSaIS0_EE12emplace_backIJRS0_EEES4_DpOT_+0xd8>
    4251:	48 89 de             	mov    %rbx,%rsi
    4254:	4c 89 e7             	mov    %r12,%rdi
    4257:	e8 e4 ec ff ff       	call   2f40 <_ZdlPvS_>
    425c:	4c 89 e8             	mov    %r13,%rax
    425f:	48 89 c7             	mov    %rax,%rdi
    4262:	e8 39 e1 ff ff       	call   23a0 <_Unwind_Resume@plt>
    4267:	48 8b 45 a0          	mov    -0x60(%rbp),%rax
    426b:	48 89 c7             	mov    %rax,%rdi
    426e:	e8 db 11 00 00       	call   544e <_ZSt7forwardIR6bipoloEOT_RNSt16remove_referenceIS2_E4typeE>
    4273:	48 89 c3             	mov    %rax,%rbx
    4276:	48 8b 45 a8          	mov    -0x58(%rbp),%rax
    427a:	48 89 c7             	mov    %rax,%rdi
    427d:	e8 7a 00 00 00       	call   42fc <_ZNSt6vectorI6bipoloSaIS0_EE3endEv>
    4282:	48 89 c1             	mov    %rax,%rcx
    4285:	48 8b 45 a8          	mov    -0x58(%rbp),%rax
    4289:	48 89 da             	mov    %rbx,%rdx
    428c:	48 89 ce             	mov    %rcx,%rsi
    428f:	48 89 c7             	mov    %rax,%rdi
    4292:	e8 c9 11 00 00       	call   5460 <_ZNSt6vectorI6bipoloSaIS0_EE17_M_realloc_insertIJRS0_EEEvN9__gnu_cxx17__normal_iteratorIPS0_S2_EEDpOT_>
    4297:	48 8b 45 a8          	mov    -0x58(%rbp),%rax
    429b:	48 89 c7             	mov    %rax,%rdi
    429e:	e8 45 11 00 00       	call   53e8 <_ZNSt6vectorI6bipoloSaIS0_EE4backEv>
    42a3:	48 83 c4 40          	add    $0x40,%rsp
    42a7:	5b                   	pop    %rbx
    42a8:	41 5c                	pop    %r12
    42aa:	41 5d                	pop    %r13
    42ac:	41 5e                	pop    %r14
    42ae:	5d                   	pop    %rbp
    42af:	c3                   	ret

00000000000042b0 <_ZNSt6vectorI6bipoloSaIS0_EE5beginEv>:
    42b0:	f3 0f 1e fa          	endbr64
    42b4:	55                   	push   %rbp
    42b5:	48 89 e5             	mov    %rsp,%rbp
    42b8:	48 83 ec 20          	sub    $0x20,%rsp
    42bc:	48 89 7d e8          	mov    %rdi,-0x18(%rbp)
    42c0:	64 48 8b 04 25 28 00 	mov    %fs:0x28,%rax
    42c7:	00 00 
    42c9:	48 89 45 f8          	mov    %rax,-0x8(%rbp)
    42cd:	31 c0                	xor    %eax,%eax
    42cf:	48 8b 55 e8          	mov    -0x18(%rbp),%rdx
    42d3:	48 8d 45 f0          	lea    -0x10(%rbp),%rax
    42d7:	48 89 d6             	mov    %rdx,%rsi
    42da:	48 89 c7             	mov    %rax,%rdi
    42dd:	e8 8e 15 00 00       	call   5870 <_ZN9__gnu_cxx17__normal_iteratorIP6bipoloSt6vectorIS1_SaIS1_EEEC1ERKS2_>
    42e2:	48 8b 45 f0          	mov    -0x10(%rbp),%rax
    42e6:	48 8b 55 f8          	mov    -0x8(%rbp),%rdx
    42ea:	64 48 2b 14 25 28 00 	sub    %fs:0x28,%rdx
    42f1:	00 00 
    42f3:	74 05                	je     42fa <_ZNSt6vectorI6bipoloSaIS0_EE5beginEv+0x4a>
    42f5:	e8 36 e0 ff ff       	call   2330 <__stack_chk_fail@plt>
    42fa:	c9                   	leave
    42fb:	c3                   	ret

00000000000042fc <_ZNSt6vectorI6bipoloSaIS0_EE3endEv>:
    42fc:	f3 0f 1e fa          	endbr64
    4300:	55                   	push   %rbp
    4301:	48 89 e5             	mov    %rsp,%rbp
    4304:	48 83 ec 20          	sub    $0x20,%rsp
    4308:	48 89 7d e8          	mov    %rdi,-0x18(%rbp)
    430c:	64 48 8b 04 25 28 00 	mov    %fs:0x28,%rax
    4313:	00 00 
    4315:	48 89 45 f8          	mov    %rax,-0x8(%rbp)
    4319:	31 c0                	xor    %eax,%eax
    431b:	48 8b 45 e8          	mov    -0x18(%rbp),%rax
    431f:	48 8d 50 08          	lea    0x8(%rax),%rdx
    4323:	48 8d 45 f0          	lea    -0x10(%rbp),%rax
    4327:	48 89 d6             	mov    %rdx,%rsi
    432a:	48 89 c7             	mov    %rax,%rdi
    432d:	e8 3e 15 00 00       	call   5870 <_ZN9__gnu_cxx17__normal_iteratorIP6bipoloSt6vectorIS1_SaIS1_EEEC1ERKS2_>
    4332:	48 8b 45 f0          	mov    -0x10(%rbp),%rax
    4336:	48 8b 55 f8          	mov    -0x8(%rbp),%rdx
    433a:	64 48 2b 14 25 28 00 	sub    %fs:0x28,%rdx
    4341:	00 00 
    4343:	74 05                	je     434a <_ZNSt6vectorI6bipoloSaIS0_EE3endEv+0x4e>
    4345:	e8 e6 df ff ff       	call   2330 <__stack_chk_fail@plt>
    434a:	c9                   	leave
    434b:	c3                   	ret

000000000000434c <_ZNK9__gnu_cxx17__normal_iteratorIP6bipoloSt6vectorIS1_SaIS1_EEEdeEv>:
    434c:	f3 0f 1e fa          	endbr64
    4350:	55                   	push   %rbp
    4351:	48 89 e5             	mov    %rsp,%rbp
    4354:	48 89 7d f8          	mov    %rdi,-0x8(%rbp)
    4358:	48 8b 45 f8          	mov    -0x8(%rbp),%rax
    435c:	48 8b 00             	mov    (%rax),%rax
    435f:	5d                   	pop    %rbp
    4360:	c3                   	ret

0000000000004361 <_ZSt4moveIRSt10unique_ptrI14ExpressionNodeSt14default_deleteIS1_EEEONSt16remove_referenceIT_E4typeEOS7_>:
    4361:	f3 0f 1e fa          	endbr64
    4365:	55                   	push   %rbp
    4366:	48 89 e5             	mov    %rsp,%rbp
    4369:	48 89 7d f8          	mov    %rdi,-0x8(%rbp)
    436d:	48 8b 45 f8          	mov    -0x8(%rbp),%rax
    4371:	5d                   	pop    %rbp
    4372:	c3                   	ret
    4373:	90                   	nop

0000000000004374 <_ZNSt11_Tuple_implILm0EJP14ExpressionNodeSt14default_deleteIS0_EEEC1EOS4_>:
    4374:	f3 0f 1e fa          	endbr64
    4378:	55                   	push   %rbp
    4379:	48 89 e5             	mov    %rsp,%rbp
    437c:	48 83 ec 10          	sub    $0x10,%rsp
    4380:	48 89 7d f8          	mov    %rdi,-0x8(%rbp)
    4384:	48 89 75 f0          	mov    %rsi,-0x10(%rbp)
    4388:	48 8b 55 f0          	mov    -0x10(%rbp),%rdx
    438c:	48 8b 45 f8          	mov    -0x8(%rbp),%rax
    4390:	48 89 d6             	mov    %rdx,%rsi
    4393:	48 89 c7             	mov    %rax,%rdi
    4396:	e8 43 15 00 00       	call   58de <_ZNSt11_Tuple_implILm1EJSt14default_deleteI14ExpressionNodeEEEC1EOS3_>
    439b:	48 8b 45 f8          	mov    -0x8(%rbp),%rax
    439f:	48 8b 55 f0          	mov    -0x10(%rbp),%rdx
    43a3:	48 8b 12             	mov    (%rdx),%rdx
    43a6:	48 89 10             	mov    %rdx,(%rax)
    43a9:	90                   	nop
    43aa:	c9                   	leave
    43ab:	c3                   	ret

00000000000043ac <_ZNSt5tupleIJP14ExpressionNodeSt14default_deleteIS0_EEEC1EOS4_>:
    43ac:	f3 0f 1e fa          	endbr64
    43b0:	55                   	push   %rbp
    43b1:	48 89 e5             	mov    %rsp,%rbp
    43b4:	48 83 ec 10          	sub    $0x10,%rsp
    43b8:	48 89 7d f8          	mov    %rdi,-0x8(%rbp)
    43bc:	48 89 75 f0          	mov    %rsi,-0x10(%rbp)
    43c0:	48 8b 45 f8          	mov    -0x8(%rbp),%rax
    43c4:	48 8b 55 f0          	mov    -0x10(%rbp),%rdx
    43c8:	48 89 d6             	mov    %rdx,%rsi
    43cb:	48 89 c7             	mov    %rax,%rdi
    43ce:	e8 a1 ff ff ff       	call   4374 <_ZNSt11_Tuple_implILm0EJP14ExpressionNodeSt14default_deleteIS0_EEEC1EOS4_>
    43d3:	90                   	nop
    43d4:	c9                   	leave
    43d5:	c3                   	ret

00000000000043d6 <_ZNSt15__uniq_ptr_implI14ExpressionNodeSt14default_deleteIS0_EEC1EOS3_>:
    43d6:	f3 0f 1e fa          	endbr64
    43da:	55                   	push   %rbp
    43db:	48 89 e5             	mov    %rsp,%rbp
    43de:	53                   	push   %rbx
    43df:	48 83 ec 18          	sub    $0x18,%rsp
    43e3:	48 89 7d e8          	mov    %rdi,-0x18(%rbp)
    43e7:	48 89 75 e0          	mov    %rsi,-0x20(%rbp)
    43eb:	48 8b 5d e8          	mov    -0x18(%rbp),%rbx
    43ef:	48 8b 45 e0          	mov    -0x20(%rbp),%rax
    43f3:	48 89 c7             	mov    %rax,%rdi
    43f6:	e8 d0 14 00 00       	call   58cb <_ZSt4moveIRSt5tupleIJP14ExpressionNodeSt14default_deleteIS1_EEEEONSt16remove_referenceIT_E4typeEOS8_>
    43fb:	48 89 c6             	mov    %rax,%rsi
    43fe:	48 89 df             	mov    %rbx,%rdi
    4401:	e8 a6 ff ff ff       	call   43ac <_ZNSt5tupleIJP14ExpressionNodeSt14default_deleteIS0_EEEC1EOS4_>
    4406:	48 8b 45 e0          	mov    -0x20(%rbp),%rax
    440a:	48 89 c7             	mov    %rax,%rdi
    440d:	e8 e0 14 00 00       	call   58f2 <_ZNSt15__uniq_ptr_implI14ExpressionNodeSt14default_deleteIS0_EE6_M_ptrEv>
    4412:	48 c7 00 00 00 00 00 	movq   $0x0,(%rax)
    4419:	90                   	nop
    441a:	48 8b 5d f8          	mov    -0x8(%rbp),%rbx
    441e:	c9                   	leave
    441f:	c3                   	ret

0000000000004420 <_ZNSt10unique_ptrI14ExpressionNodeSt14default_deleteIS0_EED1Ev>:
    4420:	f3 0f 1e fa          	endbr64
    4424:	55                   	push   %rbp
    4425:	48 89 e5             	mov    %rsp,%rbp
    4428:	53                   	push   %rbx
    4429:	48 83 ec 28          	sub    $0x28,%rsp
    442d:	48 89 7d d8          	mov    %rdi,-0x28(%rbp)
    4431:	48 8b 45 d8          	mov    -0x28(%rbp),%rax
    4435:	48 89 c7             	mov    %rax,%rdi
    4438:	e8 b5 14 00 00       	call   58f2 <_ZNSt15__uniq_ptr_implI14ExpressionNodeSt14default_deleteIS0_EE6_M_ptrEv>
    443d:	48 89 45 e8          	mov    %rax,-0x18(%rbp)
    4441:	48 8b 45 e8          	mov    -0x18(%rbp),%rax
    4445:	48 8b 00             	mov    (%rax),%rax
    4448:	48 85 c0             	test   %rax,%rax
    444b:	74 29                	je     4476 <_ZNSt10unique_ptrI14ExpressionNodeSt14default_deleteIS0_EED1Ev+0x56>
    444d:	48 8b 45 d8          	mov    -0x28(%rbp),%rax
    4451:	48 89 c7             	mov    %rax,%rdi
    4454:	e8 b7 14 00 00       	call   5910 <_ZNSt10unique_ptrI14ExpressionNodeSt14default_deleteIS0_EE11get_deleterEv>
    4459:	48 89 c3             	mov    %rax,%rbx
    445c:	48 8b 45 e8          	mov    -0x18(%rbp),%rax
    4460:	48 89 c7             	mov    %rax,%rdi
    4463:	e8 c6 14 00 00       	call   592e <_ZSt4moveIRP14ExpressionNodeEONSt16remove_referenceIT_E4typeEOS4_>
    4468:	48 8b 00             	mov    (%rax),%rax
    446b:	48 89 c6             	mov    %rax,%rsi
    446e:	48 89 df             	mov    %rbx,%rdi
    4471:	e8 ca 14 00 00       	call   5940 <_ZNKSt14default_deleteI14ExpressionNodeEclEPS0_>
    4476:	48 8b 45 e8          	mov    -0x18(%rbp),%rax
    447a:	48 c7 00 00 00 00 00 	movq   $0x0,(%rax)
    4481:	90                   	nop
    4482:	48 8b 5d f8          	mov    -0x8(%rbp),%rbx
    4486:	c9                   	leave
    4487:	c3                   	ret

0000000000004488 <_ZNKSt10unique_ptrI14ExpressionNodeSt14default_deleteIS0_EEptEv>:
    4488:	f3 0f 1e fa          	endbr64
    448c:	55                   	push   %rbp
    448d:	48 89 e5             	mov    %rsp,%rbp
    4490:	48 83 ec 10          	sub    $0x10,%rsp
    4494:	48 89 7d f8          	mov    %rdi,-0x8(%rbp)
    4498:	48 8b 45 f8          	mov    -0x8(%rbp),%rax
    449c:	48 89 c7             	mov    %rax,%rdi
    449f:	e8 cc 14 00 00       	call   5970 <_ZNKSt10unique_ptrI14ExpressionNodeSt14default_deleteIS0_EE3getEv>
    44a4:	c9                   	leave
    44a5:	c3                   	ret

00000000000044a6 <_ZNSt10unique_ptrI14ExpressionNodeSt14default_deleteIS0_EEC1IS2_vEEDn>:
    44a6:	f3 0f 1e fa          	endbr64
    44aa:	55                   	push   %rbp
    44ab:	48 89 e5             	mov    %rsp,%rbp
    44ae:	48 83 ec 10          	sub    $0x10,%rsp
    44b2:	48 89 7d f8          	mov    %rdi,-0x8(%rbp)
    44b6:	48 89 75 f0          	mov    %rsi,-0x10(%rbp)
    44ba:	48 8b 45 f8          	mov    -0x8(%rbp),%rax
    44be:	48 c7 00 00 00 00 00 	movq   $0x0,(%rax)
    44c5:	48 8b 45 f8          	mov    -0x8(%rbp),%rax
    44c9:	48 89 c7             	mov    %rax,%rdi
    44cc:	e8 79 f2 ff ff       	call   374a <_ZNSt15__uniq_ptr_dataI14ExpressionNodeSt14default_deleteIS0_ELb1ELb1EECI1St15__uniq_ptr_implIS0_S2_EEv>
    44d1:	90                   	nop
    44d2:	c9                   	leave
    44d3:	c3                   	ret

00000000000044d4 <_ZNSt8_Rb_treeI6bipoloS0_St9_IdentityIS0_ESt4lessIS0_ESaIS0_EE13_Rb_tree_implIS4_Lb1EEC1Ev>:
    44d4:	f3 0f 1e fa          	endbr64
    44d8:	55                   	push   %rbp
    44d9:	48 89 e5             	mov    %rsp,%rbp
    44dc:	48 83 ec 20          	sub    $0x20,%rsp
    44e0:	48 89 7d e8          	mov    %rdi,-0x18(%rbp)
    44e4:	48 8b 45 e8          	mov    -0x18(%rbp),%rax
    44e8:	48 89 45 f0          	mov    %rax,-0x10(%rbp)
    44ec:	48 8b 45 f0          	mov    -0x10(%rbp),%rax
    44f0:	48 89 45 f8          	mov    %rax,-0x8(%rbp)
    44f4:	90                   	nop
    44f5:	90                   	nop
    44f6:	48 8b 45 e8          	mov    -0x18(%rbp),%rax
    44fa:	48 89 c7             	mov    %rax,%rdi
    44fd:	e8 8c 14 00 00       	call   598e <_ZNSt20_Rb_tree_key_compareISt4lessI6bipoloEEC1Ev>
    4502:	48 8b 45 e8          	mov    -0x18(%rbp),%rax
    4506:	48 83 c0 08          	add    $0x8,%rax
    450a:	48 89 c7             	mov    %rax,%rdi
    450d:	e8 0c eb ff ff       	call   301e <_ZNSt15_Rb_tree_headerC1Ev>
    4512:	90                   	nop
    4513:	c9                   	leave
    4514:	c3                   	ret
    4515:	90                   	nop

0000000000004516 <_ZNSt8_Rb_treeI6bipoloS0_St9_IdentityIS0_ESt4lessIS0_ESaIS0_EED1Ev>:
    4516:	f3 0f 1e fa          	endbr64
    451a:	55                   	push   %rbp
    451b:	48 89 e5             	mov    %rsp,%rbp
    451e:	48 83 ec 10          	sub    $0x10,%rsp
    4522:	48 89 7d f8          	mov    %rdi,-0x8(%rbp)
    4526:	48 8b 45 f8          	mov    -0x8(%rbp),%rax
    452a:	48 89 c7             	mov    %rax,%rdi
    452d:	e8 e6 14 00 00       	call   5a18 <_ZNSt8_Rb_treeI6bipoloS0_St9_IdentityIS0_ESt4lessIS0_ESaIS0_EE8_M_beginEv>
    4532:	48 89 c2             	mov    %rax,%rdx
    4535:	48 8b 45 f8          	mov    -0x8(%rbp),%rax
    4539:	48 89 d6             	mov    %rdx,%rsi
    453c:	48 89 c7             	mov    %rax,%rdi
    453f:	e8 6a 14 00 00       	call   59ae <_ZNSt8_Rb_treeI6bipoloS0_St9_IdentityIS0_ESt4lessIS0_ESaIS0_EE8_M_eraseEPSt13_Rb_tree_nodeIS0_E>
    4544:	48 8b 45 f8          	mov    -0x8(%rbp),%rax
    4548:	48 89 c7             	mov    %rax,%rdi
    454b:	e8 3e f0 ff ff       	call   358e <_ZNSt8_Rb_treeI6bipoloS0_St9_IdentityIS0_ESt4lessIS0_ESaIS0_EE13_Rb_tree_implIS4_Lb1EED1Ev>
    4550:	90                   	nop
    4551:	c9                   	leave
    4552:	c3                   	ret
    4553:	90                   	nop

0000000000004554 <_ZNSt8_Rb_treeIiiSt9_IdentityIiESt4lessIiESaIiEE13_Rb_tree_implIS3_Lb1EEC1Ev>:
    4554:	f3 0f 1e fa          	endbr64
    4558:	55                   	push   %rbp
    4559:	48 89 e5             	mov    %rsp,%rbp
    455c:	48 83 ec 20          	sub    $0x20,%rsp
    4560:	48 89 7d e8          	mov    %rdi,-0x18(%rbp)
    4564:	48 8b 45 e8          	mov    -0x18(%rbp),%rax
    4568:	48 89 45 f0          	mov    %rax,-0x10(%rbp)
    456c:	48 8b 45 f0          	mov    -0x10(%rbp),%rax
    4570:	48 89 45 f8          	mov    %rax,-0x8(%rbp)
    4574:	90                   	nop
    4575:	90                   	nop
    4576:	48 8b 45 e8          	mov    -0x18(%rbp),%rax
    457a:	48 89 c7             	mov    %rax,%rdi
    457d:	e8 de 12 00 00       	call   5860 <_ZNSt20_Rb_tree_key_compareISt4lessIiEEC1Ev>
    4582:	48 8b 45 e8          	mov    -0x18(%rbp),%rax
    4586:	48 83 c0 08          	add    $0x8,%rax
    458a:	48 89 c7             	mov    %rax,%rdi
    458d:	e8 8c ea ff ff       	call   301e <_ZNSt15_Rb_tree_headerC1Ev>
    4592:	90                   	nop
    4593:	c9                   	leave
    4594:	c3                   	ret
    4595:	90                   	nop

0000000000004596 <_ZNSt8_Rb_treeIiiSt9_IdentityIiESt4lessIiESaIiEED1Ev>:
    4596:	f3 0f 1e fa          	endbr64
    459a:	55                   	push   %rbp
    459b:	48 89 e5             	mov    %rsp,%rbp
    459e:	48 83 ec 10          	sub    $0x10,%rsp
    45a2:	48 89 7d f8          	mov    %rdi,-0x8(%rbp)
    45a6:	48 8b 45 f8          	mov    -0x8(%rbp),%rax
    45aa:	48 89 c7             	mov    %rax,%rdi
    45ad:	e8 fe 14 00 00       	call   5ab0 <_ZNSt8_Rb_treeIiiSt9_IdentityIiESt4lessIiESaIiEE8_M_beginEv>
    45b2:	48 89 c2             	mov    %rax,%rdx
    45b5:	48 8b 45 f8          	mov    -0x8(%rbp),%rax
    45b9:	48 89 d6             	mov    %rdx,%rsi
    45bc:	48 89 c7             	mov    %rax,%rdi
    45bf:	e8 82 14 00 00       	call   5a46 <_ZNSt8_Rb_treeIiiSt9_IdentityIiESt4lessIiESaIiEE8_M_eraseEPSt13_Rb_tree_nodeIiE>
    45c4:	48 8b 45 f8          	mov    -0x8(%rbp),%rax
    45c8:	48 89 c7             	mov    %rax,%rdi
    45cb:	e8 46 f0 ff ff       	call   3616 <_ZNSt8_Rb_treeIiiSt9_IdentityIiESt4lessIiESaIiEE13_Rb_tree_implIS3_Lb1EED1Ev>
    45d0:	90                   	nop
    45d1:	c9                   	leave
    45d2:	c3                   	ret
    45d3:	90                   	nop

00000000000045d4 <_ZNSt3setIiSt4lessIiESaIiEE6insertERKi>:
    45d4:	f3 0f 1e fa          	endbr64
    45d8:	55                   	push   %rbp
    45d9:	48 89 e5             	mov    %rsp,%rbp
    45dc:	48 83 ec 40          	sub    $0x40,%rsp
    45e0:	48 89 7d c8          	mov    %rdi,-0x38(%rbp)
    45e4:	48 89 75 c0          	mov    %rsi,-0x40(%rbp)
    45e8:	64 48 8b 04 25 28 00 	mov    %fs:0x28,%rax
    45ef:	00 00 
    45f1:	48 89 45 f8          	mov    %rax,-0x8(%rbp)
    45f5:	31 c0                	xor    %eax,%eax
    45f7:	48 8b 45 c8          	mov    -0x38(%rbp),%rax
    45fb:	48 8b 55 c0          	mov    -0x40(%rbp),%rdx
    45ff:	48 89 d6             	mov    %rdx,%rsi
    4602:	48 89 c7             	mov    %rax,%rdi
    4605:	e8 c4 14 00 00       	call   5ace <_ZNSt8_Rb_treeIiiSt9_IdentityIiESt4lessIiESaIiEE16_M_insert_uniqueIRKiEESt4pairISt17_Rb_tree_iteratorIiEbEOT_>
    460a:	48 89 45 d0          	mov    %rax,-0x30(%rbp)
    460e:	48 89 55 d8          	mov    %rdx,-0x28(%rbp)
    4612:	48 8d 45 d0          	lea    -0x30(%rbp),%rax
    4616:	48 8d 50 08          	lea    0x8(%rax),%rdx
    461a:	48 8d 4d d0          	lea    -0x30(%rbp),%rcx
    461e:	48 8d 45 e0          	lea    -0x20(%rbp),%rax
    4622:	48 89 ce             	mov    %rcx,%rsi
    4625:	48 89 c7             	mov    %rax,%rdi
    4628:	e8 ad 15 00 00       	call   5bda <_ZNSt4pairISt23_Rb_tree_const_iteratorIiEbEC1IRSt17_Rb_tree_iteratorIiERbLb1EEEOT_OT0_>
    462d:	48 8b 45 e0          	mov    -0x20(%rbp),%rax
    4631:	48 8b 55 e8          	mov    -0x18(%rbp),%rdx
    4635:	48 8b 4d f8          	mov    -0x8(%rbp),%rcx
    4639:	64 48 2b 0c 25 28 00 	sub    %fs:0x28,%rcx
    4640:	00 00 
    4642:	74 05                	je     4649 <_ZNSt3setIiSt4lessIiESaIiEE6insertERKi+0x75>
    4644:	e8 e7 dc ff ff       	call   2330 <__stack_chk_fail@plt>
    4649:	c9                   	leave
    464a:	c3                   	ret
    464b:	90                   	nop

000000000000464c <_ZNSt3setI6bipoloSt4lessIS0_ESaIS0_EE6insertERKS0_>:
    464c:	f3 0f 1e fa          	endbr64
    4650:	55                   	push   %rbp
    4651:	48 89 e5             	mov    %rsp,%rbp
    4654:	48 83 ec 40          	sub    $0x40,%rsp
    4658:	48 89 7d c8          	mov    %rdi,-0x38(%rbp)
    465c:	48 89 75 c0          	mov    %rsi,-0x40(%rbp)
    4660:	64 48 8b 04 25 28 00 	mov    %fs:0x28,%rax
    4667:	00 00 
    4669:	48 89 45 f8          	mov    %rax,-0x8(%rbp)
    466d:	31 c0                	xor    %eax,%eax
    466f:	48 8b 45 c8          	mov    -0x38(%rbp),%rax
    4673:	48 8b 55 c0          	mov    -0x40(%rbp),%rdx
    4677:	48 89 d6             	mov    %rdx,%rsi
    467a:	48 89 c7             	mov    %rax,%rdi
    467d:	e8 aa 15 00 00       	call   5c2c <_ZNSt8_Rb_treeI6bipoloS0_St9_IdentityIS0_ESt4lessIS0_ESaIS0_EE16_M_insert_uniqueIRKS0_EESt4pairISt17_Rb_tree_iteratorIS0_EbEOT_>
    4682:	48 89 45 d0          	mov    %rax,-0x30(%rbp)
    4686:	48 89 55 d8          	mov    %rdx,-0x28(%rbp)
    468a:	48 8d 45 d0          	lea    -0x30(%rbp),%rax
    468e:	48 8d 50 08          	lea    0x8(%rax),%rdx
    4692:	48 8d 4d d0          	lea    -0x30(%rbp),%rcx
    4696:	48 8d 45 e0          	lea    -0x20(%rbp),%rax
    469a:	48 89 ce             	mov    %rcx,%rsi
    469d:	48 89 c7             	mov    %rax,%rdi
    46a0:	e8 93 16 00 00       	call   5d38 <_ZNSt4pairISt23_Rb_tree_const_iteratorI6bipoloEbEC1IRSt17_Rb_tree_iteratorIS1_ERbLb1EEEOT_OT0_>
    46a5:	48 8b 45 e0          	mov    -0x20(%rbp),%rax
    46a9:	48 8b 55 e8          	mov    -0x18(%rbp),%rdx
    46ad:	48 8b 4d f8          	mov    -0x8(%rbp),%rcx
    46b1:	64 48 2b 0c 25 28 00 	sub    %fs:0x28,%rcx
    46b8:	00 00 
    46ba:	74 05                	je     46c1 <_ZNSt3setI6bipoloSt4lessIS0_ESaIS0_EE6insertERKS0_+0x75>
    46bc:	e8 6f dc ff ff       	call   2330 <__stack_chk_fail@plt>
    46c1:	c9                   	leave
    46c2:	c3                   	ret

00000000000046c3 <_ZSt11make_uniqueI10BipoloNodeJR6bipoloEENSt8__detail9_MakeUniqIT_E15__single_objectEDpOT0_>:
    46c3:	f3 0f 1e fa          	endbr64
    46c7:	55                   	push   %rbp
    46c8:	48 89 e5             	mov    %rsp,%rbp
    46cb:	41 54                	push   %r12
    46cd:	53                   	push   %rbx
    46ce:	48 83 ec 20          	sub    $0x20,%rsp
    46d2:	48 89 7d e8          	mov    %rdi,-0x18(%rbp)
    46d6:	48 89 75 e0          	mov    %rsi,-0x20(%rbp)
    46da:	bf 40 00 00 00       	mov    $0x40,%edi
    46df:	e8 fc db ff ff       	call   22e0 <_Znwm@plt>
    46e4:	48 89 45 d8          	mov    %rax,-0x28(%rbp)
    46e8:	41 bc 01 00 00 00    	mov    $0x1,%r12d
    46ee:	48 8b 45 e0          	mov    -0x20(%rbp),%rax
    46f2:	48 89 c7             	mov    %rax,%rdi
    46f5:	e8 54 0d 00 00       	call   544e <_ZSt7forwardIR6bipoloEOT_RNSt16remove_referenceIS2_E4typeE>
    46fa:	48 89 c6             	mov    %rax,%rsi
    46fd:	48 8b 7d d8          	mov    -0x28(%rbp),%rdi
    4701:	e8 7a ec ff ff       	call   3380 <_ZN10BipoloNodeC1ERK6bipolo>
    4706:	48 8b 45 e8          	mov    -0x18(%rbp),%rax
    470a:	48 8b 75 d8          	mov    -0x28(%rbp),%rsi
    470e:	48 89 c7             	mov    %rax,%rdi
    4711:	e8 9e 16 00 00       	call   5db4 <_ZNSt10unique_ptrI10BipoloNodeSt14default_deleteIS0_EEC1IS2_vEEPS0_>
    4716:	eb 25                	jmp    473d <_ZSt11make_uniqueI10BipoloNodeJR6bipoloEENSt8__detail9_MakeUniqIT_E15__single_objectEDpOT0_+0x7a>
    4718:	f3 0f 1e fa          	endbr64
    471c:	48 89 c3             	mov    %rax,%rbx
    471f:	45 84 e4             	test   %r12b,%r12b
    4722:	74 0e                	je     4732 <_ZSt11make_uniqueI10BipoloNodeJR6bipoloEENSt8__detail9_MakeUniqIT_E15__single_objectEDpOT0_+0x6f>
    4724:	be 40 00 00 00       	mov    $0x40,%esi
    4729:	48 8b 7d d8          	mov    -0x28(%rbp),%rdi
    472d:	e8 be db ff ff       	call   22f0 <_ZdlPvm@plt>
    4732:	48 89 d8             	mov    %rbx,%rax
    4735:	48 89 c7             	mov    %rax,%rdi
    4738:	e8 63 dc ff ff       	call   23a0 <_Unwind_Resume@plt>
    473d:	48 8b 45 e8          	mov    -0x18(%rbp),%rax
    4741:	48 83 c4 20          	add    $0x20,%rsp
    4745:	5b                   	pop    %rbx
    4746:	41 5c                	pop    %r12
    4748:	5d                   	pop    %rbp
    4749:	c3                   	ret

000000000000474a <_ZNSt10unique_ptrI10BipoloNodeSt14default_deleteIS0_EED1Ev>:
    474a:	f3 0f 1e fa          	endbr64
    474e:	55                   	push   %rbp
    474f:	48 89 e5             	mov    %rsp,%rbp
    4752:	53                   	push   %rbx
    4753:	48 83 ec 28          	sub    $0x28,%rsp
    4757:	48 89 7d d8          	mov    %rdi,-0x28(%rbp)
    475b:	48 8b 45 d8          	mov    -0x28(%rbp),%rax
    475f:	48 89 c7             	mov    %rax,%rdi
    4762:	e8 77 16 00 00       	call   5dde <_ZNSt15__uniq_ptr_implI10BipoloNodeSt14default_deleteIS0_EE6_M_ptrEv>
    4767:	48 89 45 e8          	mov    %rax,-0x18(%rbp)
    476b:	48 8b 45 e8          	mov    -0x18(%rbp),%rax
    476f:	48 8b 00             	mov    (%rax),%rax
    4772:	48 85 c0             	test   %rax,%rax
    4775:	74 29                	je     47a0 <_ZNSt10unique_ptrI10BipoloNodeSt14default_deleteIS0_EED1Ev+0x56>
    4777:	48 8b 45 d8          	mov    -0x28(%rbp),%rax
    477b:	48 89 c7             	mov    %rax,%rdi
    477e:	e8 79 16 00 00       	call   5dfc <_ZNSt10unique_ptrI10BipoloNodeSt14default_deleteIS0_EE11get_deleterEv>
    4783:	48 89 c3             	mov    %rax,%rbx
    4786:	48 8b 45 e8          	mov    -0x18(%rbp),%rax
    478a:	48 89 c7             	mov    %rax,%rdi
    478d:	e8 88 16 00 00       	call   5e1a <_ZSt4moveIRP10BipoloNodeEONSt16remove_referenceIT_E4typeEOS4_>
    4792:	48 8b 00             	mov    (%rax),%rax
    4795:	48 89 c6             	mov    %rax,%rsi
    4798:	48 89 df             	mov    %rbx,%rdi
    479b:	e8 fa 16 00 00       	call   5e9a <_ZNKSt14default_deleteI10BipoloNodeEclEPS0_>
    47a0:	48 8b 45 e8          	mov    -0x18(%rbp),%rax
    47a4:	48 c7 00 00 00 00 00 	movq   $0x0,(%rax)
    47ab:	90                   	nop
    47ac:	48 8b 5d f8          	mov    -0x8(%rbp),%rbx
    47b0:	c9                   	leave
    47b1:	c3                   	ret

00000000000047b2 <_ZNSt15__uniq_ptr_dataI14ExpressionNodeSt14default_deleteIS0_ELb1ELb1EECI1St15__uniq_ptr_implIS0_S2_EIS1_I10BipoloNodeEEEPS0_OT_>:
    47b2:	f3 0f 1e fa          	endbr64
    47b6:	55                   	push   %rbp
    47b7:	48 89 e5             	mov    %rsp,%rbp
    47ba:	48 83 ec 20          	sub    $0x20,%rsp
    47be:	48 89 7d f8          	mov    %rdi,-0x8(%rbp)
    47c2:	48 89 75 f0          	mov    %rsi,-0x10(%rbp)
    47c6:	48 89 55 e8          	mov    %rdx,-0x18(%rbp)
    47ca:	48 8b 45 f8          	mov    -0x8(%rbp),%rax
    47ce:	48 8b 4d f0          	mov    -0x10(%rbp),%rcx
    47d2:	48 8b 55 e8          	mov    -0x18(%rbp),%rdx
    47d6:	48 89 ce             	mov    %rcx,%rsi
    47d9:	48 89 c7             	mov    %rax,%rdi
    47dc:	e8 19 17 00 00       	call   5efa <_ZNSt15__uniq_ptr_implI14ExpressionNodeSt14default_deleteIS0_EEC1IS1_I10BipoloNodeEEEPS0_OT_>
    47e1:	90                   	nop
    47e2:	c9                   	leave
    47e3:	c3                   	ret

00000000000047e4 <_ZNSt10unique_ptrI14ExpressionNodeSt14default_deleteIS0_EEC1I10BipoloNodeS1_IS5_EvEEOS_IT_T0_E>:
    47e4:	f3 0f 1e fa          	endbr64
    47e8:	55                   	push   %rbp
    47e9:	48 89 e5             	mov    %rsp,%rbp
    47ec:	41 54                	push   %r12
    47ee:	53                   	push   %rbx
    47ef:	48 83 ec 10          	sub    $0x10,%rsp
    47f3:	48 89 7d e8          	mov    %rdi,-0x18(%rbp)
    47f7:	48 89 75 e0          	mov    %rsi,-0x20(%rbp)
    47fb:	48 8b 5d e8          	mov    -0x18(%rbp),%rbx
    47ff:	48 8b 45 e0          	mov    -0x20(%rbp),%rax
    4803:	48 89 c7             	mov    %rax,%rdi
    4806:	e8 f1 15 00 00       	call   5dfc <_ZNSt10unique_ptrI10BipoloNodeSt14default_deleteIS0_EE11get_deleterEv>
    480b:	48 89 c7             	mov    %rax,%rdi
    480e:	e8 d5 16 00 00       	call   5ee8 <_ZSt7forwardISt14default_deleteI10BipoloNodeEEOT_RNSt16remove_referenceIS3_E4typeE>
    4813:	49 89 c4             	mov    %rax,%r12
    4816:	48 8b 45 e0          	mov    -0x20(%rbp),%rax
    481a:	48 89 c7             	mov    %rax,%rdi
    481d:	e8 a8 16 00 00       	call   5eca <_ZNSt10unique_ptrI10BipoloNodeSt14default_deleteIS0_EE7releaseEv>
    4822:	4c 89 e2             	mov    %r12,%rdx
    4825:	48 89 c6             	mov    %rax,%rsi
    4828:	48 89 df             	mov    %rbx,%rdi
    482b:	e8 82 ff ff ff       	call   47b2 <_ZNSt15__uniq_ptr_dataI14ExpressionNodeSt14default_deleteIS0_ELb1ELb1EECI1St15__uniq_ptr_implIS0_S2_EIS1_I10BipoloNodeEEEPS0_OT_>
    4830:	90                   	nop
    4831:	48 83 c4 10          	add    $0x10,%rsp
    4835:	5b                   	pop    %rbx
    4836:	41 5c                	pop    %r12
    4838:	5d                   	pop    %rbp
    4839:	c3                   	ret

000000000000483a <_ZSteqI14ExpressionNodeSt14default_deleteIS0_EEbRKSt10unique_ptrIT_T0_EDn>:
    483a:	f3 0f 1e fa          	endbr64
    483e:	55                   	push   %rbp
    483f:	48 89 e5             	mov    %rsp,%rbp
    4842:	48 83 ec 10          	sub    $0x10,%rsp
    4846:	48 89 7d f8          	mov    %rdi,-0x8(%rbp)
    484a:	48 89 75 f0          	mov    %rsi,-0x10(%rbp)
    484e:	48 8b 45 f8          	mov    -0x8(%rbp),%rax
    4852:	48 89 c7             	mov    %rax,%rdi
    4855:	e8 e2 16 00 00       	call   5f3c <_ZNKSt10unique_ptrI14ExpressionNodeSt14default_deleteIS0_EEcvbEv>
    485a:	83 f0 01             	xor    $0x1,%eax
    485d:	c9                   	leave
    485e:	c3                   	ret
    485f:	90                   	nop

0000000000004860 <_ZNSt15__uniq_ptr_implI14ExpressionNodeSt14default_deleteIS0_EEaSEOS3_>:
    4860:	f3 0f 1e fa          	endbr64
    4864:	55                   	push   %rbp
    4865:	48 89 e5             	mov    %rsp,%rbp
    4868:	48 83 ec 10          	sub    $0x10,%rsp
    486c:	48 89 7d f8          	mov    %rdi,-0x8(%rbp)
    4870:	48 89 75 f0          	mov    %rsi,-0x10(%rbp)
    4874:	48 8b 45 f0          	mov    -0x10(%rbp),%rax
    4878:	48 89 c7             	mov    %rax,%rdi
    487b:	e8 48 17 00 00       	call   5fc8 <_ZNSt15__uniq_ptr_implI14ExpressionNodeSt14default_deleteIS0_EE7releaseEv>
    4880:	48 89 c2             	mov    %rax,%rdx
    4883:	48 8b 45 f8          	mov    -0x8(%rbp),%rax
    4887:	48 89 d6             	mov    %rdx,%rsi
    488a:	48 89 c7             	mov    %rax,%rdi
    488d:	e8 ce 16 00 00       	call   5f60 <_ZNSt15__uniq_ptr_implI14ExpressionNodeSt14default_deleteIS0_EE5resetEPS0_>
    4892:	48 8b 45 f0          	mov    -0x10(%rbp),%rax
    4896:	48 89 c7             	mov    %rax,%rdi
    4899:	e8 66 17 00 00       	call   6004 <_ZNSt15__uniq_ptr_implI14ExpressionNodeSt14default_deleteIS0_EE10_M_deleterEv>
    489e:	48 89 c7             	mov    %rax,%rdi
    48a1:	e8 7c 17 00 00       	call   6022 <_ZSt7forwardISt14default_deleteI14ExpressionNodeEEOT_RNSt16remove_referenceIS3_E4typeE>
    48a6:	48 8b 45 f8          	mov    -0x8(%rbp),%rax
    48aa:	48 89 c7             	mov    %rax,%rdi
    48ad:	e8 52 17 00 00       	call   6004 <_ZNSt15__uniq_ptr_implI14ExpressionNodeSt14default_deleteIS0_EE10_M_deleterEv>
    48b2:	48 8b 45 f8          	mov    -0x8(%rbp),%rax
    48b6:	c9                   	leave
    48b7:	c3                   	ret

00000000000048b8 <_ZSt11make_uniqueI13OperationNodeJSt10unique_ptrI14ExpressionNodeSt14default_deleteIS2_EES5_RcEENSt8__detail9_MakeUniqIT_E15__single_objectEDpOT0_>:
    48b8:	f3 0f 1e fa          	endbr64
    48bc:	55                   	push   %rbp
    48bd:	48 89 e5             	mov    %rsp,%rbp
    48c0:	41 54                	push   %r12
    48c2:	53                   	push   %rbx
    48c3:	48 83 ec 40          	sub    $0x40,%rsp
    48c7:	48 89 7d c8          	mov    %rdi,-0x38(%rbp)
    48cb:	48 89 75 c0          	mov    %rsi,-0x40(%rbp)
    48cf:	48 89 55 b8          	mov    %rdx,-0x48(%rbp)
    48d3:	48 89 4d b0          	mov    %rcx,-0x50(%rbp)
    48d7:	64 48 8b 04 25 28 00 	mov    %fs:0x28,%rax
    48de:	00 00 
    48e0:	48 89 45 e8          	mov    %rax,-0x18(%rbp)
    48e4:	31 c0                	xor    %eax,%eax
    48e6:	bf 20 00 00 00       	mov    $0x20,%edi
    48eb:	e8 f0 d9 ff ff       	call   22e0 <_Znwm@plt>
    48f0:	49 89 c4             	mov    %rax,%r12
    48f3:	48 8b 45 b0          	mov    -0x50(%rbp),%rax
    48f7:	48 89 c7             	mov    %rax,%rdi
    48fa:	e8 47 17 00 00       	call   6046 <_ZSt7forwardIRcEOT_RNSt16remove_referenceIS1_E4typeE>
    48ff:	0f b6 00             	movzbl (%rax),%eax
    4902:	0f be d8             	movsbl %al,%ebx
    4905:	48 8b 45 b8          	mov    -0x48(%rbp),%rax
    4909:	48 89 c7             	mov    %rax,%rdi
    490c:	e8 23 17 00 00       	call   6034 <_ZSt7forwardISt10unique_ptrI14ExpressionNodeSt14default_deleteIS1_EEEOT_RNSt16remove_referenceIS5_E4typeE>
    4911:	48 89 c2             	mov    %rax,%rdx
    4914:	48 8d 45 e0          	lea    -0x20(%rbp),%rax
    4918:	48 89 d6             	mov    %rdx,%rsi
    491b:	48 89 c7             	mov    %rax,%rdi
    491e:	e8 0b eb ff ff       	call   342e <_ZNSt10unique_ptrI14ExpressionNodeSt14default_deleteIS0_EEC1EOS3_>
    4923:	48 8b 45 c0          	mov    -0x40(%rbp),%rax
    4927:	48 89 c7             	mov    %rax,%rdi
    492a:	e8 05 17 00 00       	call   6034 <_ZSt7forwardISt10unique_ptrI14ExpressionNodeSt14default_deleteIS1_EEEOT_RNSt16remove_referenceIS5_E4typeE>
    492f:	48 89 c2             	mov    %rax,%rdx
    4932:	48 8d 45 d8          	lea    -0x28(%rbp),%rax
    4936:	48 89 d6             	mov    %rdx,%rsi
    4939:	48 89 c7             	mov    %rax,%rdi
    493c:	e8 ed ea ff ff       	call   342e <_ZNSt10unique_ptrI14ExpressionNodeSt14default_deleteIS0_EEC1EOS3_>
    4941:	48 8d 55 e0          	lea    -0x20(%rbp),%rdx
    4945:	48 8d 45 d8          	lea    -0x28(%rbp),%rax
    4949:	89 d9                	mov    %ebx,%ecx
    494b:	48 89 c6             	mov    %rax,%rsi
    494e:	4c 89 e7             	mov    %r12,%rdi
    4951:	e8 02 eb ff ff       	call   3458 <_ZN13OperationNodeC1ESt10unique_ptrI14ExpressionNodeSt14default_deleteIS1_EES4_c>
    4956:	48 8b 45 c8          	mov    -0x38(%rbp),%rax
    495a:	4c 89 e6             	mov    %r12,%rsi
    495d:	48 89 c7             	mov    %rax,%rdi
    4960:	e8 1d 17 00 00       	call   6082 <_ZNSt10unique_ptrI13OperationNodeSt14default_deleteIS0_EEC1IS2_vEEPS0_>
    4965:	48 8d 45 d8          	lea    -0x28(%rbp),%rax
    4969:	48 89 c7             	mov    %rax,%rdi
    496c:	e8 af fa ff ff       	call   4420 <_ZNSt10unique_ptrI14ExpressionNodeSt14default_deleteIS0_EED1Ev>
    4971:	48 8d 45 e0          	lea    -0x20(%rbp),%rax
    4975:	48 89 c7             	mov    %rax,%rdi
    4978:	e8 a3 fa ff ff       	call   4420 <_ZNSt10unique_ptrI14ExpressionNodeSt14default_deleteIS0_EED1Ev>
    497d:	90                   	nop
    497e:	48 8b 45 e8          	mov    -0x18(%rbp),%rax
    4982:	64 48 2b 04 25 28 00 	sub    %fs:0x28,%rax
    4989:	00 00 
    498b:	74 05                	je     4992 <_ZSt11make_uniqueI13OperationNodeJSt10unique_ptrI14ExpressionNodeSt14default_deleteIS2_EES5_RcEENSt8__detail9_MakeUniqIT_E15__single_objectEDpOT0_+0xda>
    498d:	e8 9e d9 ff ff       	call   2330 <__stack_chk_fail@plt>
    4992:	48 8b 45 c8          	mov    -0x38(%rbp),%rax
    4996:	48 83 c4 40          	add    $0x40,%rsp
    499a:	5b                   	pop    %rbx
    499b:	41 5c                	pop    %r12
    499d:	5d                   	pop    %rbp
    499e:	c3                   	ret
    499f:	90                   	nop

00000000000049a0 <_ZNSt10unique_ptrI13OperationNodeSt14default_deleteIS0_EED1Ev>:
    49a0:	f3 0f 1e fa          	endbr64
    49a4:	55                   	push   %rbp
    49a5:	48 89 e5             	mov    %rsp,%rbp
    49a8:	53                   	push   %rbx
    49a9:	48 83 ec 28          	sub    $0x28,%rsp
    49ad:	48 89 7d d8          	mov    %rdi,-0x28(%rbp)
    49b1:	48 8b 45 d8          	mov    -0x28(%rbp),%rax
    49b5:	48 89 c7             	mov    %rax,%rdi
    49b8:	e8 ef 16 00 00       	call   60ac <_ZNSt15__uniq_ptr_implI13OperationNodeSt14default_deleteIS0_EE6_M_ptrEv>
    49bd:	48 89 45 e8          	mov    %rax,-0x18(%rbp)
    49c1:	48 8b 45 e8          	mov    -0x18(%rbp),%rax
    49c5:	48 8b 00             	mov    (%rax),%rax
    49c8:	48 85 c0             	test   %rax,%rax
    49cb:	74 29                	je     49f6 <_ZNSt10unique_ptrI13OperationNodeSt14default_deleteIS0_EED1Ev+0x56>
    49cd:	48 8b 45 d8          	mov    -0x28(%rbp),%rax
    49d1:	48 89 c7             	mov    %rax,%rdi
    49d4:	e8 f1 16 00 00       	call   60ca <_ZNSt10unique_ptrI13OperationNodeSt14default_deleteIS0_EE11get_deleterEv>
    49d9:	48 89 c3             	mov    %rax,%rbx
    49dc:	48 8b 45 e8          	mov    -0x18(%rbp),%rax
    49e0:	48 89 c7             	mov    %rax,%rdi
    49e3:	e8 00 17 00 00       	call   60e8 <_ZSt4moveIRP13OperationNodeEONSt16remove_referenceIT_E4typeEOS4_>
    49e8:	48 8b 00             	mov    (%rax),%rax
    49eb:	48 89 c6             	mov    %rax,%rsi
    49ee:	48 89 df             	mov    %rbx,%rdi
    49f1:	e8 82 17 00 00       	call   6178 <_ZNKSt14default_deleteI13OperationNodeEclEPS0_>
    49f6:	48 8b 45 e8          	mov    -0x18(%rbp),%rax
    49fa:	48 c7 00 00 00 00 00 	movq   $0x0,(%rax)
    4a01:	90                   	nop
    4a02:	48 8b 5d f8          	mov    -0x8(%rbp),%rbx
    4a06:	c9                   	leave
    4a07:	c3                   	ret

0000000000004a08 <_ZNSt10unique_ptrI14ExpressionNodeSt14default_deleteIS0_EEaSI13OperationNodeS1_IS5_EEENSt9enable_ifIXsrSt6__and_IJS8_IJSt14is_convertibleINS_IT_T0_E7pointerEPS0_ESt6__not_ISt8is_arrayISA_EEEESt13is_assignableIRS2_OSB_EEE5valueERS3_E4typeEOSC_>:
    4a08:	f3 0f 1e fa          	endbr64
    4a0c:	55                   	push   %rbp
    4a0d:	48 89 e5             	mov    %rsp,%rbp
    4a10:	48 83 ec 20          	sub    $0x20,%rsp
    4a14:	48 89 7d e8          	mov    %rdi,-0x18(%rbp)
    4a18:	48 89 75 e0          	mov    %rsi,-0x20(%rbp)
    4a1c:	64 48 8b 04 25 28 00 	mov    %fs:0x28,%rax
    4a23:	00 00 
    4a25:	48 89 45 f8          	mov    %rax,-0x8(%rbp)
    4a29:	31 c0                	xor    %eax,%eax
    4a2b:	48 8b 45 e0          	mov    -0x20(%rbp),%rax
    4a2f:	48 89 c7             	mov    %rax,%rdi
    4a32:	e8 ab 17 00 00       	call   61e2 <_ZNSt10unique_ptrI13OperationNodeSt14default_deleteIS0_EE7releaseEv>
    4a37:	48 89 c2             	mov    %rax,%rdx
    4a3a:	48 8b 45 e8          	mov    -0x18(%rbp),%rax
    4a3e:	48 89 d6             	mov    %rdx,%rsi
    4a41:	48 89 c7             	mov    %rax,%rdi
    4a44:	e8 5f 17 00 00       	call   61a8 <_ZNSt10unique_ptrI14ExpressionNodeSt14default_deleteIS0_EE5resetEPS0_>
    4a49:	48 8b 45 e0          	mov    -0x20(%rbp),%rax
    4a4d:	48 89 c7             	mov    %rax,%rdi
    4a50:	e8 75 16 00 00       	call   60ca <_ZNSt10unique_ptrI13OperationNodeSt14default_deleteIS0_EE11get_deleterEv>
    4a55:	48 89 c7             	mov    %rax,%rdi
    4a58:	e8 a3 17 00 00       	call   6200 <_ZSt7forwardISt14default_deleteI13OperationNodeEEOT_RNSt16remove_referenceIS3_E4typeE>
    4a5d:	48 89 c2             	mov    %rax,%rdx
    4a60:	48 8d 45 f7          	lea    -0x9(%rbp),%rax
    4a64:	48 89 d6             	mov    %rdx,%rsi
    4a67:	48 89 c7             	mov    %rax,%rdi
    4a6a:	e8 a3 17 00 00       	call   6212 <_ZNSt14default_deleteI14ExpressionNodeEC1I13OperationNodevEERKS_IT_E>
    4a6f:	48 8b 45 e8          	mov    -0x18(%rbp),%rax
    4a73:	48 89 c7             	mov    %rax,%rdi
    4a76:	e8 95 0e 00 00       	call   5910 <_ZNSt10unique_ptrI14ExpressionNodeSt14default_deleteIS0_EE11get_deleterEv>
    4a7b:	48 8b 45 e8          	mov    -0x18(%rbp),%rax
    4a7f:	48 8b 55 f8          	mov    -0x8(%rbp),%rdx
    4a83:	64 48 2b 14 25 28 00 	sub    %fs:0x28,%rdx
    4a8a:	00 00 
    4a8c:	74 05                	je     4a93 <_ZNSt10unique_ptrI14ExpressionNodeSt14default_deleteIS0_EEaSI13OperationNodeS1_IS5_EEENSt9enable_ifIXsrSt6__and_IJS8_IJSt14is_convertibleINS_IT_T0_E7pointerEPS0_ESt6__not_ISt8is_arrayISA_EEEESt13is_assignableIRS2_OSB_EEE5valueERS3_E4typeEOSC_+0x8b>
    4a8e:	e8 9d d8 ff ff       	call   2330 <__stack_chk_fail@plt>
    4a93:	c9                   	leave
    4a94:	c3                   	ret
    4a95:	90                   	nop

0000000000004a96 <_ZNKSt3setIiSt4lessIiESaIiEE4sizeEv>:
    4a96:	f3 0f 1e fa          	endbr64
    4a9a:	55                   	push   %rbp
    4a9b:	48 89 e5             	mov    %rsp,%rbp
    4a9e:	48 83 ec 10          	sub    $0x10,%rsp
    4aa2:	48 89 7d f8          	mov    %rdi,-0x8(%rbp)
    4aa6:	48 8b 45 f8          	mov    -0x8(%rbp),%rax
    4aaa:	48 89 c7             	mov    %rax,%rdi
    4aad:	e8 74 17 00 00       	call   6226 <_ZNKSt8_Rb_treeIiiSt9_IdentityIiESt4lessIiESaIiEE4sizeEv>
    4ab2:	c9                   	leave
    4ab3:	c3                   	ret

0000000000004ab4 <_ZSt11make_uniqueI8CircuitoJmEENSt8__detail9_MakeUniqIT_E15__single_objectEDpOT0_>:
    4ab4:	f3 0f 1e fa          	endbr64
    4ab8:	55                   	push   %rbp
    4ab9:	48 89 e5             	mov    %rsp,%rbp
    4abc:	53                   	push   %rbx
    4abd:	48 83 ec 18          	sub    $0x18,%rsp
    4ac1:	48 89 7d e8          	mov    %rdi,-0x18(%rbp)
    4ac5:	48 89 75 e0          	mov    %rsi,-0x20(%rbp)
    4ac9:	bf 20 00 00 00       	mov    $0x20,%edi
    4ace:	e8 0d d8 ff ff       	call   22e0 <_Znwm@plt>
    4ad3:	48 89 c3             	mov    %rax,%rbx
    4ad6:	48 8b 45 e0          	mov    -0x20(%rbp),%rax
    4ada:	48 89 c7             	mov    %rax,%rdi
    4add:	e8 17 02 00 00       	call   4cf9 <_ZSt7forwardImEOT_RNSt16remove_referenceIS0_E4typeE>
    4ae2:	48 8b 00             	mov    (%rax),%rax
    4ae5:	89 c6                	mov    %eax,%esi
    4ae7:	48 89 df             	mov    %rbx,%rdi
    4aea:	e8 d9 e6 ff ff       	call   31c8 <_ZN8CircuitoC1Ei>
    4aef:	48 8b 45 e8          	mov    -0x18(%rbp),%rax
    4af3:	48 89 de             	mov    %rbx,%rsi
    4af6:	48 89 c7             	mov    %rax,%rdi
    4af9:	e8 68 17 00 00       	call   6266 <_ZNSt10unique_ptrI8CircuitoSt14default_deleteIS0_EEC1IS2_vEEPS0_>
    4afe:	48 8b 45 e8          	mov    -0x18(%rbp),%rax
    4b02:	48 8b 5d f8          	mov    -0x8(%rbp),%rbx
    4b06:	c9                   	leave
    4b07:	c3                   	ret

0000000000004b08 <_ZNSt10unique_ptrI8CircuitoSt14default_deleteIS0_EED1Ev>:
    4b08:	f3 0f 1e fa          	endbr64
    4b0c:	55                   	push   %rbp
    4b0d:	48 89 e5             	mov    %rsp,%rbp
    4b10:	53                   	push   %rbx
    4b11:	48 83 ec 28          	sub    $0x28,%rsp
    4b15:	48 89 7d d8          	mov    %rdi,-0x28(%rbp)
    4b19:	48 8b 45 d8          	mov    -0x28(%rbp),%rax
    4b1d:	48 89 c7             	mov    %rax,%rdi
    4b20:	e8 6b 17 00 00       	call   6290 <_ZNSt15__uniq_ptr_implI8CircuitoSt14default_deleteIS0_EE6_M_ptrEv>
    4b25:	48 89 45 e8          	mov    %rax,-0x18(%rbp)
    4b29:	48 8b 45 e8          	mov    -0x18(%rbp),%rax
    4b2d:	48 8b 00             	mov    (%rax),%rax
    4b30:	48 85 c0             	test   %rax,%rax
    4b33:	74 29                	je     4b5e <_ZNSt10unique_ptrI8CircuitoSt14default_deleteIS0_EED1Ev+0x56>
    4b35:	48 8b 45 d8          	mov    -0x28(%rbp),%rax
    4b39:	48 89 c7             	mov    %rax,%rdi
    4b3c:	e8 6d 17 00 00       	call   62ae <_ZNSt10unique_ptrI8CircuitoSt14default_deleteIS0_EE11get_deleterEv>
    4b41:	48 89 c3             	mov    %rax,%rbx
    4b44:	48 8b 45 e8          	mov    -0x18(%rbp),%rax
    4b48:	48 89 c7             	mov    %rax,%rdi
    4b4b:	e8 7c 17 00 00       	call   62cc <_ZSt4moveIRP8CircuitoEONSt16remove_referenceIT_E4typeEOS4_>
    4b50:	48 8b 00             	mov    (%rax),%rax
    4b53:	48 89 c6             	mov    %rax,%rsi
    4b56:	48 89 df             	mov    %rbx,%rdi
    4b59:	e8 80 17 00 00       	call   62de <_ZNKSt14default_deleteI8CircuitoEclEPS0_>
    4b5e:	48 8b 45 e8          	mov    -0x18(%rbp),%rax
    4b62:	48 c7 00 00 00 00 00 	movq   $0x0,(%rax)
    4b69:	90                   	nop
    4b6a:	48 8b 5d f8          	mov    -0x8(%rbp),%rbx
    4b6e:	c9                   	leave
    4b6f:	c3                   	ret

0000000000004b70 <_ZNKSt3setI6bipoloSt4lessIS0_ESaIS0_EE5beginEv>:
    4b70:	f3 0f 1e fa          	endbr64
    4b74:	55                   	push   %rbp
    4b75:	48 89 e5             	mov    %rsp,%rbp
    4b78:	48 83 ec 10          	sub    $0x10,%rsp
    4b7c:	48 89 7d f8          	mov    %rdi,-0x8(%rbp)
    4b80:	48 8b 45 f8          	mov    -0x8(%rbp),%rax
    4b84:	48 89 c7             	mov    %rax,%rdi
    4b87:	e8 8c 17 00 00       	call   6318 <_ZNKSt8_Rb_treeI6bipoloS0_St9_IdentityIS0_ESt4lessIS0_ESaIS0_EE5beginEv>
    4b8c:	c9                   	leave
    4b8d:	c3                   	ret

0000000000004b8e <_ZNKSt3setI6bipoloSt4lessIS0_ESaIS0_EE3endEv>:
    4b8e:	f3 0f 1e fa          	endbr64
    4b92:	55                   	push   %rbp
    4b93:	48 89 e5             	mov    %rsp,%rbp
    4b96:	48 83 ec 10          	sub    $0x10,%rsp
    4b9a:	48 89 7d f8          	mov    %rdi,-0x8(%rbp)
    4b9e:	48 8b 45 f8          	mov    -0x8(%rbp),%rax
    4ba2:	48 89 c7             	mov    %rax,%rdi
    4ba5:	e8 be 17 00 00       	call   6368 <_ZNKSt8_Rb_treeI6bipoloS0_St9_IdentityIS0_ESt4lessIS0_ESaIS0_EE3endEv>
    4baa:	c9                   	leave
    4bab:	c3                   	ret

0000000000004bac <_ZStneRKSt23_Rb_tree_const_iteratorI6bipoloES3_>:
    4bac:	f3 0f 1e fa          	endbr64
    4bb0:	55                   	push   %rbp
    4bb1:	48 89 e5             	mov    %rsp,%rbp
    4bb4:	48 89 7d f8          	mov    %rdi,-0x8(%rbp)
    4bb8:	48 89 75 f0          	mov    %rsi,-0x10(%rbp)
    4bbc:	48 8b 45 f8          	mov    -0x8(%rbp),%rax
    4bc0:	48 8b 10             	mov    (%rax),%rdx
    4bc3:	48 8b 45 f0          	mov    -0x10(%rbp),%rax
    4bc7:	48 8b 00             	mov    (%rax),%rax
    4bca:	48 39 c2             	cmp    %rax,%rdx
    4bcd:	0f 95 c0             	setne  %al
    4bd0:	5d                   	pop    %rbp
    4bd1:	c3                   	ret

0000000000004bd2 <_ZNSt23_Rb_tree_const_iteratorI6bipoloEppEv>:
    4bd2:	f3 0f 1e fa          	endbr64
    4bd6:	55                   	push   %rbp
    4bd7:	48 89 e5             	mov    %rsp,%rbp
    4bda:	48 83 ec 10          	sub    $0x10,%rsp
    4bde:	48 89 7d f8          	mov    %rdi,-0x8(%rbp)
    4be2:	48 8b 45 f8          	mov    -0x8(%rbp),%rax
    4be6:	48 8b 00             	mov    (%rax),%rax
    4be9:	48 89 c7             	mov    %rax,%rdi
    4bec:	e8 4f d7 ff ff       	call   2340 <_ZSt18_Rb_tree_incrementPKSt18_Rb_tree_node_base@plt>
    4bf1:	48 8b 55 f8          	mov    -0x8(%rbp),%rdx
    4bf5:	48 89 02             	mov    %rax,(%rdx)
    4bf8:	48 8b 45 f8          	mov    -0x8(%rbp),%rax
    4bfc:	c9                   	leave
    4bfd:	c3                   	ret

0000000000004bfe <_ZNKSt23_Rb_tree_const_iteratorI6bipoloEdeEv>:
    4bfe:	f3 0f 1e fa          	endbr64
    4c02:	55                   	push   %rbp
    4c03:	48 89 e5             	mov    %rsp,%rbp
    4c06:	48 83 ec 10          	sub    $0x10,%rsp
    4c0a:	48 89 7d f8          	mov    %rdi,-0x8(%rbp)
    4c0e:	48 8b 45 f8          	mov    -0x8(%rbp),%rax
    4c12:	48 8b 00             	mov    (%rax),%rax
    4c15:	48 89 c7             	mov    %rax,%rdi
    4c18:	e8 9b 17 00 00       	call   63b8 <_ZNKSt13_Rb_tree_nodeI6bipoloE9_M_valptrEv>
    4c1d:	c9                   	leave
    4c1e:	c3                   	ret
    4c1f:	90                   	nop

0000000000004c20 <_ZNKSt10unique_ptrI8CircuitoSt14default_deleteIS0_EEptEv>:
    4c20:	f3 0f 1e fa          	endbr64
    4c24:	55                   	push   %rbp
    4c25:	48 89 e5             	mov    %rsp,%rbp
    4c28:	48 83 ec 10          	sub    $0x10,%rsp
    4c2c:	48 89 7d f8          	mov    %rdi,-0x8(%rbp)
    4c30:	48 8b 45 f8          	mov    -0x8(%rbp),%rax
    4c34:	48 89 c7             	mov    %rax,%rdi
    4c37:	e8 9e 17 00 00       	call   63da <_ZNKSt10unique_ptrI8CircuitoSt14default_deleteIS0_EE3getEv>
    4c3c:	c9                   	leave
    4c3d:	c3                   	ret

0000000000004c3e <_ZSt4moveIRSt10unique_ptrI8CircuitoSt14default_deleteIS1_EEEONSt16remove_referenceIT_E4typeEOS7_>:
    4c3e:	f3 0f 1e fa          	endbr64
    4c42:	55                   	push   %rbp
    4c43:	48 89 e5             	mov    %rsp,%rbp
    4c46:	48 89 7d f8          	mov    %rdi,-0x8(%rbp)
    4c4a:	48 8b 45 f8          	mov    -0x8(%rbp),%rax
    4c4e:	5d                   	pop    %rbp
    4c4f:	c3                   	ret

0000000000004c50 <_ZSt9make_pairISt10unique_ptrI14ExpressionNodeSt14default_deleteIS1_EES0_I8CircuitoS2_IS5_EEESt4pairINSt25__strip_reference_wrapperINSt5decayIT_E4typeEE6__typeENS9_INSA_IT0_E4typeEE6__typeEEOSB_OSG_>:
    4c50:	f3 0f 1e fa          	endbr64
    4c54:	55                   	push   %rbp
    4c55:	48 89 e5             	mov    %rsp,%rbp
    4c58:	53                   	push   %rbx
    4c59:	48 83 ec 28          	sub    $0x28,%rsp
    4c5d:	48 89 7d e8          	mov    %rdi,-0x18(%rbp)
    4c61:	48 89 75 e0          	mov    %rsi,-0x20(%rbp)
    4c65:	48 89 55 d8          	mov    %rdx,-0x28(%rbp)
    4c69:	48 8b 45 d8          	mov    -0x28(%rbp),%rax
    4c6d:	48 89 c7             	mov    %rax,%rdi
    4c70:	e8 83 17 00 00       	call   63f8 <_ZSt7forwardISt10unique_ptrI8CircuitoSt14default_deleteIS1_EEEOT_RNSt16remove_referenceIS5_E4typeE>
    4c75:	48 89 c3             	mov    %rax,%rbx
    4c78:	48 8b 45 e0          	mov    -0x20(%rbp),%rax
    4c7c:	48 89 c7             	mov    %rax,%rdi
    4c7f:	e8 b0 13 00 00       	call   6034 <_ZSt7forwardISt10unique_ptrI14ExpressionNodeSt14default_deleteIS1_EEEOT_RNSt16remove_referenceIS5_E4typeE>
    4c84:	48 89 c1             	mov    %rax,%rcx
    4c87:	48 8b 45 e8          	mov    -0x18(%rbp),%rax
    4c8b:	48 89 da             	mov    %rbx,%rdx
    4c8e:	48 89 ce             	mov    %rcx,%rsi
    4c91:	48 89 c7             	mov    %rax,%rdi
    4c94:	e8 c5 17 00 00       	call   645e <_ZNSt4pairISt10unique_ptrI14ExpressionNodeSt14default_deleteIS1_EES0_I8CircuitoS2_IS5_EEEC1IS4_S7_Lb1EEEOT_OT0_>
    4c99:	48 8b 45 e8          	mov    -0x18(%rbp),%rax
    4c9d:	48 8b 5d f8          	mov    -0x8(%rbp),%rbx
    4ca1:	c9                   	leave
    4ca2:	c3                   	ret

0000000000004ca3 <_ZStneI14ExpressionNodeSt14default_deleteIS0_EEbRKSt10unique_ptrIT_T0_EDn>:
    4ca3:	f3 0f 1e fa          	endbr64
    4ca7:	55                   	push   %rbp
    4ca8:	48 89 e5             	mov    %rsp,%rbp
    4cab:	48 83 ec 10          	sub    $0x10,%rsp
    4caf:	48 89 7d f8          	mov    %rdi,-0x8(%rbp)
    4cb3:	48 89 75 f0          	mov    %rsi,-0x10(%rbp)
    4cb7:	48 8b 45 f8          	mov    -0x8(%rbp),%rax
    4cbb:	48 89 c7             	mov    %rax,%rdi
    4cbe:	e8 79 12 00 00       	call   5f3c <_ZNKSt10unique_ptrI14ExpressionNodeSt14default_deleteIS0_EEcvbEv>
    4cc3:	c9                   	leave
    4cc4:	c3                   	ret
    4cc5:	90                   	nop

0000000000004cc6 <_ZNSt15__new_allocatorIcED1Ev>:
    4cc6:	f3 0f 1e fa          	endbr64
    4cca:	55                   	push   %rbp
    4ccb:	48 89 e5             	mov    %rsp,%rbp
    4cce:	48 89 7d f8          	mov    %rdi,-0x8(%rbp)
    4cd2:	90                   	nop
    4cd3:	5d                   	pop    %rbp
    4cd4:	c3                   	ret

0000000000004cd5 <_ZSt4moveIRNSt7__cxx1112basic_stringIcSt11char_traitsIcESaIcEEEEONSt16remove_referenceIT_E4typeEOS8_>:
    4cd5:	f3 0f 1e fa          	endbr64
    4cd9:	55                   	push   %rbp
    4cda:	48 89 e5             	mov    %rsp,%rbp
    4cdd:	48 89 7d f8          	mov    %rdi,-0x8(%rbp)
    4ce1:	48 8b 45 f8          	mov    -0x8(%rbp),%rax
    4ce5:	5d                   	pop    %rbp
    4ce6:	c3                   	ret

0000000000004ce7 <_ZSt7forwardIbEOT_RNSt16remove_referenceIS0_E4typeE>:
    4ce7:	f3 0f 1e fa          	endbr64
    4ceb:	55                   	push   %rbp
    4cec:	48 89 e5             	mov    %rsp,%rbp
    4cef:	48 89 7d f8          	mov    %rdi,-0x8(%rbp)
    4cf3:	48 8b 45 f8          	mov    -0x8(%rbp),%rax
    4cf7:	5d                   	pop    %rbp
    4cf8:	c3                   	ret

0000000000004cf9 <_ZSt7forwardImEOT_RNSt16remove_referenceIS0_E4typeE>:
    4cf9:	f3 0f 1e fa          	endbr64
    4cfd:	55                   	push   %rbp
    4cfe:	48 89 e5             	mov    %rsp,%rbp
    4d01:	48 89 7d f8          	mov    %rdi,-0x8(%rbp)
    4d05:	48 8b 45 f8          	mov    -0x8(%rbp),%rax
    4d09:	5d                   	pop    %rbp
    4d0a:	c3                   	ret
    4d0b:	90                   	nop

0000000000004d0c <_ZNK5Eigen8symbolic8BaseExprINS0_10SymbolExprINS_8internal17symbolic_last_tagEEEE7derivedEv>:
    4d0c:	f3 0f 1e fa          	endbr64
    4d10:	55                   	push   %rbp
    4d11:	48 89 e5             	mov    %rsp,%rbp
    4d14:	48 89 7d f8          	mov    %rdi,-0x8(%rbp)
    4d18:	48 8b 45 f8          	mov    -0x8(%rbp),%rax
    4d1c:	5d                   	pop    %rbp
    4d1d:	c3                   	ret

0000000000004d1e <_ZN5Eigen8symbolic9ValueExprINS_8internal8FixedIntILi1EEEEC1Ev>:
    4d1e:	f3 0f 1e fa          	endbr64
    4d22:	55                   	push   %rbp
    4d23:	48 89 e5             	mov    %rsp,%rbp
    4d26:	48 89 7d f8          	mov    %rdi,-0x8(%rbp)
    4d2a:	90                   	nop
    4d2b:	5d                   	pop    %rbp
    4d2c:	c3                   	ret
    4d2d:	90                   	nop

0000000000004d2e <_ZN5Eigen8symbolic7AddExprINS0_10SymbolExprINS_8internal17symbolic_last_tagEEENS0_9ValueExprINS3_8FixedIntILi1EEEEEEC1ERKS5_RKS9_>:
    4d2e:	f3 0f 1e fa          	endbr64
    4d32:	55                   	push   %rbp
    4d33:	48 89 e5             	mov    %rsp,%rbp
    4d36:	48 89 7d f8          	mov    %rdi,-0x8(%rbp)
    4d3a:	48 89 75 f0          	mov    %rsi,-0x10(%rbp)
    4d3e:	48 89 55 e8          	mov    %rdx,-0x18(%rbp)
    4d42:	90                   	nop
    4d43:	5d                   	pop    %rbp
    4d44:	c3                   	ret
    4d45:	90                   	nop

0000000000004d46 <_ZNSt12_Vector_baseI6bipoloSaIS0_EE17_Vector_impl_dataC1Ev>:
    4d46:	f3 0f 1e fa          	endbr64
    4d4a:	55                   	push   %rbp
    4d4b:	48 89 e5             	mov    %rsp,%rbp
    4d4e:	48 89 7d f8          	mov    %rdi,-0x8(%rbp)
    4d52:	48 8b 45 f8          	mov    -0x8(%rbp),%rax
    4d56:	48 c7 00 00 00 00 00 	movq   $0x0,(%rax)
    4d5d:	48 8b 45 f8          	mov    -0x8(%rbp),%rax
    4d61:	48 c7 40 08 00 00 00 	movq   $0x0,0x8(%rax)
    4d68:	00 
    4d69:	48 8b 45 f8          	mov    -0x8(%rbp),%rax
    4d6d:	48 c7 40 10 00 00 00 	movq   $0x0,0x10(%rax)
    4d74:	00 
    4d75:	90                   	nop
    4d76:	5d                   	pop    %rbp
    4d77:	c3                   	ret

0000000000004d78 <_ZNSt15__new_allocatorI6bipoloED1Ev>:
    4d78:	f3 0f 1e fa          	endbr64
    4d7c:	55                   	push   %rbp
    4d7d:	48 89 e5             	mov    %rsp,%rbp
    4d80:	48 89 7d f8          	mov    %rdi,-0x8(%rbp)
    4d84:	90                   	nop
    4d85:	5d                   	pop    %rbp
    4d86:	c3                   	ret
    4d87:	90                   	nop

0000000000004d88 <_ZNSt12_Vector_baseI6bipoloSaIS0_EE13_M_deallocateEPS0_m>:
    4d88:	f3 0f 1e fa          	endbr64
    4d8c:	55                   	push   %rbp
    4d8d:	48 89 e5             	mov    %rsp,%rbp
    4d90:	48 83 ec 40          	sub    $0x40,%rsp
    4d94:	48 89 7d d8          	mov    %rdi,-0x28(%rbp)
    4d98:	48 89 75 d0          	mov    %rsi,-0x30(%rbp)
    4d9c:	48 89 55 c8          	mov    %rdx,-0x38(%rbp)
    4da0:	48 83 7d d0 00       	cmpq   $0x0,-0x30(%rbp)
    4da5:	74 30                	je     4dd7 <_ZNSt12_Vector_baseI6bipoloSaIS0_EE13_M_deallocateEPS0_m+0x4f>
    4da7:	48 8b 45 d8          	mov    -0x28(%rbp),%rax
    4dab:	48 89 45 e8          	mov    %rax,-0x18(%rbp)
    4daf:	48 8b 45 d0          	mov    -0x30(%rbp),%rax
    4db3:	48 89 45 f0          	mov    %rax,-0x10(%rbp)
    4db7:	48 8b 45 c8          	mov    -0x38(%rbp),%rax
    4dbb:	48 89 45 f8          	mov    %rax,-0x8(%rbp)
    4dbf:	48 8b 55 f8          	mov    -0x8(%rbp),%rdx
    4dc3:	48 8b 4d f0          	mov    -0x10(%rbp),%rcx
    4dc7:	48 8b 45 e8          	mov    -0x18(%rbp),%rax
    4dcb:	48 89 ce             	mov    %rcx,%rsi
    4dce:	48 89 c7             	mov    %rax,%rdi
    4dd1:	e8 2c 25 00 00       	call   7302 <_ZNSt15__new_allocatorI6bipoloE10deallocateEPS0_m>
    4dd6:	90                   	nop
    4dd7:	90                   	nop
    4dd8:	c9                   	leave
    4dd9:	c3                   	ret

0000000000004dda <_ZNSt12_Vector_baseI6bipoloSaIS0_EE19_M_get_Tp_allocatorEv>:
    4dda:	f3 0f 1e fa          	endbr64
    4dde:	55                   	push   %rbp
    4ddf:	48 89 e5             	mov    %rsp,%rbp
    4de2:	48 89 7d f8          	mov    %rdi,-0x8(%rbp)
    4de6:	48 8b 45 f8          	mov    -0x8(%rbp),%rax
    4dea:	5d                   	pop    %rbp
    4deb:	c3                   	ret

0000000000004dec <_ZSt7forwardIRiEOT_RNSt16remove_referenceIS1_E4typeE>:
    4dec:	f3 0f 1e fa          	endbr64
    4df0:	55                   	push   %rbp
    4df1:	48 89 e5             	mov    %rsp,%rbp
    4df4:	48 89 7d f8          	mov    %rdi,-0x8(%rbp)
    4df8:	48 8b 45 f8          	mov    -0x8(%rbp),%rax
    4dfc:	5d                   	pop    %rbp
    4dfd:	c3                   	ret

0000000000004dfe <_ZSt7forwardIRKNSt7__cxx1112basic_stringIcSt11char_traitsIcESaIcEEEEOT_RNSt16remove_referenceIS8_E4typeE>:
    4dfe:	f3 0f 1e fa          	endbr64
    4e02:	55                   	push   %rbp
    4e03:	48 89 e5             	mov    %rsp,%rbp
    4e06:	48 89 7d f8          	mov    %rdi,-0x8(%rbp)
    4e0a:	48 8b 45 f8          	mov    -0x8(%rbp),%rax
    4e0e:	5d                   	pop    %rbp
    4e0f:	c3                   	ret

0000000000004e10 <_ZSt7forwardIR4TipoEOT_RNSt16remove_referenceIS2_E4typeE>:
    4e10:	f3 0f 1e fa          	endbr64
    4e14:	55                   	push   %rbp
    4e15:	48 89 e5             	mov    %rsp,%rbp
    4e18:	48 89 7d f8          	mov    %rdi,-0x8(%rbp)
    4e1c:	48 8b 45 f8          	mov    -0x8(%rbp),%rax
    4e20:	5d                   	pop    %rbp
    4e21:	c3                   	ret

0000000000004e22 <_ZSt7forwardIRfEOT_RNSt16remove_referenceIS1_E4typeE>:
    4e22:	f3 0f 1e fa          	endbr64
    4e26:	55                   	push   %rbp
    4e27:	48 89 e5             	mov    %rsp,%rbp
    4e2a:	48 89 7d f8          	mov    %rdi,-0x8(%rbp)
    4e2e:	48 8b 45 f8          	mov    -0x8(%rbp),%rax
    4e32:	5d                   	pop    %rbp
    4e33:	c3                   	ret

0000000000004e34 <_ZNSt6vectorI6bipoloSaIS0_EE17_M_realloc_insertIJRiRKNSt7__cxx1112basic_stringIcSt11char_traitsIcESaIcEEER4TipoRfS4_S4_EEEvN9__gnu_cxx17__normal_iteratorIPS0_S2_EEDpOT_>:
    4e34:	f3 0f 1e fa          	endbr64
    4e38:	55                   	push   %rbp
    4e39:	48 89 e5             	mov    %rsp,%rbp
    4e3c:	41 57                	push   %r15
    4e3e:	41 56                	push   %r14
    4e40:	41 55                	push   %r13
    4e42:	41 54                	push   %r12
    4e44:	53                   	push   %rbx
    4e45:	48 81 ec 58 01 00 00 	sub    $0x158,%rsp
    4e4c:	48 89 bd c8 fe ff ff 	mov    %rdi,-0x138(%rbp)
    4e53:	48 89 b5 c0 fe ff ff 	mov    %rsi,-0x140(%rbp)
    4e5a:	48 89 95 b8 fe ff ff 	mov    %rdx,-0x148(%rbp)
    4e61:	48 89 8d b0 fe ff ff 	mov    %rcx,-0x150(%rbp)
    4e68:	4c 89 85 a8 fe ff ff 	mov    %r8,-0x158(%rbp)
    4e6f:	4c 89 8d a0 fe ff ff 	mov    %r9,-0x160(%rbp)
    4e76:	48 8b 45 10          	mov    0x10(%rbp),%rax
    4e7a:	48 89 85 98 fe ff ff 	mov    %rax,-0x168(%rbp)
    4e81:	48 8b 45 18          	mov    0x18(%rbp),%rax
    4e85:	48 89 85 90 fe ff ff 	mov    %rax,-0x170(%rbp)
    4e8c:	64 48 8b 04 25 28 00 	mov    %fs:0x28,%rax
    4e93:	00 00 
    4e95:	48 89 45 c8          	mov    %rax,-0x38(%rbp)
    4e99:	31 c0                	xor    %eax,%eax
    4e9b:	48 8b 85 c8 fe ff ff 	mov    -0x138(%rbp),%rax
    4ea2:	48 8d 15 d7 43 00 00 	lea    0x43d7(%rip),%rdx        # 9280 <_ZN5Eigen8internalL18defaultL3CacheSizeE+0x218>
    4ea9:	be 01 00 00 00       	mov    $0x1,%esi
    4eae:	48 89 c7             	mov    %rax,%rdi
    4eb1:	e8 2c 16 00 00       	call   64e2 <_ZNKSt6vectorI6bipoloSaIS0_EE12_M_check_lenEmPKc>
    4eb6:	48 89 85 e0 fe ff ff 	mov    %rax,-0x120(%rbp)
    4ebd:	48 8b 85 c8 fe ff ff 	mov    -0x138(%rbp),%rax
    4ec4:	48 8b 00             	mov    (%rax),%rax
    4ec7:	48 89 85 e8 fe ff ff 	mov    %rax,-0x118(%rbp)
    4ece:	48 8b 85 c8 fe ff ff 	mov    -0x138(%rbp),%rax
    4ed5:	48 8b 40 08          	mov    0x8(%rax),%rax
    4ed9:	48 89 85 f0 fe ff ff 	mov    %rax,-0x110(%rbp)
    4ee0:	48 8b 85 c8 fe ff ff 	mov    -0x138(%rbp),%rax
    4ee7:	48 89 c7             	mov    %rax,%rdi
    4eea:	e8 c1 f3 ff ff       	call   42b0 <_ZNSt6vectorI6bipoloSaIS0_EE5beginEv>
    4eef:	48 89 85 d8 fe ff ff 	mov    %rax,-0x128(%rbp)
    4ef6:	48 8d 95 d8 fe ff ff 	lea    -0x128(%rbp),%rdx
    4efd:	48 8d 85 c0 fe ff ff 	lea    -0x140(%rbp),%rax
    4f04:	48 89 d6             	mov    %rdx,%rsi
    4f07:	48 89 c7             	mov    %rax,%rdi
    4f0a:	e8 d6 16 00 00       	call   65e5 <_ZN9__gnu_cxxmiIP6bipoloSt6vectorIS1_SaIS1_EEEENS_17__normal_iteratorIT_T0_E15difference_typeERKS9_SC_>
    4f0f:	48 89 85 f8 fe ff ff 	mov    %rax,-0x108(%rbp)
    4f16:	48 8b 85 c8 fe ff ff 	mov    -0x138(%rbp),%rax
    4f1d:	48 8b 95 e0 fe ff ff 	mov    -0x120(%rbp),%rdx
    4f24:	48 89 d6             	mov    %rdx,%rsi
    4f27:	48 89 c7             	mov    %rax,%rdi
    4f2a:	e8 07 17 00 00       	call   6636 <_ZNSt12_Vector_baseI6bipoloSaIS0_EE11_M_allocateEm>
    4f2f:	48 89 85 00 ff ff ff 	mov    %rax,-0x100(%rbp)
    4f36:	48 8b 85 00 ff ff ff 	mov    -0x100(%rbp),%rax
    4f3d:	48 89 85 08 ff ff ff 	mov    %rax,-0xf8(%rbp)
    4f44:	48 8b 85 90 fe ff ff 	mov    -0x170(%rbp),%rax
    4f4b:	48 89 c7             	mov    %rax,%rdi
    4f4e:	e8 99 fe ff ff       	call   4dec <_ZSt7forwardIRiEOT_RNSt16remove_referenceIS1_E4typeE>
    4f53:	48 89 c3             	mov    %rax,%rbx
    4f56:	48 8b 85 98 fe ff ff 	mov    -0x168(%rbp),%rax
    4f5d:	48 89 c7             	mov    %rax,%rdi
    4f60:	e8 87 fe ff ff       	call   4dec <_ZSt7forwardIRiEOT_RNSt16remove_referenceIS1_E4typeE>
    4f65:	49 89 c4             	mov    %rax,%r12
    4f68:	48 8b 85 a0 fe ff ff 	mov    -0x160(%rbp),%rax
    4f6f:	48 89 c7             	mov    %rax,%rdi
    4f72:	e8 ab fe ff ff       	call   4e22 <_ZSt7forwardIRfEOT_RNSt16remove_referenceIS1_E4typeE>
    4f77:	49 89 c5             	mov    %rax,%r13
    4f7a:	48 8b 85 a8 fe ff ff 	mov    -0x158(%rbp),%rax
    4f81:	48 89 c7             	mov    %rax,%rdi
    4f84:	e8 87 fe ff ff       	call   4e10 <_ZSt7forwardIR4TipoEOT_RNSt16remove_referenceIS2_E4typeE>
    4f89:	49 89 c6             	mov    %rax,%r14
    4f8c:	48 8b 85 b0 fe ff ff 	mov    -0x150(%rbp),%rax
    4f93:	48 89 c7             	mov    %rax,%rdi
    4f96:	e8 63 fe ff ff       	call   4dfe <_ZSt7forwardIRKNSt7__cxx1112basic_stringIcSt11char_traitsIcESaIcEEEEOT_RNSt16remove_referenceIS8_E4typeE>
    4f9b:	49 89 c7             	mov    %rax,%r15
    4f9e:	48 8b 85 b8 fe ff ff 	mov    -0x148(%rbp),%rax
    4fa5:	48 89 c7             	mov    %rax,%rdi
    4fa8:	e8 3f fe ff ff       	call   4dec <_ZSt7forwardIRiEOT_RNSt16remove_referenceIS1_E4typeE>
    4fad:	48 89 c1             	mov    %rax,%rcx
    4fb0:	48 8b 95 f8 fe ff ff 	mov    -0x108(%rbp),%rdx
    4fb7:	48 89 d0             	mov    %rdx,%rax
    4fba:	48 c1 e0 03          	shl    $0x3,%rax
    4fbe:	48 29 d0             	sub    %rdx,%rax
    4fc1:	48 c1 e0 03          	shl    $0x3,%rax
    4fc5:	48 89 c2             	mov    %rax,%rdx
    4fc8:	48 8b 85 00 ff ff ff 	mov    -0x100(%rbp),%rax
    4fcf:	48 01 c2             	add    %rax,%rdx
    4fd2:	48 8b 85 c8 fe ff ff 	mov    -0x138(%rbp),%rax
    4fd9:	48 89 85 10 ff ff ff 	mov    %rax,-0xf0(%rbp)
    4fe0:	48 89 95 18 ff ff ff 	mov    %rdx,-0xe8(%rbp)
    4fe7:	48 89 8d 20 ff ff ff 	mov    %rcx,-0xe0(%rbp)
    4fee:	4c 89 bd 28 ff ff ff 	mov    %r15,-0xd8(%rbp)
    4ff5:	4c 89 b5 30 ff ff ff 	mov    %r14,-0xd0(%rbp)
    4ffc:	4c 89 ad 38 ff ff ff 	mov    %r13,-0xc8(%rbp)
    5003:	4c 89 a5 40 ff ff ff 	mov    %r12,-0xc0(%rbp)
    500a:	48 89 9d 48 ff ff ff 	mov    %rbx,-0xb8(%rbp)
    5011:	48 8b 85 48 ff ff ff 	mov    -0xb8(%rbp),%rax
    5018:	48 89 c7             	mov    %rax,%rdi
    501b:	e8 cc fd ff ff       	call   4dec <_ZSt7forwardIRiEOT_RNSt16remove_referenceIS1_E4typeE>
    5020:	48 89 c3             	mov    %rax,%rbx
    5023:	48 8b 85 40 ff ff ff 	mov    -0xc0(%rbp),%rax
    502a:	48 89 c7             	mov    %rax,%rdi
    502d:	e8 ba fd ff ff       	call   4dec <_ZSt7forwardIRiEOT_RNSt16remove_referenceIS1_E4typeE>
    5032:	49 89 c4             	mov    %rax,%r12
    5035:	48 8b 85 38 ff ff ff 	mov    -0xc8(%rbp),%rax
    503c:	48 89 c7             	mov    %rax,%rdi
    503f:	e8 de fd ff ff       	call   4e22 <_ZSt7forwardIRfEOT_RNSt16remove_referenceIS1_E4typeE>
    5044:	49 89 c5             	mov    %rax,%r13
    5047:	48 8b 85 30 ff ff ff 	mov    -0xd0(%rbp),%rax
    504e:	48 89 c7             	mov    %rax,%rdi
    5051:	e8 ba fd ff ff       	call   4e10 <_ZSt7forwardIR4TipoEOT_RNSt16remove_referenceIS2_E4typeE>
    5056:	49 89 c6             	mov    %rax,%r14
    5059:	48 8b 85 28 ff ff ff 	mov    -0xd8(%rbp),%rax
    5060:	48 89 c7             	mov    %rax,%rdi
    5063:	e8 96 fd ff ff       	call   4dfe <_ZSt7forwardIRKNSt7__cxx1112basic_stringIcSt11char_traitsIcESaIcEEEEOT_RNSt16remove_referenceIS8_E4typeE>
    5068:	49 89 c7             	mov    %rax,%r15
    506b:	48 8b 85 20 ff ff ff 	mov    -0xe0(%rbp),%rax
    5072:	48 89 c7             	mov    %rax,%rdi
    5075:	e8 72 fd ff ff       	call   4dec <_ZSt7forwardIRiEOT_RNSt16remove_referenceIS1_E4typeE>
    507a:	48 8b 95 10 ff ff ff 	mov    -0xf0(%rbp),%rdx
    5081:	48 89 95 50 ff ff ff 	mov    %rdx,-0xb0(%rbp)
    5088:	48 8b 95 18 ff ff ff 	mov    -0xe8(%rbp),%rdx
    508f:	48 89 95 58 ff ff ff 	mov    %rdx,-0xa8(%rbp)
    5096:	48 89 85 60 ff ff ff 	mov    %rax,-0xa0(%rbp)
    509d:	4c 89 bd 68 ff ff ff 	mov    %r15,-0x98(%rbp)
    50a4:	4c 89 b5 70 ff ff ff 	mov    %r14,-0x90(%rbp)
    50ab:	4c 89 ad 78 ff ff ff 	mov    %r13,-0x88(%rbp)
    50b2:	4c 89 65 80          	mov    %r12,-0x80(%rbp)
    50b6:	48 89 5d 88          	mov    %rbx,-0x78(%rbp)
    50ba:	48 8b 9d 58 ff ff ff 	mov    -0xa8(%rbp),%rbx
    50c1:	48 89 de             	mov    %rbx,%rsi
    50c4:	bf 38 00 00 00       	mov    $0x38,%edi
    50c9:	e8 5c de ff ff       	call   2f2a <_ZnwmPv>
    50ce:	49 89 c4             	mov    %rax,%r12
    50d1:	c6 85 8f fe ff ff 01 	movb   $0x1,-0x171(%rbp)
    50d8:	48 8b 45 88          	mov    -0x78(%rbp),%rax
    50dc:	48 89 c7             	mov    %rax,%rdi
    50df:	e8 08 fd ff ff       	call   4dec <_ZSt7forwardIRiEOT_RNSt16remove_referenceIS1_E4typeE>
    50e4:	8b 00                	mov    (%rax),%eax
    50e6:	89 85 88 fe ff ff    	mov    %eax,-0x178(%rbp)
    50ec:	48 8b 45 80          	mov    -0x80(%rbp),%rax
    50f0:	48 89 c7             	mov    %rax,%rdi
    50f3:	e8 f4 fc ff ff       	call   4dec <_ZSt7forwardIRiEOT_RNSt16remove_referenceIS1_E4typeE>
    50f8:	8b 08                	mov    (%rax),%ecx
    50fa:	89 8d 84 fe ff ff    	mov    %ecx,-0x17c(%rbp)
    5100:	48 8b 85 78 ff ff ff 	mov    -0x88(%rbp),%rax
    5107:	48 89 c7             	mov    %rax,%rdi
    510a:	e8 13 fd ff ff       	call   4e22 <_ZSt7forwardIRfEOT_RNSt16remove_referenceIS1_E4typeE>
    510f:	44 8b 30             	mov    (%rax),%r14d
    5112:	48 8b 85 70 ff ff ff 	mov    -0x90(%rbp),%rax
    5119:	48 89 c7             	mov    %rax,%rdi
    511c:	e8 ef fc ff ff       	call   4e10 <_ZSt7forwardIR4TipoEOT_RNSt16remove_referenceIS2_E4typeE>
    5121:	44 8b 28             	mov    (%rax),%r13d
    5124:	48 8b 85 68 ff ff ff 	mov    -0x98(%rbp),%rax
    512b:	48 89 c7             	mov    %rax,%rdi
    512e:	e8 cb fc ff ff       	call   4dfe <_ZSt7forwardIRKNSt7__cxx1112basic_stringIcSt11char_traitsIcESaIcEEEEOT_RNSt16remove_referenceIS8_E4typeE>
    5133:	49 89 c7             	mov    %rax,%r15
    5136:	48 8b 85 60 ff ff ff 	mov    -0xa0(%rbp),%rax
    513d:	48 89 c7             	mov    %rax,%rdi
    5140:	e8 a7 fc ff ff       	call   4dec <_ZSt7forwardIRiEOT_RNSt16remove_referenceIS1_E4typeE>
    5145:	8b 00                	mov    (%rax),%eax
    5147:	44 8b 8d 88 fe ff ff 	mov    -0x178(%rbp),%r9d
    514e:	44 8b 85 84 fe ff ff 	mov    -0x17c(%rbp),%r8d
    5155:	66 41 0f 6e c6       	movd   %r14d,%xmm0
    515a:	44 89 e9             	mov    %r13d,%ecx
    515d:	4c 89 fa             	mov    %r15,%rdx
    5160:	89 c6                	mov    %eax,%esi
    5162:	4c 89 e7             	mov    %r12,%rdi
    5165:	e8 80 df ff ff       	call   30ea <_ZN6bipoloC1EiRKNSt7__cxx1112basic_stringIcSt11char_traitsIcESaIcEEE4Tipofii>
    516a:	90                   	nop
    516b:	90                   	nop
    516c:	48 c7 85 08 ff ff ff 	movq   $0x0,-0xf8(%rbp)
    5173:	00 00 00 00 
    5177:	48 8b 85 c8 fe ff ff 	mov    -0x138(%rbp),%rax
    517e:	48 89 c7             	mov    %rax,%rdi
    5181:	e8 54 fc ff ff       	call   4dda <_ZNSt12_Vector_baseI6bipoloSaIS0_EE19_M_get_Tp_allocatorEv>
    5186:	48 89 c3             	mov    %rax,%rbx
    5189:	48 8d 85 c0 fe ff ff 	lea    -0x140(%rbp),%rax
    5190:	48 89 c7             	mov    %rax,%rdi
    5193:	e8 fa 06 00 00       	call   5892 <_ZNK9__gnu_cxx17__normal_iteratorIP6bipoloSt6vectorIS1_SaIS1_EEE4baseEv>
    5198:	48 8b 30             	mov    (%rax),%rsi
    519b:	48 8b 95 00 ff ff ff 	mov    -0x100(%rbp),%rdx
    51a2:	48 8b 85 e8 fe ff ff 	mov    -0x118(%rbp),%rax
    51a9:	48 89 d9             	mov    %rbx,%rcx
    51ac:	48 89 c7             	mov    %rax,%rdi
    51af:	e8 cf 14 00 00       	call   6683 <_ZNSt6vectorI6bipoloSaIS0_EE11_S_relocateEPS0_S3_S3_RS1_>
    51b4:	48 89 85 08 ff ff ff 	mov    %rax,-0xf8(%rbp)
    51bb:	48 83 85 08 ff ff ff 	addq   $0x38,-0xf8(%rbp)
    51c2:	38 
    51c3:	48 8b 85 c8 fe ff ff 	mov    -0x138(%rbp),%rax
    51ca:	48 89 c7             	mov    %rax,%rdi
    51cd:	e8 08 fc ff ff       	call   4dda <_ZNSt12_Vector_baseI6bipoloSaIS0_EE19_M_get_Tp_allocatorEv>
    51d2:	48 89 c3             	mov    %rax,%rbx
    51d5:	48 8d 85 c0 fe ff ff 	lea    -0x140(%rbp),%rax
    51dc:	48 89 c7             	mov    %rax,%rdi
    51df:	e8 ae 06 00 00       	call   5892 <_ZNK9__gnu_cxx17__normal_iteratorIP6bipoloSt6vectorIS1_SaIS1_EEE4baseEv>
    51e4:	48 8b 00             	mov    (%rax),%rax
    51e7:	48 8b 95 08 ff ff ff 	mov    -0xf8(%rbp),%rdx
    51ee:	48 8b b5 f0 fe ff ff 	mov    -0x110(%rbp),%rsi
    51f5:	48 89 d9             	mov    %rbx,%rcx
    51f8:	48 89 c7             	mov    %rax,%rdi
    51fb:	e8 83 14 00 00       	call   6683 <_ZNSt6vectorI6bipoloSaIS0_EE11_S_relocateEPS0_S3_S3_RS1_>
    5200:	48 89 85 08 ff ff ff 	mov    %rax,-0xf8(%rbp)
    5207:	48 8b 85 c8 fe ff ff 	mov    -0x138(%rbp),%rax
    520e:	48 8b 95 c8 fe ff ff 	mov    -0x138(%rbp),%rdx
    5215:	48 8b 52 10          	mov    0x10(%rdx),%rdx
    5219:	48 2b 95 e8 fe ff ff 	sub    -0x118(%rbp),%rdx
    5220:	48 89 d1             	mov    %rdx,%rcx
    5223:	48 c1 f9 03          	sar    $0x3,%rcx
    5227:	48 ba b7 6d db b6 6d 	movabs $0x6db6db6db6db6db7,%rdx
    522e:	db b6 6d 
    5231:	48 0f af d1          	imul   %rcx,%rdx
    5235:	48 8b 8d e8 fe ff ff 	mov    -0x118(%rbp),%rcx
    523c:	48 89 ce             	mov    %rcx,%rsi
    523f:	48 89 c7             	mov    %rax,%rdi
    5242:	e8 41 fb ff ff       	call   4d88 <_ZNSt12_Vector_baseI6bipoloSaIS0_EE13_M_deallocateEPS0_m>
    5247:	48 8b 85 c8 fe ff ff 	mov    -0x138(%rbp),%rax
    524e:	48 8b 95 00 ff ff ff 	mov    -0x100(%rbp),%rdx
    5255:	48 89 10             	mov    %rdx,(%rax)
    5258:	48 8b 85 c8 fe ff ff 	mov    -0x138(%rbp),%rax
    525f:	48 8b 95 08 ff ff ff 	mov    -0xf8(%rbp),%rdx
    5266:	48 89 50 08          	mov    %rdx,0x8(%rax)
    526a:	48 8b 95 e0 fe ff ff 	mov    -0x120(%rbp),%rdx
    5271:	48 89 d0             	mov    %rdx,%rax
    5274:	48 c1 e0 03          	shl    $0x3,%rax
    5278:	48 29 d0             	sub    %rdx,%rax
    527b:	48 c1 e0 03          	shl    $0x3,%rax
    527f:	48 89 c2             	mov    %rax,%rdx
    5282:	48 8b 85 00 ff ff ff 	mov    -0x100(%rbp),%rax
    5289:	48 01 c2             	add    %rax,%rdx
    528c:	48 8b 85 c8 fe ff ff 	mov    -0x138(%rbp),%rax
    5293:	48 89 50 10          	mov    %rdx,0x10(%rax)
    5297:	90                   	nop
    5298:	48 8b 45 c8          	mov    -0x38(%rbp),%rax
    529c:	64 48 2b 04 25 28 00 	sub    %fs:0x28,%rax
    52a3:	00 00 
    52a5:	0f 84 2b 01 00 00    	je     53d6 <_ZNSt6vectorI6bipoloSaIS0_EE17_M_realloc_insertIJRiRKNSt7__cxx1112basic_stringIcSt11char_traitsIcESaIcEEER4TipoRfS4_S4_EEEvN9__gnu_cxx17__normal_iteratorIPS0_S2_EEDpOT_+0x5a2>
    52ab:	e9 21 01 00 00       	jmp    53d1 <_ZNSt6vectorI6bipoloSaIS0_EE17_M_realloc_insertIJRiRKNSt7__cxx1112basic_stringIcSt11char_traitsIcESaIcEEER4TipoRfS4_S4_EEEvN9__gnu_cxx17__normal_iteratorIPS0_S2_EEDpOT_+0x59d>
    52b0:	f3 0f 1e fa          	endbr64
    52b4:	49 89 c5             	mov    %rax,%r13
    52b7:	80 bd 8f fe ff ff 00 	cmpb   $0x0,-0x171(%rbp)
    52be:	74 0b                	je     52cb <_ZNSt6vectorI6bipoloSaIS0_EE17_M_realloc_insertIJRiRKNSt7__cxx1112basic_stringIcSt11char_traitsIcESaIcEEER4TipoRfS4_S4_EEEvN9__gnu_cxx17__normal_iteratorIPS0_S2_EEDpOT_+0x497>
    52c0:	48 89 de             	mov    %rbx,%rsi
    52c3:	4c 89 e7             	mov    %r12,%rdi
    52c6:	e8 75 dc ff ff       	call   2f40 <_ZdlPvS_>
    52cb:	4c 89 e8             	mov    %r13,%rax
    52ce:	48 89 c7             	mov    %rax,%rdi
    52d1:	e8 6a cf ff ff       	call   2240 <__cxa_begin_catch@plt>
    52d6:	48 83 bd 08 ff ff ff 	cmpq   $0x0,-0xf8(%rbp)
    52dd:	00 
    52de:	75 50                	jne    5330 <_ZNSt6vectorI6bipoloSaIS0_EE17_M_realloc_insertIJRiRKNSt7__cxx1112basic_stringIcSt11char_traitsIcESaIcEEER4TipoRfS4_S4_EEEvN9__gnu_cxx17__normal_iteratorIPS0_S2_EEDpOT_+0x4fc>
    52e0:	48 8b 95 f8 fe ff ff 	mov    -0x108(%rbp),%rdx
    52e7:	48 89 d0             	mov    %rdx,%rax
    52ea:	48 c1 e0 03          	shl    $0x3,%rax
    52ee:	48 29 d0             	sub    %rdx,%rax
    52f1:	48 c1 e0 03          	shl    $0x3,%rax
    52f5:	48 89 c2             	mov    %rax,%rdx
    52f8:	48 8b 85 00 ff ff ff 	mov    -0x100(%rbp),%rax
    52ff:	48 01 c2             	add    %rax,%rdx
    5302:	48 8b 85 c8 fe ff ff 	mov    -0x138(%rbp),%rax
    5309:	48 89 45 90          	mov    %rax,-0x70(%rbp)
    530d:	48 89 55 98          	mov    %rdx,-0x68(%rbp)
    5311:	48 8b 45 90          	mov    -0x70(%rbp),%rax
    5315:	48 89 45 a0          	mov    %rax,-0x60(%rbp)
    5319:	48 8b 45 98          	mov    -0x68(%rbp),%rax
    531d:	48 89 45 a8          	mov    %rax,-0x58(%rbp)
    5321:	48 8b 45 a8          	mov    -0x58(%rbp),%rax
    5325:	48 89 c7             	mov    %rax,%rdi
    5328:	e8 2f e0 ff ff       	call   335c <_ZN6bipoloD1Ev>
    532d:	90                   	nop
    532e:	eb 3d                	jmp    536d <_ZNSt6vectorI6bipoloSaIS0_EE17_M_realloc_insertIJRiRKNSt7__cxx1112basic_stringIcSt11char_traitsIcESaIcEEER4TipoRfS4_S4_EEEvN9__gnu_cxx17__normal_iteratorIPS0_S2_EEDpOT_+0x539>
    5330:	48 8b 85 c8 fe ff ff 	mov    -0x138(%rbp),%rax
    5337:	48 89 c7             	mov    %rax,%rdi
    533a:	e8 9b fa ff ff       	call   4dda <_ZNSt12_Vector_baseI6bipoloSaIS0_EE19_M_get_Tp_allocatorEv>
    533f:	48 8b 95 00 ff ff ff 	mov    -0x100(%rbp),%rdx
    5346:	48 89 55 b0          	mov    %rdx,-0x50(%rbp)
    534a:	48 8b 95 08 ff ff ff 	mov    -0xf8(%rbp),%rdx
    5351:	48 89 55 b8          	mov    %rdx,-0x48(%rbp)
    5355:	48 89 45 c0          	mov    %rax,-0x40(%rbp)
    5359:	48 8b 55 b8          	mov    -0x48(%rbp),%rdx
    535d:	48 8b 45 b0          	mov    -0x50(%rbp),%rax
    5361:	48 89 d6             	mov    %rdx,%rsi
    5364:	48 89 c7             	mov    %rax,%rdi
    5367:	e8 4c 11 00 00       	call   64b8 <_ZSt8_DestroyIP6bipoloEvT_S2_>
    536c:	90                   	nop
    536d:	48 8b 85 c8 fe ff ff 	mov    -0x138(%rbp),%rax
    5374:	48 8b 95 e0 fe ff ff 	mov    -0x120(%rbp),%rdx
    537b:	48 8b 8d 00 ff ff ff 	mov    -0x100(%rbp),%rcx
    5382:	48 89 ce             	mov    %rcx,%rsi
    5385:	48 89 c7             	mov    %rax,%rdi
    5388:	e8 fb f9 ff ff       	call   4d88 <_ZNSt12_Vector_baseI6bipoloSaIS0_EE13_M_deallocateEPS0_m>
    538d:	48 8b 45 c8          	mov    -0x38(%rbp),%rax
    5391:	64 48 2b 04 25 28 00 	sub    %fs:0x28,%rax
    5398:	00 00 
    539a:	74 05                	je     53a1 <_ZNSt6vectorI6bipoloSaIS0_EE17_M_realloc_insertIJRiRKNSt7__cxx1112basic_stringIcSt11char_traitsIcESaIcEEER4TipoRfS4_S4_EEEvN9__gnu_cxx17__normal_iteratorIPS0_S2_EEDpOT_+0x56d>
    539c:	e8 8f cf ff ff       	call   2330 <__stack_chk_fail@plt>
    53a1:	e8 ca cf ff ff       	call   2370 <__cxa_rethrow@plt>
    53a6:	f3 0f 1e fa          	endbr64
    53aa:	48 89 c3             	mov    %rax,%rbx
    53ad:	e8 ce cf ff ff       	call   2380 <__cxa_end_catch@plt>
    53b2:	48 89 d8             	mov    %rbx,%rax
    53b5:	48 8b 55 c8          	mov    -0x38(%rbp),%rdx
    53b9:	64 48 2b 14 25 28 00 	sub    %fs:0x28,%rdx
    53c0:	00 00 
    53c2:	74 05                	je     53c9 <_ZNSt6vectorI6bipoloSaIS0_EE17_M_realloc_insertIJRiRKNSt7__cxx1112basic_stringIcSt11char_traitsIcESaIcEEER4TipoRfS4_S4_EEEvN9__gnu_cxx17__normal_iteratorIPS0_S2_EEDpOT_+0x595>
    53c4:	e8 67 cf ff ff       	call   2330 <__stack_chk_fail@plt>
    53c9:	48 89 c7             	mov    %rax,%rdi
    53cc:	e8 cf cf ff ff       	call   23a0 <_Unwind_Resume@plt>
    53d1:	e8 5a cf ff ff       	call   2330 <__stack_chk_fail@plt>
    53d6:	48 81 c4 58 01 00 00 	add    $0x158,%rsp
    53dd:	5b                   	pop    %rbx
    53de:	41 5c                	pop    %r12
    53e0:	41 5d                	pop    %r13
    53e2:	41 5e                	pop    %r14
    53e4:	41 5f                	pop    %r15
    53e6:	5d                   	pop    %rbp
    53e7:	c3                   	ret

00000000000053e8 <_ZNSt6vectorI6bipoloSaIS0_EE4backEv>:
    53e8:	f3 0f 1e fa          	endbr64
    53ec:	55                   	push   %rbp
    53ed:	48 89 e5             	mov    %rsp,%rbp
    53f0:	48 83 ec 30          	sub    $0x30,%rsp
    53f4:	48 89 7d d8          	mov    %rdi,-0x28(%rbp)
    53f8:	64 48 8b 04 25 28 00 	mov    %fs:0x28,%rax
    53ff:	00 00 
    5401:	48 89 45 f8          	mov    %rax,-0x8(%rbp)
    5405:	31 c0                	xor    %eax,%eax
    5407:	48 8b 45 d8          	mov    -0x28(%rbp),%rax
    540b:	48 89 c7             	mov    %rax,%rdi
    540e:	e8 e9 ee ff ff       	call   42fc <_ZNSt6vectorI6bipoloSaIS0_EE3endEv>
    5413:	48 89 45 e8          	mov    %rax,-0x18(%rbp)
    5417:	48 8d 45 e8          	lea    -0x18(%rbp),%rax
    541b:	be 01 00 00 00       	mov    $0x1,%esi
    5420:	48 89 c7             	mov    %rax,%rdi
    5423:	e8 92 12 00 00       	call   66ba <_ZNK9__gnu_cxx17__normal_iteratorIP6bipoloSt6vectorIS1_SaIS1_EEEmiEl>
    5428:	48 89 45 f0          	mov    %rax,-0x10(%rbp)
    542c:	48 8d 45 f0          	lea    -0x10(%rbp),%rax
    5430:	48 89 c7             	mov    %rax,%rdi
    5433:	e8 14 ef ff ff       	call   434c <_ZNK9__gnu_cxx17__normal_iteratorIP6bipoloSt6vectorIS1_SaIS1_EEEdeEv>
    5438:	48 8b 55 f8          	mov    -0x8(%rbp),%rdx
    543c:	64 48 2b 14 25 28 00 	sub    %fs:0x28,%rdx
    5443:	00 00 
    5445:	74 05                	je     544c <_ZNSt6vectorI6bipoloSaIS0_EE4backEv+0x64>
    5447:	e8 e4 ce ff ff       	call   2330 <__stack_chk_fail@plt>
    544c:	c9                   	leave
    544d:	c3                   	ret

000000000000544e <_ZSt7forwardIR6bipoloEOT_RNSt16remove_referenceIS2_E4typeE>:
    544e:	f3 0f 1e fa          	endbr64
    5452:	55                   	push   %rbp
    5453:	48 89 e5             	mov    %rsp,%rbp
    5456:	48 89 7d f8          	mov    %rdi,-0x8(%rbp)
    545a:	48 8b 45 f8          	mov    -0x8(%rbp),%rax
    545e:	5d                   	pop    %rbp
    545f:	c3                   	ret

0000000000005460 <_ZNSt6vectorI6bipoloSaIS0_EE17_M_realloc_insertIJRS0_EEEvN9__gnu_cxx17__normal_iteratorIPS0_S2_EEDpOT_>:
    5460:	f3 0f 1e fa          	endbr64
    5464:	55                   	push   %rbp
    5465:	48 89 e5             	mov    %rsp,%rbp
    5468:	41 56                	push   %r14
    546a:	41 55                	push   %r13
    546c:	41 54                	push   %r12
    546e:	53                   	push   %rbx
    546f:	48 81 ec d0 00 00 00 	sub    $0xd0,%rsp
    5476:	48 89 bd 28 ff ff ff 	mov    %rdi,-0xd8(%rbp)
    547d:	48 89 b5 20 ff ff ff 	mov    %rsi,-0xe0(%rbp)
    5484:	48 89 95 18 ff ff ff 	mov    %rdx,-0xe8(%rbp)
    548b:	64 48 8b 04 25 28 00 	mov    %fs:0x28,%rax
    5492:	00 00 
    5494:	48 89 45 d8          	mov    %rax,-0x28(%rbp)
    5498:	31 c0                	xor    %eax,%eax
    549a:	48 8b 85 28 ff ff ff 	mov    -0xd8(%rbp),%rax
    54a1:	48 8d 15 d8 3d 00 00 	lea    0x3dd8(%rip),%rdx        # 9280 <_ZN5Eigen8internalL18defaultL3CacheSizeE+0x218>
    54a8:	be 01 00 00 00       	mov    $0x1,%esi
    54ad:	48 89 c7             	mov    %rax,%rdi
    54b0:	e8 2d 10 00 00       	call   64e2 <_ZNKSt6vectorI6bipoloSaIS0_EE12_M_check_lenEmPKc>
    54b5:	48 89 85 40 ff ff ff 	mov    %rax,-0xc0(%rbp)
    54bc:	48 8b 85 28 ff ff ff 	mov    -0xd8(%rbp),%rax
    54c3:	48 8b 00             	mov    (%rax),%rax
    54c6:	48 89 85 48 ff ff ff 	mov    %rax,-0xb8(%rbp)
    54cd:	48 8b 85 28 ff ff ff 	mov    -0xd8(%rbp),%rax
    54d4:	48 8b 40 08          	mov    0x8(%rax),%rax
    54d8:	48 89 85 50 ff ff ff 	mov    %rax,-0xb0(%rbp)
    54df:	48 8b 85 28 ff ff ff 	mov    -0xd8(%rbp),%rax
    54e6:	48 89 c7             	mov    %rax,%rdi
    54e9:	e8 c2 ed ff ff       	call   42b0 <_ZNSt6vectorI6bipoloSaIS0_EE5beginEv>
    54ee:	48 89 85 38 ff ff ff 	mov    %rax,-0xc8(%rbp)
    54f5:	48 8d 95 38 ff ff ff 	lea    -0xc8(%rbp),%rdx
    54fc:	48 8d 85 20 ff ff ff 	lea    -0xe0(%rbp),%rax
    5503:	48 89 d6             	mov    %rdx,%rsi
    5506:	48 89 c7             	mov    %rax,%rdi
    5509:	e8 d7 10 00 00       	call   65e5 <_ZN9__gnu_cxxmiIP6bipoloSt6vectorIS1_SaIS1_EEEENS_17__normal_iteratorIT_T0_E15difference_typeERKS9_SC_>
    550e:	48 89 85 58 ff ff ff 	mov    %rax,-0xa8(%rbp)
    5515:	48 8b 85 28 ff ff ff 	mov    -0xd8(%rbp),%rax
    551c:	48 8b 95 40 ff ff ff 	mov    -0xc0(%rbp),%rdx
    5523:	48 89 d6             	mov    %rdx,%rsi
    5526:	48 89 c7             	mov    %rax,%rdi
    5529:	e8 08 11 00 00       	call   6636 <_ZNSt12_Vector_baseI6bipoloSaIS0_EE11_M_allocateEm>
    552e:	48 89 85 60 ff ff ff 	mov    %rax,-0xa0(%rbp)
    5535:	48 8b 85 60 ff ff ff 	mov    -0xa0(%rbp),%rax
    553c:	48 89 85 68 ff ff ff 	mov    %rax,-0x98(%rbp)
    5543:	48 8b 85 18 ff ff ff 	mov    -0xe8(%rbp),%rax
    554a:	48 89 c7             	mov    %rax,%rdi
    554d:	e8 fc fe ff ff       	call   544e <_ZSt7forwardIR6bipoloEOT_RNSt16remove_referenceIS2_E4typeE>
    5552:	48 89 c1             	mov    %rax,%rcx
    5555:	48 8b 95 58 ff ff ff 	mov    -0xa8(%rbp),%rdx
    555c:	48 89 d0             	mov    %rdx,%rax
    555f:	48 c1 e0 03          	shl    $0x3,%rax
    5563:	48 29 d0             	sub    %rdx,%rax
    5566:	48 c1 e0 03          	shl    $0x3,%rax
    556a:	48 89 c2             	mov    %rax,%rdx
    556d:	48 8b 85 60 ff ff ff 	mov    -0xa0(%rbp),%rax
    5574:	48 01 c2             	add    %rax,%rdx
    5577:	48 8b 85 28 ff ff ff 	mov    -0xd8(%rbp),%rax
    557e:	48 89 85 70 ff ff ff 	mov    %rax,-0x90(%rbp)
    5585:	48 89 95 78 ff ff ff 	mov    %rdx,-0x88(%rbp)
    558c:	48 89 4d 80          	mov    %rcx,-0x80(%rbp)
    5590:	48 8b 45 80          	mov    -0x80(%rbp),%rax
    5594:	48 89 c7             	mov    %rax,%rdi
    5597:	e8 b2 fe ff ff       	call   544e <_ZSt7forwardIR6bipoloEOT_RNSt16remove_referenceIS2_E4typeE>
    559c:	48 8b 95 70 ff ff ff 	mov    -0x90(%rbp),%rdx
    55a3:	48 89 55 88          	mov    %rdx,-0x78(%rbp)
    55a7:	48 8b 95 78 ff ff ff 	mov    -0x88(%rbp),%rdx
    55ae:	48 89 55 90          	mov    %rdx,-0x70(%rbp)
    55b2:	48 89 45 98          	mov    %rax,-0x68(%rbp)
    55b6:	48 8b 5d 90          	mov    -0x70(%rbp),%rbx
    55ba:	48 89 de             	mov    %rbx,%rsi
    55bd:	bf 38 00 00 00       	mov    $0x38,%edi
    55c2:	e8 63 d9 ff ff       	call   2f2a <_ZnwmPv>
    55c7:	49 89 c4             	mov    %rax,%r12
    55ca:	41 be 01 00 00 00    	mov    $0x1,%r14d
    55d0:	48 8b 45 98          	mov    -0x68(%rbp),%rax
    55d4:	48 89 c7             	mov    %rax,%rdi
    55d7:	e8 72 fe ff ff       	call   544e <_ZSt7forwardIR6bipoloEOT_RNSt16remove_referenceIS2_E4typeE>
    55dc:	48 89 c6             	mov    %rax,%rsi
    55df:	4c 89 e7             	mov    %r12,%rdi
    55e2:	e8 fb dc ff ff       	call   32e2 <_ZN6bipoloC1ERKS_>
    55e7:	90                   	nop
    55e8:	90                   	nop
    55e9:	48 c7 85 68 ff ff ff 	movq   $0x0,-0x98(%rbp)
    55f0:	00 00 00 00 
    55f4:	48 8b 85 28 ff ff ff 	mov    -0xd8(%rbp),%rax
    55fb:	48 89 c7             	mov    %rax,%rdi
    55fe:	e8 d7 f7 ff ff       	call   4dda <_ZNSt12_Vector_baseI6bipoloSaIS0_EE19_M_get_Tp_allocatorEv>
    5603:	48 89 c3             	mov    %rax,%rbx
    5606:	48 8d 85 20 ff ff ff 	lea    -0xe0(%rbp),%rax
    560d:	48 89 c7             	mov    %rax,%rdi
    5610:	e8 7d 02 00 00       	call   5892 <_ZNK9__gnu_cxx17__normal_iteratorIP6bipoloSt6vectorIS1_SaIS1_EEE4baseEv>
    5615:	48 8b 30             	mov    (%rax),%rsi
    5618:	48 8b 95 60 ff ff ff 	mov    -0xa0(%rbp),%rdx
    561f:	48 8b 85 48 ff ff ff 	mov    -0xb8(%rbp),%rax
    5626:	48 89 d9             	mov    %rbx,%rcx
    5629:	48 89 c7             	mov    %rax,%rdi
    562c:	e8 52 10 00 00       	call   6683 <_ZNSt6vectorI6bipoloSaIS0_EE11_S_relocateEPS0_S3_S3_RS1_>
    5631:	48 89 85 68 ff ff ff 	mov    %rax,-0x98(%rbp)
    5638:	48 83 85 68 ff ff ff 	addq   $0x38,-0x98(%rbp)
    563f:	38 
    5640:	48 8b 85 28 ff ff ff 	mov    -0xd8(%rbp),%rax
    5647:	48 89 c7             	mov    %rax,%rdi
    564a:	e8 8b f7 ff ff       	call   4dda <_ZNSt12_Vector_baseI6bipoloSaIS0_EE19_M_get_Tp_allocatorEv>
    564f:	48 89 c3             	mov    %rax,%rbx
    5652:	48 8d 85 20 ff ff ff 	lea    -0xe0(%rbp),%rax
    5659:	48 89 c7             	mov    %rax,%rdi
    565c:	e8 31 02 00 00       	call   5892 <_ZNK9__gnu_cxx17__normal_iteratorIP6bipoloSt6vectorIS1_SaIS1_EEE4baseEv>
    5661:	48 8b 00             	mov    (%rax),%rax
    5664:	48 8b 95 68 ff ff ff 	mov    -0x98(%rbp),%rdx
    566b:	48 8b b5 50 ff ff ff 	mov    -0xb0(%rbp),%rsi
    5672:	48 89 d9             	mov    %rbx,%rcx
    5675:	48 89 c7             	mov    %rax,%rdi
    5678:	e8 06 10 00 00       	call   6683 <_ZNSt6vectorI6bipoloSaIS0_EE11_S_relocateEPS0_S3_S3_RS1_>
    567d:	48 89 85 68 ff ff ff 	mov    %rax,-0x98(%rbp)
    5684:	48 8b 85 28 ff ff ff 	mov    -0xd8(%rbp),%rax
    568b:	48 8b 95 28 ff ff ff 	mov    -0xd8(%rbp),%rdx
    5692:	48 8b 52 10          	mov    0x10(%rdx),%rdx
    5696:	48 2b 95 48 ff ff ff 	sub    -0xb8(%rbp),%rdx
    569d:	48 89 d1             	mov    %rdx,%rcx
    56a0:	48 c1 f9 03          	sar    $0x3,%rcx
    56a4:	48 ba b7 6d db b6 6d 	movabs $0x6db6db6db6db6db7,%rdx
    56ab:	db b6 6d 
    56ae:	48 0f af d1          	imul   %rcx,%rdx
    56b2:	48 8b 8d 48 ff ff ff 	mov    -0xb8(%rbp),%rcx
    56b9:	48 89 ce             	mov    %rcx,%rsi
    56bc:	48 89 c7             	mov    %rax,%rdi
    56bf:	e8 c4 f6 ff ff       	call   4d88 <_ZNSt12_Vector_baseI6bipoloSaIS0_EE13_M_deallocateEPS0_m>
    56c4:	48 8b 85 28 ff ff ff 	mov    -0xd8(%rbp),%rax
    56cb:	48 8b 95 60 ff ff ff 	mov    -0xa0(%rbp),%rdx
    56d2:	48 89 10             	mov    %rdx,(%rax)
    56d5:	48 8b 85 28 ff ff ff 	mov    -0xd8(%rbp),%rax
    56dc:	48 8b 95 68 ff ff ff 	mov    -0x98(%rbp),%rdx
    56e3:	48 89 50 08          	mov    %rdx,0x8(%rax)
    56e7:	48 8b 95 40 ff ff ff 	mov    -0xc0(%rbp),%rdx
    56ee:	48 89 d0             	mov    %rdx,%rax
    56f1:	48 c1 e0 03          	shl    $0x3,%rax
    56f5:	48 29 d0             	sub    %rdx,%rax
    56f8:	48 c1 e0 03          	shl    $0x3,%rax
    56fc:	48 89 c2             	mov    %rax,%rdx
    56ff:	48 8b 85 60 ff ff ff 	mov    -0xa0(%rbp),%rax
    5706:	48 01 c2             	add    %rax,%rdx
    5709:	48 8b 85 28 ff ff ff 	mov    -0xd8(%rbp),%rax
    5710:	48 89 50 10          	mov    %rdx,0x10(%rax)
    5714:	90                   	nop
    5715:	48 8b 45 d8          	mov    -0x28(%rbp),%rax
    5719:	64 48 2b 04 25 28 00 	sub    %fs:0x28,%rax
    5720:	00 00 
    5722:	0f 84 27 01 00 00    	je     584f <_ZNSt6vectorI6bipoloSaIS0_EE17_M_realloc_insertIJRS0_EEEvN9__gnu_cxx17__normal_iteratorIPS0_S2_EEDpOT_+0x3ef>
    5728:	e9 1d 01 00 00       	jmp    584a <_ZNSt6vectorI6bipoloSaIS0_EE17_M_realloc_insertIJRS0_EEEvN9__gnu_cxx17__normal_iteratorIPS0_S2_EEDpOT_+0x3ea>
    572d:	f3 0f 1e fa          	endbr64
    5731:	49 89 c5             	mov    %rax,%r13
    5734:	45 84 f6             	test   %r14b,%r14b
    5737:	74 0b                	je     5744 <_ZNSt6vectorI6bipoloSaIS0_EE17_M_realloc_insertIJRS0_EEEvN9__gnu_cxx17__normal_iteratorIPS0_S2_EEDpOT_+0x2e4>
    5739:	48 89 de             	mov    %rbx,%rsi
    573c:	4c 89 e7             	mov    %r12,%rdi
    573f:	e8 fc d7 ff ff       	call   2f40 <_ZdlPvS_>
    5744:	4c 89 e8             	mov    %r13,%rax
    5747:	48 89 c7             	mov    %rax,%rdi
    574a:	e8 f1 ca ff ff       	call   2240 <__cxa_begin_catch@plt>
    574f:	48 83 bd 68 ff ff ff 	cmpq   $0x0,-0x98(%rbp)
    5756:	00 
    5757:	75 50                	jne    57a9 <_ZNSt6vectorI6bipoloSaIS0_EE17_M_realloc_insertIJRS0_EEEvN9__gnu_cxx17__normal_iteratorIPS0_S2_EEDpOT_+0x349>
    5759:	48 8b 95 58 ff ff ff 	mov    -0xa8(%rbp),%rdx
    5760:	48 89 d0             	mov    %rdx,%rax
    5763:	48 c1 e0 03          	shl    $0x3,%rax
    5767:	48 29 d0             	sub    %rdx,%rax
    576a:	48 c1 e0 03          	shl    $0x3,%rax
    576e:	48 89 c2             	mov    %rax,%rdx
    5771:	48 8b 85 60 ff ff ff 	mov    -0xa0(%rbp),%rax
    5778:	48 01 c2             	add    %rax,%rdx
    577b:	48 8b 85 28 ff ff ff 	mov    -0xd8(%rbp),%rax
    5782:	48 89 45 a0          	mov    %rax,-0x60(%rbp)
    5786:	48 89 55 a8          	mov    %rdx,-0x58(%rbp)
    578a:	48 8b 45 a0          	mov    -0x60(%rbp),%rax
    578e:	48 89 45 b0          	mov    %rax,-0x50(%rbp)
    5792:	48 8b 45 a8          	mov    -0x58(%rbp),%rax
    5796:	48 89 45 b8          	mov    %rax,-0x48(%rbp)
    579a:	48 8b 45 b8          	mov    -0x48(%rbp),%rax
    579e:	48 89 c7             	mov    %rax,%rdi
    57a1:	e8 b6 db ff ff       	call   335c <_ZN6bipoloD1Ev>
    57a6:	90                   	nop
    57a7:	eb 3d                	jmp    57e6 <_ZNSt6vectorI6bipoloSaIS0_EE17_M_realloc_insertIJRS0_EEEvN9__gnu_cxx17__normal_iteratorIPS0_S2_EEDpOT_+0x386>
    57a9:	48 8b 85 28 ff ff ff 	mov    -0xd8(%rbp),%rax
    57b0:	48 89 c7             	mov    %rax,%rdi
    57b3:	e8 22 f6 ff ff       	call   4dda <_ZNSt12_Vector_baseI6bipoloSaIS0_EE19_M_get_Tp_allocatorEv>
    57b8:	48 8b 95 60 ff ff ff 	mov    -0xa0(%rbp),%rdx
    57bf:	48 89 55 c0          	mov    %rdx,-0x40(%rbp)
    57c3:	48 8b 95 68 ff ff ff 	mov    -0x98(%rbp),%rdx
    57ca:	48 89 55 c8          	mov    %rdx,-0x38(%rbp)
    57ce:	48 89 45 d0          	mov    %rax,-0x30(%rbp)
    57d2:	48 8b 55 c8          	mov    -0x38(%rbp),%rdx
    57d6:	48 8b 45 c0          	mov    -0x40(%rbp),%rax
    57da:	48 89 d6             	mov    %rdx,%rsi
    57dd:	48 89 c7             	mov    %rax,%rdi
    57e0:	e8 d3 0c 00 00       	call   64b8 <_ZSt8_DestroyIP6bipoloEvT_S2_>
    57e5:	90                   	nop
    57e6:	48 8b 85 28 ff ff ff 	mov    -0xd8(%rbp),%rax
    57ed:	48 8b 95 40 ff ff ff 	mov    -0xc0(%rbp),%rdx
    57f4:	48 8b 8d 60 ff ff ff 	mov    -0xa0(%rbp),%rcx
    57fb:	48 89 ce             	mov    %rcx,%rsi
    57fe:	48 89 c7             	mov    %rax,%rdi
    5801:	e8 82 f5 ff ff       	call   4d88 <_ZNSt12_Vector_baseI6bipoloSaIS0_EE13_M_deallocateEPS0_m>
    5806:	48 8b 45 d8          	mov    -0x28(%rbp),%rax
    580a:	64 48 2b 04 25 28 00 	sub    %fs:0x28,%rax
    5811:	00 00 
    5813:	74 05                	je     581a <_ZNSt6vectorI6bipoloSaIS0_EE17_M_realloc_insertIJRS0_EEEvN9__gnu_cxx17__normal_iteratorIPS0_S2_EEDpOT_+0x3ba>
    5815:	e8 16 cb ff ff       	call   2330 <__stack_chk_fail@plt>
    581a:	e8 51 cb ff ff       	call   2370 <__cxa_rethrow@plt>
    581f:	f3 0f 1e fa          	endbr64
    5823:	48 89 c3             	mov    %rax,%rbx
    5826:	e8 55 cb ff ff       	call   2380 <__cxa_end_catch@plt>
    582b:	48 89 d8             	mov    %rbx,%rax
    582e:	48 8b 55 d8          	mov    -0x28(%rbp),%rdx
    5832:	64 48 2b 14 25 28 00 	sub    %fs:0x28,%rdx
    5839:	00 00 
    583b:	74 05                	je     5842 <_ZNSt6vectorI6bipoloSaIS0_EE17_M_realloc_insertIJRS0_EEEvN9__gnu_cxx17__normal_iteratorIPS0_S2_EEDpOT_+0x3e2>
    583d:	e8 ee ca ff ff       	call   2330 <__stack_chk_fail@plt>
    5842:	48 89 c7             	mov    %rax,%rdi
    5845:	e8 56 cb ff ff       	call   23a0 <_Unwind_Resume@plt>
    584a:	e8 e1 ca ff ff       	call   2330 <__stack_chk_fail@plt>
    584f:	48 81 c4 d0 00 00 00 	add    $0xd0,%rsp
    5856:	5b                   	pop    %rbx
    5857:	41 5c                	pop    %r12
    5859:	41 5d                	pop    %r13
    585b:	41 5e                	pop    %r14
    585d:	5d                   	pop    %rbp
    585e:	c3                   	ret
    585f:	90                   	nop

0000000000005860 <_ZNSt20_Rb_tree_key_compareISt4lessIiEEC1Ev>:
    5860:	f3 0f 1e fa          	endbr64
    5864:	55                   	push   %rbp
    5865:	48 89 e5             	mov    %rsp,%rbp
    5868:	48 89 7d f8          	mov    %rdi,-0x8(%rbp)
    586c:	90                   	nop
    586d:	5d                   	pop    %rbp
    586e:	c3                   	ret
    586f:	90                   	nop

0000000000005870 <_ZN9__gnu_cxx17__normal_iteratorIP6bipoloSt6vectorIS1_SaIS1_EEEC1ERKS2_>:
    5870:	f3 0f 1e fa          	endbr64
    5874:	55                   	push   %rbp
    5875:	48 89 e5             	mov    %rsp,%rbp
    5878:	48 89 7d f8          	mov    %rdi,-0x8(%rbp)
    587c:	48 89 75 f0          	mov    %rsi,-0x10(%rbp)
    5880:	48 8b 45 f0          	mov    -0x10(%rbp),%rax
    5884:	48 8b 10             	mov    (%rax),%rdx
    5887:	48 8b 45 f8          	mov    -0x8(%rbp),%rax
    588b:	48 89 10             	mov    %rdx,(%rax)
    588e:	90                   	nop
    588f:	5d                   	pop    %rbp
    5890:	c3                   	ret
    5891:	90                   	nop

0000000000005892 <_ZNK9__gnu_cxx17__normal_iteratorIP6bipoloSt6vectorIS1_SaIS1_EEE4baseEv>:
    5892:	f3 0f 1e fa          	endbr64
    5896:	55                   	push   %rbp
    5897:	48 89 e5             	mov    %rsp,%rbp
    589a:	48 89 7d f8          	mov    %rdi,-0x8(%rbp)
    589e:	48 8b 45 f8          	mov    -0x8(%rbp),%rax
    58a2:	5d                   	pop    %rbp
    58a3:	c3                   	ret

00000000000058a4 <_ZNKSt4lessIiEclERKiS2_>:
    58a4:	f3 0f 1e fa          	endbr64
    58a8:	55                   	push   %rbp
    58a9:	48 89 e5             	mov    %rsp,%rbp
    58ac:	48 89 7d f8          	mov    %rdi,-0x8(%rbp)
    58b0:	48 89 75 f0          	mov    %rsi,-0x10(%rbp)
    58b4:	48 89 55 e8          	mov    %rdx,-0x18(%rbp)
    58b8:	48 8b 45 f0          	mov    -0x10(%rbp),%rax
    58bc:	8b 10                	mov    (%rax),%edx
    58be:	48 8b 45 e8          	mov    -0x18(%rbp),%rax
    58c2:	8b 00                	mov    (%rax),%eax
    58c4:	39 c2                	cmp    %eax,%edx
    58c6:	0f 9c c0             	setl   %al
    58c9:	5d                   	pop    %rbp
    58ca:	c3                   	ret

00000000000058cb <_ZSt4moveIRSt5tupleIJP14ExpressionNodeSt14default_deleteIS1_EEEEONSt16remove_referenceIT_E4typeEOS8_>:
    58cb:	f3 0f 1e fa          	endbr64
    58cf:	55                   	push   %rbp
    58d0:	48 89 e5             	mov    %rsp,%rbp
    58d3:	48 89 7d f8          	mov    %rdi,-0x8(%rbp)
    58d7:	48 8b 45 f8          	mov    -0x8(%rbp),%rax
    58db:	5d                   	pop    %rbp
    58dc:	c3                   	ret
    58dd:	90                   	nop

00000000000058de <_ZNSt11_Tuple_implILm1EJSt14default_deleteI14ExpressionNodeEEEC1EOS3_>:
    58de:	f3 0f 1e fa          	endbr64
    58e2:	55                   	push   %rbp
    58e3:	48 89 e5             	mov    %rsp,%rbp
    58e6:	48 89 7d f8          	mov    %rdi,-0x8(%rbp)
    58ea:	48 89 75 f0          	mov    %rsi,-0x10(%rbp)
    58ee:	90                   	nop
    58ef:	5d                   	pop    %rbp
    58f0:	c3                   	ret
    58f1:	90                   	nop

00000000000058f2 <_ZNSt15__uniq_ptr_implI14ExpressionNodeSt14default_deleteIS0_EE6_M_ptrEv>:
    58f2:	f3 0f 1e fa          	endbr64
    58f6:	55                   	push   %rbp
    58f7:	48 89 e5             	mov    %rsp,%rbp
    58fa:	48 83 ec 10          	sub    $0x10,%rsp
    58fe:	48 89 7d f8          	mov    %rdi,-0x8(%rbp)
    5902:	48 8b 45 f8          	mov    -0x8(%rbp),%rax
    5906:	48 89 c7             	mov    %rax,%rdi
    5909:	e8 1f 0e 00 00       	call   672d <_ZSt3getILm0EJP14ExpressionNodeSt14default_deleteIS0_EEERNSt13tuple_elementIXT_ESt5tupleIJDpT0_EEE4typeERS8_>
    590e:	c9                   	leave
    590f:	c3                   	ret

0000000000005910 <_ZNSt10unique_ptrI14ExpressionNodeSt14default_deleteIS0_EE11get_deleterEv>:
    5910:	f3 0f 1e fa          	endbr64
    5914:	55                   	push   %rbp
    5915:	48 89 e5             	mov    %rsp,%rbp
    5918:	48 83 ec 10          	sub    $0x10,%rsp
    591c:	48 89 7d f8          	mov    %rdi,-0x8(%rbp)
    5920:	48 8b 45 f8          	mov    -0x8(%rbp),%rax
    5924:	48 89 c7             	mov    %rax,%rdi
    5927:	e8 d8 06 00 00       	call   6004 <_ZNSt15__uniq_ptr_implI14ExpressionNodeSt14default_deleteIS0_EE10_M_deleterEv>
    592c:	c9                   	leave
    592d:	c3                   	ret

000000000000592e <_ZSt4moveIRP14ExpressionNodeEONSt16remove_referenceIT_E4typeEOS4_>:
    592e:	f3 0f 1e fa          	endbr64
    5932:	55                   	push   %rbp
    5933:	48 89 e5             	mov    %rsp,%rbp
    5936:	48 89 7d f8          	mov    %rdi,-0x8(%rbp)
    593a:	48 8b 45 f8          	mov    -0x8(%rbp),%rax
    593e:	5d                   	pop    %rbp
    593f:	c3                   	ret

0000000000005940 <_ZNKSt14default_deleteI14ExpressionNodeEclEPS0_>:
    5940:	f3 0f 1e fa          	endbr64
    5944:	55                   	push   %rbp
    5945:	48 89 e5             	mov    %rsp,%rbp
    5948:	48 83 ec 10          	sub    $0x10,%rsp
    594c:	48 89 7d f8          	mov    %rdi,-0x8(%rbp)
    5950:	48 89 75 f0          	mov    %rsi,-0x10(%rbp)
    5954:	48 8b 45 f0          	mov    -0x10(%rbp),%rax
    5958:	48 85 c0             	test   %rax,%rax
    595b:	74 0f                	je     596c <_ZNKSt14default_deleteI14ExpressionNodeEclEPS0_+0x2c>
    595d:	48 8b 10             	mov    (%rax),%rdx
    5960:	48 83 c2 10          	add    $0x10,%rdx
    5964:	48 8b 12             	mov    (%rdx),%rdx
    5967:	48 89 c7             	mov    %rax,%rdi
    596a:	ff d2                	call   *%rdx
    596c:	90                   	nop
    596d:	c9                   	leave
    596e:	c3                   	ret
    596f:	90                   	nop

0000000000005970 <_ZNKSt10unique_ptrI14ExpressionNodeSt14default_deleteIS0_EE3getEv>:
    5970:	f3 0f 1e fa          	endbr64
    5974:	55                   	push   %rbp
    5975:	48 89 e5             	mov    %rsp,%rbp
    5978:	48 83 ec 10          	sub    $0x10,%rsp
    597c:	48 89 7d f8          	mov    %rdi,-0x8(%rbp)
    5980:	48 8b 45 f8          	mov    -0x8(%rbp),%rax
    5984:	48 89 c7             	mov    %rax,%rdi
    5987:	e8 c0 0d 00 00       	call   674c <_ZNKSt15__uniq_ptr_implI14ExpressionNodeSt14default_deleteIS0_EE6_M_ptrEv>
    598c:	c9                   	leave
    598d:	c3                   	ret

000000000000598e <_ZNSt20_Rb_tree_key_compareISt4lessI6bipoloEEC1Ev>:
    598e:	f3 0f 1e fa          	endbr64
    5992:	55                   	push   %rbp
    5993:	48 89 e5             	mov    %rsp,%rbp
    5996:	48 89 7d f8          	mov    %rdi,-0x8(%rbp)
    599a:	90                   	nop
    599b:	5d                   	pop    %rbp
    599c:	c3                   	ret
    599d:	90                   	nop

000000000000599e <_ZNSt15__new_allocatorISt13_Rb_tree_nodeI6bipoloEED1Ev>:
    599e:	f3 0f 1e fa          	endbr64
    59a2:	55                   	push   %rbp
    59a3:	48 89 e5             	mov    %rsp,%rbp
    59a6:	48 89 7d f8          	mov    %rdi,-0x8(%rbp)
    59aa:	90                   	nop
    59ab:	5d                   	pop    %rbp
    59ac:	c3                   	ret
    59ad:	90                   	nop

00000000000059ae <_ZNSt8_Rb_treeI6bipoloS0_St9_IdentityIS0_ESt4lessIS0_ESaIS0_EE8_M_eraseEPSt13_Rb_tree_nodeIS0_E>:
    59ae:	f3 0f 1e fa          	endbr64
    59b2:	55                   	push   %rbp
    59b3:	48 89 e5             	mov    %rsp,%rbp
    59b6:	48 83 ec 20          	sub    $0x20,%rsp
    59ba:	48 89 7d e8          	mov    %rdi,-0x18(%rbp)
    59be:	48 89 75 e0          	mov    %rsi,-0x20(%rbp)
    59c2:	eb 49                	jmp    5a0d <_ZNSt8_Rb_treeI6bipoloS0_St9_IdentityIS0_ESt4lessIS0_ESaIS0_EE8_M_eraseEPSt13_Rb_tree_nodeIS0_E+0x5f>
    59c4:	48 8b 45 e0          	mov    -0x20(%rbp),%rax
    59c8:	48 89 c7             	mov    %rax,%rdi
    59cb:	e8 9d 0d 00 00       	call   676d <_ZNSt8_Rb_treeI6bipoloS0_St9_IdentityIS0_ESt4lessIS0_ESaIS0_EE8_S_rightEPSt18_Rb_tree_node_base>
    59d0:	48 89 c2             	mov    %rax,%rdx
    59d3:	48 8b 45 e8          	mov    -0x18(%rbp),%rax
    59d7:	48 89 d6             	mov    %rdx,%rsi
    59da:	48 89 c7             	mov    %rax,%rdi
    59dd:	e8 cc ff ff ff       	call   59ae <_ZNSt8_Rb_treeI6bipoloS0_St9_IdentityIS0_ESt4lessIS0_ESaIS0_EE8_M_eraseEPSt13_Rb_tree_nodeIS0_E>
    59e2:	48 8b 45 e0          	mov    -0x20(%rbp),%rax
    59e6:	48 89 c7             	mov    %rax,%rdi
    59e9:	e8 95 0d 00 00       	call   6783 <_ZNSt8_Rb_treeI6bipoloS0_St9_IdentityIS0_ESt4lessIS0_ESaIS0_EE7_S_leftEPSt18_Rb_tree_node_base>
    59ee:	48 89 45 f8          	mov    %rax,-0x8(%rbp)
    59f2:	48 8b 55 e0          	mov    -0x20(%rbp),%rdx
    59f6:	48 8b 45 e8          	mov    -0x18(%rbp),%rax
    59fa:	48 89 d6             	mov    %rdx,%rsi
    59fd:	48 89 c7             	mov    %rax,%rdi
    5a00:	e8 95 0d 00 00       	call   679a <_ZNSt8_Rb_treeI6bipoloS0_St9_IdentityIS0_ESt4lessIS0_ESaIS0_EE12_M_drop_nodeEPSt13_Rb_tree_nodeIS0_E>
    5a05:	48 8b 45 f8          	mov    -0x8(%rbp),%rax
    5a09:	48 89 45 e0          	mov    %rax,-0x20(%rbp)
    5a0d:	48 83 7d e0 00       	cmpq   $0x0,-0x20(%rbp)
    5a12:	75 b0                	jne    59c4 <_ZNSt8_Rb_treeI6bipoloS0_St9_IdentityIS0_ESt4lessIS0_ESaIS0_EE8_M_eraseEPSt13_Rb_tree_nodeIS0_E+0x16>
    5a14:	90                   	nop
    5a15:	90                   	nop
    5a16:	c9                   	leave
    5a17:	c3                   	ret

0000000000005a18 <_ZNSt8_Rb_treeI6bipoloS0_St9_IdentityIS0_ESt4lessIS0_ESaIS0_EE8_M_beginEv>:
    5a18:	f3 0f 1e fa          	endbr64
    5a1c:	55                   	push   %rbp
    5a1d:	48 89 e5             	mov    %rsp,%rbp
    5a20:	48 83 ec 10          	sub    $0x10,%rsp
    5a24:	48 89 7d f8          	mov    %rdi,-0x8(%rbp)
    5a28:	48 8b 45 f8          	mov    -0x8(%rbp),%rax
    5a2c:	48 89 c7             	mov    %rax,%rdi
    5a2f:	e8 a4 0d 00 00       	call   67d8 <_ZNKSt8_Rb_treeI6bipoloS0_St9_IdentityIS0_ESt4lessIS0_ESaIS0_EE9_M_mbeginEv>
    5a34:	c9                   	leave
    5a35:	c3                   	ret

0000000000005a36 <_ZNSt15__new_allocatorISt13_Rb_tree_nodeIiEED1Ev>:
    5a36:	f3 0f 1e fa          	endbr64
    5a3a:	55                   	push   %rbp
    5a3b:	48 89 e5             	mov    %rsp,%rbp
    5a3e:	48 89 7d f8          	mov    %rdi,-0x8(%rbp)
    5a42:	90                   	nop
    5a43:	5d                   	pop    %rbp
    5a44:	c3                   	ret
    5a45:	90                   	nop

0000000000005a46 <_ZNSt8_Rb_treeIiiSt9_IdentityIiESt4lessIiESaIiEE8_M_eraseEPSt13_Rb_tree_nodeIiE>:
    5a46:	f3 0f 1e fa          	endbr64
    5a4a:	55                   	push   %rbp
    5a4b:	48 89 e5             	mov    %rsp,%rbp
    5a4e:	48 83 ec 20          	sub    $0x20,%rsp
    5a52:	48 89 7d e8          	mov    %rdi,-0x18(%rbp)
    5a56:	48 89 75 e0          	mov    %rsi,-0x20(%rbp)
    5a5a:	eb 49                	jmp    5aa5 <_ZNSt8_Rb_treeIiiSt9_IdentityIiESt4lessIiESaIiEE8_M_eraseEPSt13_Rb_tree_nodeIiE+0x5f>
    5a5c:	48 8b 45 e0          	mov    -0x20(%rbp),%rax
    5a60:	48 89 c7             	mov    %rax,%rdi
    5a63:	e8 86 0d 00 00       	call   67ee <_ZNSt8_Rb_treeIiiSt9_IdentityIiESt4lessIiESaIiEE8_S_rightEPSt18_Rb_tree_node_base>
    5a68:	48 89 c2             	mov    %rax,%rdx
    5a6b:	48 8b 45 e8          	mov    -0x18(%rbp),%rax
    5a6f:	48 89 d6             	mov    %rdx,%rsi
    5a72:	48 89 c7             	mov    %rax,%rdi
    5a75:	e8 cc ff ff ff       	call   5a46 <_ZNSt8_Rb_treeIiiSt9_IdentityIiESt4lessIiESaIiEE8_M_eraseEPSt13_Rb_tree_nodeIiE>
    5a7a:	48 8b 45 e0          	mov    -0x20(%rbp),%rax
    5a7e:	48 89 c7             	mov    %rax,%rdi
    5a81:	e8 7e 0d 00 00       	call   6804 <_ZNSt8_Rb_treeIiiSt9_IdentityIiESt4lessIiESaIiEE7_S_leftEPSt18_Rb_tree_node_base>
    5a86:	48 89 45 f8          	mov    %rax,-0x8(%rbp)
    5a8a:	48 8b 55 e0          	mov    -0x20(%rbp),%rdx
    5a8e:	48 8b 45 e8          	mov    -0x18(%rbp),%rax
    5a92:	48 89 d6             	mov    %rdx,%rsi
    5a95:	48 89 c7             	mov    %rax,%rdi
    5a98:	e8 7d 0d 00 00       	call   681a <_ZNSt8_Rb_treeIiiSt9_IdentityIiESt4lessIiESaIiEE12_M_drop_nodeEPSt13_Rb_tree_nodeIiE>
    5a9d:	48 8b 45 f8          	mov    -0x8(%rbp),%rax
    5aa1:	48 89 45 e0          	mov    %rax,-0x20(%rbp)
    5aa5:	48 83 7d e0 00       	cmpq   $0x0,-0x20(%rbp)
    5aaa:	75 b0                	jne    5a5c <_ZNSt8_Rb_treeIiiSt9_IdentityIiESt4lessIiESaIiEE8_M_eraseEPSt13_Rb_tree_nodeIiE+0x16>
    5aac:	90                   	nop
    5aad:	90                   	nop
    5aae:	c9                   	leave
    5aaf:	c3                   	ret

0000000000005ab0 <_ZNSt8_Rb_treeIiiSt9_IdentityIiESt4lessIiESaIiEE8_M_beginEv>:
    5ab0:	f3 0f 1e fa          	endbr64
    5ab4:	55                   	push   %rbp
    5ab5:	48 89 e5             	mov    %rsp,%rbp
    5ab8:	48 83 ec 10          	sub    $0x10,%rsp
    5abc:	48 89 7d f8          	mov    %rdi,-0x8(%rbp)
    5ac0:	48 8b 45 f8          	mov    -0x8(%rbp),%rax
    5ac4:	48 89 c7             	mov    %rax,%rdi
    5ac7:	e8 8c 0d 00 00       	call   6858 <_ZNKSt8_Rb_treeIiiSt9_IdentityIiESt4lessIiESaIiEE9_M_mbeginEv>
    5acc:	c9                   	leave
    5acd:	c3                   	ret

0000000000005ace <_ZNSt8_Rb_treeIiiSt9_IdentityIiESt4lessIiESaIiEE16_M_insert_uniqueIRKiEESt4pairISt17_Rb_tree_iteratorIiEbEOT_>:
    5ace:	f3 0f 1e fa          	endbr64
    5ad2:	55                   	push   %rbp
    5ad3:	48 89 e5             	mov    %rsp,%rbp
    5ad6:	48 83 ec 60          	sub    $0x60,%rsp
    5ada:	48 89 7d a8          	mov    %rdi,-0x58(%rbp)
    5ade:	48 89 75 a0          	mov    %rsi,-0x60(%rbp)
    5ae2:	64 48 8b 04 25 28 00 	mov    %fs:0x28,%rax
    5ae9:	00 00 
    5aeb:	48 89 45 f8          	mov    %rax,-0x8(%rbp)
    5aef:	31 c0                	xor    %eax,%eax
    5af1:	48 8b 55 a0          	mov    -0x60(%rbp),%rdx
    5af5:	48 8d 45 e0          	lea    -0x20(%rbp),%rax
    5af9:	48 89 d6             	mov    %rdx,%rsi
    5afc:	48 89 c7             	mov    %rax,%rdi
    5aff:	e8 06 0f 00 00       	call   6a0a <_ZNKSt9_IdentityIiEclERKi>
    5b04:	48 89 c2             	mov    %rax,%rdx
    5b07:	48 8b 45 a8          	mov    -0x58(%rbp),%rax
    5b0b:	48 89 d6             	mov    %rdx,%rsi
    5b0e:	48 89 c7             	mov    %rax,%rdi
    5b11:	e8 58 0d 00 00       	call   686e <_ZNSt8_Rb_treeIiiSt9_IdentityIiESt4lessIiESaIiEE24_M_get_insert_unique_posERKi>
    5b16:	48 89 45 d0          	mov    %rax,-0x30(%rbp)
    5b1a:	48 89 55 d8          	mov    %rdx,-0x28(%rbp)
    5b1e:	48 8b 45 d8          	mov    -0x28(%rbp),%rax
    5b22:	48 85 c0             	test   %rax,%rax
    5b25:	74 66                	je     5b8d <_ZNSt8_Rb_treeIiiSt9_IdentityIiESt4lessIiESaIiEE16_M_insert_uniqueIRKiEESt4pairISt17_Rb_tree_iteratorIiEbEOT_+0xbf>
    5b27:	48 8b 55 a8          	mov    -0x58(%rbp),%rdx
    5b2b:	48 8d 45 c0          	lea    -0x40(%rbp),%rax
    5b2f:	48 89 d6             	mov    %rdx,%rsi
    5b32:	48 89 c7             	mov    %rax,%rdi
    5b35:	e8 e6 0e 00 00       	call   6a20 <_ZNSt8_Rb_treeIiiSt9_IdentityIiESt4lessIiESaIiEE11_Alloc_nodeC1ERS5_>
    5b3a:	c6 45 bf 01          	movb   $0x1,-0x41(%rbp)
    5b3e:	48 8b 45 a0          	mov    -0x60(%rbp),%rax
    5b42:	48 89 c7             	mov    %rax,%rdi
    5b45:	e8 f4 0e 00 00       	call   6a3e <_ZSt7forwardIRKiEOT_RNSt16remove_referenceIS2_E4typeE>
    5b4a:	48 89 c1             	mov    %rax,%rcx
    5b4d:	48 8b 55 d8          	mov    -0x28(%rbp),%rdx
    5b51:	48 8b 75 d0          	mov    -0x30(%rbp),%rsi
    5b55:	48 8d 7d c0          	lea    -0x40(%rbp),%rdi
    5b59:	48 8b 45 a8          	mov    -0x58(%rbp),%rax
    5b5d:	49 89 f8             	mov    %rdi,%r8
    5b60:	48 89 c7             	mov    %rax,%rdi
    5b63:	e8 e8 0e 00 00       	call   6a50 <_ZNSt8_Rb_treeIiiSt9_IdentityIiESt4lessIiESaIiEE10_M_insert_IRKiNS5_11_Alloc_nodeEEESt17_Rb_tree_iteratorIiEPSt18_Rb_tree_node_baseSD_OT_RT0_>
    5b68:	48 89 45 c8          	mov    %rax,-0x38(%rbp)
    5b6c:	48 8d 55 bf          	lea    -0x41(%rbp),%rdx
    5b70:	48 8d 4d c8          	lea    -0x38(%rbp),%rcx
    5b74:	48 8d 45 e0          	lea    -0x20(%rbp),%rax
    5b78:	48 89 ce             	mov    %rcx,%rsi
    5b7b:	48 89 c7             	mov    %rax,%rdi
    5b7e:	e8 e5 0f 00 00       	call   6b68 <_ZNSt4pairISt17_Rb_tree_iteratorIiEbEC1IS1_bLb1EEEOT_OT0_>
    5b83:	48 8b 45 e0          	mov    -0x20(%rbp),%rax
    5b87:	48 8b 55 e8          	mov    -0x18(%rbp),%rdx
    5b8b:	eb 36                	jmp    5bc3 <_ZNSt8_Rb_treeIiiSt9_IdentityIiESt4lessIiESaIiEE16_M_insert_uniqueIRKiEESt4pairISt17_Rb_tree_iteratorIiEbEOT_+0xf5>
    5b8d:	c6 45 c0 00          	movb   $0x0,-0x40(%rbp)
    5b91:	48 8b 55 d0          	mov    -0x30(%rbp),%rdx
    5b95:	48 8d 45 c8          	lea    -0x38(%rbp),%rax
    5b99:	48 89 d6             	mov    %rdx,%rsi
    5b9c:	48 89 c7             	mov    %rax,%rdi
    5b9f:	e8 0c 10 00 00       	call   6bb0 <_ZNSt17_Rb_tree_iteratorIiEC1EPSt18_Rb_tree_node_base>
    5ba4:	48 8d 55 c0          	lea    -0x40(%rbp),%rdx
    5ba8:	48 8d 4d c8          	lea    -0x38(%rbp),%rcx
    5bac:	48 8d 45 e0          	lea    -0x20(%rbp),%rax
    5bb0:	48 89 ce             	mov    %rcx,%rsi
    5bb3:	48 89 c7             	mov    %rax,%rdi
    5bb6:	e8 ad 0f 00 00       	call   6b68 <_ZNSt4pairISt17_Rb_tree_iteratorIiEbEC1IS1_bLb1EEEOT_OT0_>
    5bbb:	48 8b 45 e0          	mov    -0x20(%rbp),%rax
    5bbf:	48 8b 55 e8          	mov    -0x18(%rbp),%rdx
    5bc3:	48 8b 4d f8          	mov    -0x8(%rbp),%rcx
    5bc7:	64 48 2b 0c 25 28 00 	sub    %fs:0x28,%rcx
    5bce:	00 00 
    5bd0:	74 05                	je     5bd7 <_ZNSt8_Rb_treeIiiSt9_IdentityIiESt4lessIiESaIiEE16_M_insert_uniqueIRKiEESt4pairISt17_Rb_tree_iteratorIiEbEOT_+0x109>
    5bd2:	e8 59 c7 ff ff       	call   2330 <__stack_chk_fail@plt>
