
types.exe:     file format pei-x86-64


Disassembly of section .text:

0000000140001000 <__mingw_invalidParameterHandler>:
   140001000:	c3                   	ret
   140001001:	66 66 2e 0f 1f 84 00 	data16 cs nopw 0x0(%rax,%rax,1)
   140001008:	00 00 00 00 
   14000100c:	0f 1f 40 00          	nopl   0x0(%rax)

0000000140001010 <pre_c_init>:
   140001010:	48 83 ec 28          	sub    $0x28,%rsp
   140001014:	48 8b 05 a5 68 02 00 	mov    0x268a5(%rip),%rax        # 1400278c0 <.refptr.__mingw_initltsdrot_force>
   14000101b:	31 c9                	xor    %ecx,%ecx
   14000101d:	c7 00 01 00 00 00    	movl   $0x1,(%rax)
   140001023:	48 8b 05 a6 68 02 00 	mov    0x268a6(%rip),%rax        # 1400278d0 <.refptr.__mingw_initltsdyn_force>
   14000102a:	c7 00 01 00 00 00    	movl   $0x1,(%rax)
   140001030:	48 8b 05 a9 68 02 00 	mov    0x268a9(%rip),%rax        # 1400278e0 <.refptr.__mingw_initltssuo_force>
   140001037:	c7 00 01 00 00 00    	movl   $0x1,(%rax)
   14000103d:	48 8b 05 0c 68 02 00 	mov    0x2680c(%rip),%rax        # 140027850 <.refptr.__ImageBase>
   140001044:	66 81 38 4d 5a       	cmpw   $0x5a4d,(%rax)
   140001049:	75 0f                	jne    14000105a <pre_c_init+0x4a>
   14000104b:	48 63 50 3c          	movslq 0x3c(%rax),%rdx
   14000104f:	48 01 d0             	add    %rdx,%rax
   140001052:	81 38 50 45 00 00    	cmpl   $0x4550,(%rax)
   140001058:	74 66                	je     1400010c0 <pre_c_init+0xb0>
   14000105a:	48 8b 05 4f 68 02 00 	mov    0x2684f(%rip),%rax        # 1400278b0 <.refptr.__mingw_app_type>
   140001061:	89 0d a5 1f 03 00    	mov    %ecx,0x31fa5(%rip)        # 14003300c <managedapp>
   140001067:	8b 00                	mov    (%rax),%eax
   140001069:	85 c0                	test   %eax,%eax
   14000106b:	74 43                	je     1400010b0 <pre_c_init+0xa0>
   14000106d:	b9 02 00 00 00       	mov    $0x2,%ecx
   140001072:	e8 71 21 00 00       	call   1400031e8 <__set_app_type>
   140001077:	e8 e4 20 00 00       	call   140003160 <__p__fmode>
   14000107c:	48 8b 15 0d 69 02 00 	mov    0x2690d(%rip),%rdx        # 140027990 <.refptr._fmode>
   140001083:	8b 12                	mov    (%rdx),%edx
   140001085:	89 10                	mov    %edx,(%rax)
   140001087:	e8 cc 20 00 00       	call   140003158 <__p__commode>
   14000108c:	48 8b 15 dd 68 02 00 	mov    0x268dd(%rip),%rdx        # 140027970 <.refptr._commode>
   140001093:	8b 12                	mov    (%rdx),%edx
   140001095:	89 10                	mov    %edx,(%rax)
   140001097:	e8 f4 0d 00 00       	call   140001e90 <_setargv>
   14000109c:	48 8b 05 2d 67 02 00 	mov    0x2672d(%rip),%rax        # 1400277d0 <.refptr._MINGW_INSTALL_DEBUG_MATHERR>
   1400010a3:	83 38 01             	cmpl   $0x1,(%rax)
   1400010a6:	74 50                	je     1400010f8 <pre_c_init+0xe8>
   1400010a8:	31 c0                	xor    %eax,%eax
   1400010aa:	48 83 c4 28          	add    $0x28,%rsp
   1400010ae:	c3                   	ret
   1400010af:	90                   	nop
   1400010b0:	b9 01 00 00 00       	mov    $0x1,%ecx
   1400010b5:	e8 2e 21 00 00       	call   1400031e8 <__set_app_type>
   1400010ba:	eb bb                	jmp    140001077 <pre_c_init+0x67>
   1400010bc:	0f 1f 40 00          	nopl   0x0(%rax)
   1400010c0:	0f b7 50 18          	movzwl 0x18(%rax),%edx
   1400010c4:	66 81 fa 0b 01       	cmp    $0x10b,%dx
   1400010c9:	74 45                	je     140001110 <pre_c_init+0x100>
   1400010cb:	66 81 fa 0b 02       	cmp    $0x20b,%dx
   1400010d0:	75 88                	jne    14000105a <pre_c_init+0x4a>
   1400010d2:	83 b8 84 00 00 00 0e 	cmpl   $0xe,0x84(%rax)
   1400010d9:	0f 86 7b ff ff ff    	jbe    14000105a <pre_c_init+0x4a>
   1400010df:	8b 90 f8 00 00 00    	mov    0xf8(%rax),%edx
   1400010e5:	31 c9                	xor    %ecx,%ecx
   1400010e7:	85 d2                	test   %edx,%edx
   1400010e9:	0f 95 c1             	setne  %cl
   1400010ec:	e9 69 ff ff ff       	jmp    14000105a <pre_c_init+0x4a>
   1400010f1:	0f 1f 80 00 00 00 00 	nopl   0x0(%rax)
   1400010f8:	48 8b 0d b1 68 02 00 	mov    0x268b1(%rip),%rcx        # 1400279b0 <.refptr._matherr>
   1400010ff:	e8 fc 14 00 00       	call   140002600 <__mingw_setusermatherr>
   140001104:	31 c0                	xor    %eax,%eax
   140001106:	48 83 c4 28          	add    $0x28,%rsp
   14000110a:	c3                   	ret
   14000110b:	0f 1f 44 00 00       	nopl   0x0(%rax,%rax,1)
   140001110:	83 78 74 0e          	cmpl   $0xe,0x74(%rax)
   140001114:	0f 86 40 ff ff ff    	jbe    14000105a <pre_c_init+0x4a>
   14000111a:	44 8b 80 e8 00 00 00 	mov    0xe8(%rax),%r8d
   140001121:	31 c9                	xor    %ecx,%ecx
   140001123:	45 85 c0             	test   %r8d,%r8d
   140001126:	0f 95 c1             	setne  %cl
   140001129:	e9 2c ff ff ff       	jmp    14000105a <pre_c_init+0x4a>
   14000112e:	66 90                	xchg   %ax,%ax

0000000140001130 <pre_cpp_init>:
   140001130:	48 83 ec 38          	sub    $0x38,%rsp
   140001134:	48 8b 05 85 68 02 00 	mov    0x26885(%rip),%rax        # 1400279c0 <.refptr._newmode>
   14000113b:	4c 8d 05 d6 1e 03 00 	lea    0x31ed6(%rip),%r8        # 140033018 <envp>
   140001142:	48 8d 15 d7 1e 03 00 	lea    0x31ed7(%rip),%rdx        # 140033020 <argv>
   140001149:	48 8d 0d d8 1e 03 00 	lea    0x31ed8(%rip),%rcx        # 140033028 <argc>
   140001150:	8b 00                	mov    (%rax),%eax
   140001152:	89 05 ac 1e 03 00    	mov    %eax,0x31eac(%rip)        # 140033004 <startinfo>
   140001158:	48 8b 05 21 68 02 00 	mov    0x26821(%rip),%rax        # 140027980 <.refptr._dowildcard>
   14000115f:	44 8b 08             	mov    (%rax),%r9d
   140001162:	48 8d 05 9b 1e 03 00 	lea    0x31e9b(%rip),%rax        # 140033004 <startinfo>
   140001169:	48 89 44 24 20       	mov    %rax,0x20(%rsp)
   14000116e:	e8 8d 1d 00 00       	call   140002f00 <__getmainargs>
   140001173:	90                   	nop
   140001174:	48 83 c4 38          	add    $0x38,%rsp
   140001178:	c3                   	ret
   140001179:	0f 1f 80 00 00 00 00 	nopl   0x0(%rax)

0000000140001180 <__tmainCRTStartup>:
   140001180:	41 54                	push   %r12
   140001182:	55                   	push   %rbp
   140001183:	57                   	push   %rdi
   140001184:	56                   	push   %rsi
   140001185:	53                   	push   %rbx
   140001186:	48 83 ec 20          	sub    $0x20,%rsp
   14000118a:	48 8b 1d 7f 67 02 00 	mov    0x2677f(%rip),%rbx        # 140027910 <.refptr.__native_startup_lock>
   140001191:	48 8b 2d 38 33 03 00 	mov    0x33338(%rip),%rbp        # 1400344d0 <__imp_Sleep>
   140001198:	31 ff                	xor    %edi,%edi
   14000119a:	65 48 8b 04 25 30 00 	mov    %gs:0x30,%rax
   1400011a1:	00 00 
   1400011a3:	48 8b 70 08          	mov    0x8(%rax),%rsi
   1400011a7:	eb 17                	jmp    1400011c0 <__tmainCRTStartup+0x40>
   1400011a9:	0f 1f 80 00 00 00 00 	nopl   0x0(%rax)
   1400011b0:	48 39 c6             	cmp    %rax,%rsi
   1400011b3:	0f 84 67 01 00 00    	je     140001320 <__tmainCRTStartup+0x1a0>
   1400011b9:	b9 e8 03 00 00       	mov    $0x3e8,%ecx
   1400011be:	ff d5                	call   *%rbp
   1400011c0:	48 89 f8             	mov    %rdi,%rax
   1400011c3:	f0 48 0f b1 33       	lock cmpxchg %rsi,(%rbx)
   1400011c8:	48 85 c0             	test   %rax,%rax
   1400011cb:	75 e3                	jne    1400011b0 <__tmainCRTStartup+0x30>
   1400011cd:	48 8b 35 4c 67 02 00 	mov    0x2674c(%rip),%rsi        # 140027920 <.refptr.__native_startup_state>
   1400011d4:	31 ff                	xor    %edi,%edi
   1400011d6:	8b 06                	mov    (%rsi),%eax
   1400011d8:	83 f8 01             	cmp    $0x1,%eax
   1400011db:	0f 84 56 01 00 00    	je     140001337 <__tmainCRTStartup+0x1b7>
   1400011e1:	8b 06                	mov    (%rsi),%eax
   1400011e3:	85 c0                	test   %eax,%eax
   1400011e5:	0f 84 b5 01 00 00    	je     1400013a0 <__tmainCRTStartup+0x220>
   1400011eb:	c7 05 13 1e 03 00 01 	movl   $0x1,0x31e13(%rip)        # 140033008 <has_cctor>
   1400011f2:	00 00 00 
   1400011f5:	8b 06                	mov    (%rsi),%eax
   1400011f7:	83 f8 01             	cmp    $0x1,%eax
   1400011fa:	0f 84 4c 01 00 00    	je     14000134c <__tmainCRTStartup+0x1cc>
   140001200:	85 ff                	test   %edi,%edi
   140001202:	0f 84 65 01 00 00    	je     14000136d <__tmainCRTStartup+0x1ed>
   140001208:	48 8b 05 71 66 02 00 	mov    0x26671(%rip),%rax        # 140027880 <.refptr.__dyn_tls_init_callback>
   14000120f:	48 8b 00             	mov    (%rax),%rax
   140001212:	48 85 c0             	test   %rax,%rax
   140001215:	74 0c                	je     140001223 <__tmainCRTStartup+0xa3>
   140001217:	45 31 c0             	xor    %r8d,%r8d
   14000121a:	ba 02 00 00 00       	mov    $0x2,%edx
   14000121f:	31 c9                	xor    %ecx,%ecx
   140001221:	ff d0                	call   *%rax
   140001223:	e8 38 10 00 00       	call   140002260 <_pei386_runtime_relocator>
   140001228:	48 8b 0d 71 67 02 00 	mov    0x26771(%rip),%rcx        # 1400279a0 <.refptr._gnu_exception_handler>
   14000122f:	ff 15 93 32 03 00    	call   *0x33293(%rip)        # 1400344c8 <__imp_SetUnhandledExceptionFilter>
   140001235:	48 8b 15 c4 66 02 00 	mov    0x266c4(%rip),%rdx        # 140027900 <.refptr.__mingw_oldexcpt_handler>
   14000123c:	48 8d 0d bd fd ff ff 	lea    -0x243(%rip),%rcx        # 140001000 <__mingw_invalidParameterHandler>
   140001243:	48 89 02             	mov    %rax,(%rdx)
   140001246:	e8 a5 1f 00 00       	call   1400031f0 <_set_invalid_parameter_handler>
   14000124b:	e8 20 0e 00 00       	call   140002070 <_fpreset>
   140001250:	8b 1d d2 1d 03 00    	mov    0x31dd2(%rip),%ebx        # 140033028 <argc>
   140001256:	8d 7b 01             	lea    0x1(%rbx),%edi
   140001259:	48 63 ff             	movslq %edi,%rdi
   14000125c:	48 c1 e7 03          	shl    $0x3,%rdi
   140001260:	48 89 f9             	mov    %rdi,%rcx
   140001263:	e8 e0 1f 00 00       	call   140003248 <malloc>
   140001268:	4c 8b 25 b1 1d 03 00 	mov    0x31db1(%rip),%r12        # 140033020 <argv>
   14000126f:	48 89 c5             	mov    %rax,%rbp
   140001272:	85 db                	test   %ebx,%ebx
   140001274:	0f 8e 46 01 00 00    	jle    1400013c0 <__tmainCRTStartup+0x240>
   14000127a:	48 83 ef 08          	sub    $0x8,%rdi
   14000127e:	31 db                	xor    %ebx,%ebx
   140001280:	49 8b 0c 1c          	mov    (%r12,%rbx,1),%rcx
   140001284:	e8 af 1e 00 00       	call   140003138 <strlen>
   140001289:	48 8d 70 01          	lea    0x1(%rax),%rsi
   14000128d:	48 89 f1             	mov    %rsi,%rcx
   140001290:	e8 b3 1f 00 00       	call   140003248 <malloc>
   140001295:	49 89 f0             	mov    %rsi,%r8
   140001298:	48 89 44 1d 00       	mov    %rax,0x0(%rbp,%rbx,1)
   14000129d:	49 8b 14 1c          	mov    (%r12,%rbx,1),%rdx
   1400012a1:	48 89 c1             	mov    %rax,%rcx
   1400012a4:	48 83 c3 08          	add    $0x8,%rbx
   1400012a8:	e8 6b 1f 00 00       	call   140003218 <memcpy>
   1400012ad:	48 39 df             	cmp    %rbx,%rdi
   1400012b0:	75 ce                	jne    140001280 <__tmainCRTStartup+0x100>
   1400012b2:	48 01 ef             	add    %rbp,%rdi
   1400012b5:	48 c7 07 00 00 00 00 	movq   $0x0,(%rdi)
   1400012bc:	48 89 2d 5d 1d 03 00 	mov    %rbp,0x31d5d(%rip)        # 140033020 <argv>
   1400012c3:	e8 a8 0b 00 00       	call   140001e70 <__main>
   1400012c8:	48 8b 05 c1 65 02 00 	mov    0x265c1(%rip),%rax        # 140027890 <.refptr.__imp___initenv>
   1400012cf:	4c 8b 05 42 1d 03 00 	mov    0x31d42(%rip),%r8        # 140033018 <envp>
   1400012d6:	8b 0d 4c 1d 03 00    	mov    0x31d4c(%rip),%ecx        # 140033028 <argc>
   1400012dc:	48 8b 00             	mov    (%rax),%rax
   1400012df:	4c 89 00             	mov    %r8,(%rax)
   1400012e2:	48 8b 15 37 1d 03 00 	mov    0x31d37(%rip),%rdx        # 140033020 <argv>
   1400012e9:	e8 62 01 00 00       	call   140001450 <main>
   1400012ee:	8b 0d 18 1d 03 00    	mov    0x31d18(%rip),%ecx        # 14003300c <managedapp>
   1400012f4:	89 05 16 1d 03 00    	mov    %eax,0x31d16(%rip)        # 140033010 <mainret>
   1400012fa:	85 c9                	test   %ecx,%ecx
   1400012fc:	0f 84 c6 00 00 00    	je     1400013c8 <__tmainCRTStartup+0x248>
   140001302:	8b 15 00 1d 03 00    	mov    0x31d00(%rip),%edx        # 140033008 <has_cctor>
   140001308:	85 d2                	test   %edx,%edx
   14000130a:	74 74                	je     140001380 <__tmainCRTStartup+0x200>
   14000130c:	48 83 c4 20          	add    $0x20,%rsp
   140001310:	5b                   	pop    %rbx
   140001311:	5e                   	pop    %rsi
   140001312:	5f                   	pop    %rdi
   140001313:	5d                   	pop    %rbp
   140001314:	41 5c                	pop    %r12
   140001316:	c3                   	ret
   140001317:	66 0f 1f 84 00 00 00 	nopw   0x0(%rax,%rax,1)
   14000131e:	00 00 
   140001320:	48 8b 35 f9 65 02 00 	mov    0x265f9(%rip),%rsi        # 140027920 <.refptr.__native_startup_state>
   140001327:	bf 01 00 00 00       	mov    $0x1,%edi
   14000132c:	8b 06                	mov    (%rsi),%eax
   14000132e:	83 f8 01             	cmp    $0x1,%eax
   140001331:	0f 85 aa fe ff ff    	jne    1400011e1 <__tmainCRTStartup+0x61>
   140001337:	b9 1f 00 00 00       	mov    $0x1f,%ecx
   14000133c:	e8 df 1c 00 00       	call   140003020 <_amsg_exit>
   140001341:	8b 06                	mov    (%rsi),%eax
   140001343:	83 f8 01             	cmp    $0x1,%eax
   140001346:	0f 85 b4 fe ff ff    	jne    140001200 <__tmainCRTStartup+0x80>
   14000134c:	48 8b 15 ed 65 02 00 	mov    0x265ed(%rip),%rdx        # 140027940 <.refptr.__xc_z>
   140001353:	48 8b 0d d6 65 02 00 	mov    0x265d6(%rip),%rcx        # 140027930 <.refptr.__xc_a>
   14000135a:	e8 81 1e 00 00       	call   1400031e0 <_initterm>
   14000135f:	c7 06 02 00 00 00    	movl   $0x2,(%rsi)
   140001365:	85 ff                	test   %edi,%edi
   140001367:	0f 85 9b fe ff ff    	jne    140001208 <__tmainCRTStartup+0x88>
   14000136d:	31 c0                	xor    %eax,%eax
   14000136f:	48 87 03             	xchg   %rax,(%rbx)
   140001372:	e9 91 fe ff ff       	jmp    140001208 <__tmainCRTStartup+0x88>
   140001377:	66 0f 1f 84 00 00 00 	nopw   0x0(%rax,%rax,1)
   14000137e:	00 00 
   140001380:	e8 1b 1e 00 00       	call   1400031a0 <_cexit>
   140001385:	8b 05 85 1c 03 00    	mov    0x31c85(%rip),%eax        # 140033010 <mainret>
   14000138b:	48 83 c4 20          	add    $0x20,%rsp
   14000138f:	5b                   	pop    %rbx
   140001390:	5e                   	pop    %rsi
   140001391:	5f                   	pop    %rdi
   140001392:	5d                   	pop    %rbp
   140001393:	41 5c                	pop    %r12
   140001395:	c3                   	ret
   140001396:	66 2e 0f 1f 84 00 00 	cs nopw 0x0(%rax,%rax,1)
   14000139d:	00 00 00 
   1400013a0:	48 8b 15 b9 65 02 00 	mov    0x265b9(%rip),%rdx        # 140027960 <.refptr.__xi_z>
   1400013a7:	48 8b 0d a2 65 02 00 	mov    0x265a2(%rip),%rcx        # 140027950 <.refptr.__xi_a>
   1400013ae:	c7 06 01 00 00 00    	movl   $0x1,(%rsi)
   1400013b4:	e8 27 1e 00 00       	call   1400031e0 <_initterm>
   1400013b9:	e9 37 fe ff ff       	jmp    1400011f5 <__tmainCRTStartup+0x75>
   1400013be:	66 90                	xchg   %ax,%ax
   1400013c0:	48 89 c7             	mov    %rax,%rdi
   1400013c3:	e9 ed fe ff ff       	jmp    1400012b5 <__tmainCRTStartup+0x135>
   1400013c8:	89 c1                	mov    %eax,%ecx
   1400013ca:	e8 31 1e 00 00       	call   140003200 <exit>
   1400013cf:	90                   	nop

00000001400013d0 <WinMainCRTStartup>:
   1400013d0:	48 83 ec 28          	sub    $0x28,%rsp

00000001400013d4 <.l_startw>:
   1400013d4:	48 8b 05 d5 64 02 00 	mov    0x264d5(%rip),%rax        # 1400278b0 <.refptr.__mingw_app_type>
   1400013db:	c7 00 01 00 00 00    	movl   $0x1,(%rax)
   1400013e1:	e8 9a fd ff ff       	call   140001180 <__tmainCRTStartup>
   1400013e6:	90                   	nop

00000001400013e7 <.l_endw>:
   1400013e7:	90                   	nop
   1400013e8:	48 83 c4 28          	add    $0x28,%rsp
   1400013ec:	c3                   	ret
   1400013ed:	0f 1f 00             	nopl   (%rax)

00000001400013f0 <mainCRTStartup>:
   1400013f0:	48 83 ec 28          	sub    $0x28,%rsp

00000001400013f4 <.l_start>:
   1400013f4:	48 8b 05 b5 64 02 00 	mov    0x264b5(%rip),%rax        # 1400278b0 <.refptr.__mingw_app_type>
   1400013fb:	c7 00 00 00 00 00    	movl   $0x0,(%rax)
   140001401:	e8 7a fd ff ff       	call   140001180 <__tmainCRTStartup>
   140001406:	90                   	nop

0000000140001407 <.l_end>:
   140001407:	90                   	nop
   140001408:	48 83 c4 28          	add    $0x28,%rsp
   14000140c:	c3                   	ret
   14000140d:	0f 1f 00             	nopl   (%rax)

0000000140001410 <atexit>:
   140001410:	48 83 ec 28          	sub    $0x28,%rsp
   140001414:	e8 c7 1b 00 00       	call   140002fe0 <_onexit>
   140001419:	48 83 f8 01          	cmp    $0x1,%rax
   14000141d:	19 c0                	sbb    %eax,%eax
   14000141f:	48 83 c4 28          	add    $0x28,%rsp
   140001423:	c3                   	ret
   140001424:	90                   	nop
   140001425:	90                   	nop
   140001426:	90                   	nop
   140001427:	90                   	nop
   140001428:	90                   	nop
   140001429:	90                   	nop
   14000142a:	90                   	nop
   14000142b:	90                   	nop
   14000142c:	90                   	nop
   14000142d:	90                   	nop
   14000142e:	90                   	nop
   14000142f:	90                   	nop

0000000140001430 <__gcc_register_frame>:
   140001430:	48 8d 0d 09 00 00 00 	lea    0x9(%rip),%rcx        # 140001440 <__gcc_deregister_frame>
   140001437:	e9 d4 ff ff ff       	jmp    140001410 <atexit>
   14000143c:	0f 1f 40 00          	nopl   0x0(%rax)

0000000140001440 <__gcc_deregister_frame>:
   140001440:	c3                   	ret
   140001441:	90                   	nop
   140001442:	90                   	nop
   140001443:	90                   	nop
   140001444:	90                   	nop
   140001445:	90                   	nop
   140001446:	90                   	nop
   140001447:	90                   	nop
   140001448:	90                   	nop
   140001449:	90                   	nop
   14000144a:	90                   	nop
   14000144b:	90                   	nop
   14000144c:	90                   	nop
   14000144d:	90                   	nop
   14000144e:	90                   	nop
   14000144f:	90                   	nop

0000000140001450 <main>:
   140001450:	55                   	push   %rbp
   140001451:	56                   	push   %rsi
   140001452:	53                   	push   %rbx
   140001453:	48 81 ec 30 01 00 00 	sub    $0x130,%rsp
   14000145a:	48 8d ac 24 80 00 00 	lea    0x80(%rsp),%rbp
   140001461:	00 
   140001462:	0f 11 b5 a0 00 00 00 	movups %xmm6,0xa0(%rbp)
   140001469:	e8 02 0a 00 00       	call   140001e70 <__main>
   14000146e:	48 8d 05 43 4d 02 00 	lea    0x24d43(%rip),%rax        # 1400261b8 <_ZN5Eigen8internalL18defaultL3CacheSizeE+0x50>
   140001475:	48 89 c2             	mov    %rax,%rdx
   140001478:	48 8b 05 81 63 02 00 	mov    0x26381(%rip),%rax        # 140027800 <__fu3__ZSt4cout>
   14000147f:	48 89 c1             	mov    %rax,%rcx
   140001482:	e8 01 08 00 00       	call   140001c88 <_ZStlsISt11char_traitsIcEERSt13basic_ostreamIcT_ES5_PKc>
   140001487:	48 8d 45 0c          	lea    0xc(%rbp),%rax
   14000148b:	48 89 c2             	mov    %rax,%rdx
   14000148e:	48 8b 05 5b 63 02 00 	mov    0x2635b(%rip),%rax        # 1400277f0 <__fu2__ZSt3cin>
   140001495:	48 89 c1             	mov    %rax,%rcx
   140001498:	e8 f3 08 00 00       	call   140001d90 <_ZNSirsERi>
   14000149d:	8b 55 0c             	mov    0xc(%rbp),%edx
   1400014a0:	48 8d 45 e0          	lea    -0x20(%rbp),%rax
   1400014a4:	48 89 c1             	mov    %rax,%rcx
   1400014a7:	e8 d4 9f 01 00       	call   14001b480 <_ZN8CircuitoC1Ei>
   1400014ac:	48 8d 05 35 4d 02 00 	lea    0x24d35(%rip),%rax        # 1400261e8 <_ZN5Eigen8internalL18defaultL3CacheSizeE+0x80>
   1400014b3:	48 89 c2             	mov    %rax,%rdx
   1400014b6:	48 8b 05 43 63 02 00 	mov    0x26343(%rip),%rax        # 140027800 <__fu3__ZSt4cout>
   1400014bd:	48 89 c1             	mov    %rax,%rcx
   1400014c0:	e8 c3 07 00 00       	call   140001c88 <_ZStlsISt11char_traitsIcEERSt13basic_ostreamIcT_ES5_PKc>
   1400014c5:	48 8d 45 dc          	lea    -0x24(%rbp),%rax
   1400014c9:	48 89 c2             	mov    %rax,%rdx
   1400014cc:	48 8b 05 1d 63 02 00 	mov    0x2631d(%rip),%rax        # 1400277f0 <__fu2__ZSt3cin>
   1400014d3:	48 89 c1             	mov    %rax,%rcx
   1400014d6:	e8 b5 08 00 00       	call   140001d90 <_ZNSirsERi>
   1400014db:	8b 45 dc             	mov    -0x24(%rbp),%eax
   1400014de:	89 85 9c 00 00 00    	mov    %eax,0x9c(%rbp)
   1400014e4:	e9 15 01 00 00       	jmp    1400015fe <main+0x1ae>
   1400014e9:	48 8d 05 18 4d 02 00 	lea    0x24d18(%rip),%rax        # 140026208 <_ZN5Eigen8internalL18defaultL3CacheSizeE+0xa0>
   1400014f0:	48 89 c2             	mov    %rax,%rdx
   1400014f3:	48 8b 05 06 63 02 00 	mov    0x26306(%rip),%rax        # 140027800 <__fu3__ZSt4cout>
   1400014fa:	48 89 c1             	mov    %rax,%rcx
   1400014fd:	e8 86 07 00 00       	call   140001c88 <_ZStlsISt11char_traitsIcEERSt13basic_ostreamIcT_ES5_PKc>
   140001502:	48 89 c1             	mov    %rax,%rcx
   140001505:	8b 85 9c 00 00 00    	mov    0x9c(%rbp),%eax
   14000150b:	89 c2                	mov    %eax,%edx
   14000150d:	e8 5e 08 00 00       	call   140001d70 <_ZNSolsEi>
   140001512:	48 89 c1             	mov    %rax,%rcx
   140001515:	48 8d 05 7f 4c 02 00 	lea    0x24c7f(%rip),%rax        # 14002619b <_ZN5Eigen8internalL18defaultL3CacheSizeE+0x33>
   14000151c:	48 89 c2             	mov    %rax,%rdx
   14000151f:	e8 64 07 00 00       	call   140001c88 <_ZStlsISt11char_traitsIcEERSt13basic_ostreamIcT_ES5_PKc>
   140001524:	48 8d 45 d4          	lea    -0x2c(%rbp),%rax
   140001528:	48 89 c2             	mov    %rax,%rdx
   14000152b:	48 8b 05 be 62 02 00 	mov    0x262be(%rip),%rax        # 1400277f0 <__fu2__ZSt3cin>
   140001532:	48 89 c1             	mov    %rax,%rcx
   140001535:	e8 5e 08 00 00       	call   140001d98 <_ZNSirsERf>
   14000153a:	48 8d 05 f7 4c 02 00 	lea    0x24cf7(%rip),%rax        # 140026238 <_ZN5Eigen8internalL18defaultL3CacheSizeE+0xd0>
   140001541:	48 89 c2             	mov    %rax,%rdx
   140001544:	48 8b 05 b5 62 02 00 	mov    0x262b5(%rip),%rax        # 140027800 <__fu3__ZSt4cout>
   14000154b:	48 89 c1             	mov    %rax,%rcx
   14000154e:	e8 35 07 00 00       	call   140001c88 <_ZStlsISt11char_traitsIcEERSt13basic_ostreamIcT_ES5_PKc>
   140001553:	48 8d 45 d0          	lea    -0x30(%rbp),%rax
   140001557:	48 89 c2             	mov    %rax,%rdx
   14000155a:	48 8b 05 8f 62 02 00 	mov    0x2628f(%rip),%rax        # 1400277f0 <__fu2__ZSt3cin>
   140001561:	48 89 c1             	mov    %rax,%rcx
   140001564:	e8 27 08 00 00       	call   140001d90 <_ZNSirsERi>
   140001569:	48 89 c1             	mov    %rax,%rcx
   14000156c:	48 8d 45 cc          	lea    -0x34(%rbp),%rax
   140001570:	48 89 c2             	mov    %rax,%rdx
   140001573:	e8 18 08 00 00       	call   140001d90 <_ZNSirsERi>
   140001578:	8b 75 cc             	mov    -0x34(%rbp),%esi
   14000157b:	8b 5d d0             	mov    -0x30(%rbp),%ebx
   14000157e:	f3 0f 10 75 d4       	movss  -0x2c(%rbp),%xmm6
   140001583:	48 8d 45 30          	lea    0x30(%rbp),%rax
   140001587:	8b 95 9c 00 00 00    	mov    0x9c(%rbp),%edx
   14000158d:	48 89 c1             	mov    %rax,%rcx
   140001590:	e8 6b 17 02 00       	call   140022d00 <_ZNSt7__cxx119to_stringEi>
   140001595:	48 8d 45 10          	lea    0x10(%rbp),%rax
   140001599:	48 8d 55 30          	lea    0x30(%rbp),%rdx
   14000159d:	49 89 d0             	mov    %rdx,%r8
   1400015a0:	48 8d 15 c1 4c 02 00 	lea    0x24cc1(%rip),%rdx        # 140026268 <_ZN5Eigen8internalL18defaultL3CacheSizeE+0x100>
   1400015a7:	48 89 c1             	mov    %rax,%rcx
   1400015aa:	e8 51 33 02 00       	call   140024900 <_ZStplIcSt11char_traitsIcESaIcEENSt7__cxx1112basic_stringIT_T0_T1_EEPKS5_OS8_>
   1400015af:	8b 85 9c 00 00 00    	mov    0x9c(%rbp),%eax
   1400015b5:	8d 50 01             	lea    0x1(%rax),%edx
   1400015b8:	48 8d 4d 10          	lea    0x10(%rbp),%rcx
   1400015bc:	48 8d 45 e0          	lea    -0x20(%rbp),%rax
   1400015c0:	89 74 24 30          	mov    %esi,0x30(%rsp)
   1400015c4:	89 5c 24 28          	mov    %ebx,0x28(%rsp)
   1400015c8:	f3 0f 11 74 24 20    	movss  %xmm6,0x20(%rsp)
   1400015ce:	41 b9 01 00 00 00    	mov    $0x1,%r9d
   1400015d4:	49 89 c8             	mov    %rcx,%r8
   1400015d7:	48 89 c1             	mov    %rax,%rcx
   1400015da:	e8 d1 96 01 00       	call   14001acb0 <_ZN8Circuito14aggiungiBipoloEiRKNSt7__cxx1112basic_stringIcSt11char_traitsIcESaIcEEE4Tipofii>
   1400015df:	48 8d 45 10          	lea    0x10(%rbp),%rax
   1400015e3:	48 89 c1             	mov    %rax,%rcx
   1400015e6:	e8 1d 07 00 00       	call   140001d08 <_ZNSt7__cxx1112basic_stringIcSt11char_traitsIcESaIcEED1Ev>
   1400015eb:	48 8d 45 30          	lea    0x30(%rbp),%rax
   1400015ef:	48 89 c1             	mov    %rax,%rcx
   1400015f2:	e8 11 07 00 00       	call   140001d08 <_ZNSt7__cxx1112basic_stringIcSt11char_traitsIcESaIcEED1Ev>
   1400015f7:	83 ad 9c 00 00 00 01 	subl   $0x1,0x9c(%rbp)
   1400015fe:	83 bd 9c 00 00 00 00 	cmpl   $0x0,0x9c(%rbp)
   140001605:	0f 8f de fe ff ff    	jg     1400014e9 <main+0x99>
   14000160b:	48 8d 05 66 4c 02 00 	lea    0x24c66(%rip),%rax        # 140026278 <_ZN5Eigen8internalL18defaultL3CacheSizeE+0x110>
   140001612:	48 89 c2             	mov    %rax,%rdx
   140001615:	48 8b 05 e4 61 02 00 	mov    0x261e4(%rip),%rax        # 140027800 <__fu3__ZSt4cout>
   14000161c:	48 89 c1             	mov    %rax,%rcx
   14000161f:	e8 64 06 00 00       	call   140001c88 <_ZStlsISt11char_traitsIcEERSt13basic_ostreamIcT_ES5_PKc>
   140001624:	48 8d 45 d8          	lea    -0x28(%rbp),%rax
   140001628:	48 89 c2             	mov    %rax,%rdx
   14000162b:	48 8b 05 be 61 02 00 	mov    0x261be(%rip),%rax        # 1400277f0 <__fu2__ZSt3cin>
   140001632:	48 89 c1             	mov    %rax,%rcx
   140001635:	e8 56 07 00 00       	call   140001d90 <_ZNSirsERi>
   14000163a:	8b 45 d8             	mov    -0x28(%rbp),%eax
   14000163d:	89 85 98 00 00 00    	mov    %eax,0x98(%rbp)
   140001643:	e9 17 01 00 00       	jmp    14000175f <main+0x30f>
   140001648:	48 8d 05 51 4c 02 00 	lea    0x24c51(%rip),%rax        # 1400262a0 <_ZN5Eigen8internalL18defaultL3CacheSizeE+0x138>
   14000164f:	48 89 c2             	mov    %rax,%rdx
   140001652:	48 8b 05 a7 61 02 00 	mov    0x261a7(%rip),%rax        # 140027800 <__fu3__ZSt4cout>
   140001659:	48 89 c1             	mov    %rax,%rcx
   14000165c:	e8 27 06 00 00       	call   140001c88 <_ZStlsISt11char_traitsIcEERSt13basic_ostreamIcT_ES5_PKc>
   140001661:	48 89 c1             	mov    %rax,%rcx
   140001664:	8b 85 98 00 00 00    	mov    0x98(%rbp),%eax
   14000166a:	89 c2                	mov    %eax,%edx
   14000166c:	e8 ff 06 00 00       	call   140001d70 <_ZNSolsEi>
   140001671:	48 89 c1             	mov    %rax,%rcx
   140001674:	48 8d 05 20 4b 02 00 	lea    0x24b20(%rip),%rax        # 14002619b <_ZN5Eigen8internalL18defaultL3CacheSizeE+0x33>
   14000167b:	48 89 c2             	mov    %rax,%rdx
   14000167e:	e8 05 06 00 00       	call   140001c88 <_ZStlsISt11char_traitsIcEERSt13basic_ostreamIcT_ES5_PKc>
   140001683:	48 8d 45 c8          	lea    -0x38(%rbp),%rax
   140001687:	48 89 c2             	mov    %rax,%rdx
   14000168a:	48 8b 05 5f 61 02 00 	mov    0x2615f(%rip),%rax        # 1400277f0 <__fu2__ZSt3cin>
   140001691:	48 89 c1             	mov    %rax,%rcx
   140001694:	e8 ff 06 00 00       	call   140001d98 <_ZNSirsERf>
   140001699:	48 8d 05 98 4b 02 00 	lea    0x24b98(%rip),%rax        # 140026238 <_ZN5Eigen8internalL18defaultL3CacheSizeE+0xd0>
   1400016a0:	48 89 c2             	mov    %rax,%rdx
   1400016a3:	48 8b 05 56 61 02 00 	mov    0x26156(%rip),%rax        # 140027800 <__fu3__ZSt4cout>
   1400016aa:	48 89 c1             	mov    %rax,%rcx
   1400016ad:	e8 d6 05 00 00       	call   140001c88 <_ZStlsISt11char_traitsIcEERSt13basic_ostreamIcT_ES5_PKc>
   1400016b2:	48 8d 45 c4          	lea    -0x3c(%rbp),%rax
   1400016b6:	48 89 c2             	mov    %rax,%rdx
   1400016b9:	48 8b 05 30 61 02 00 	mov    0x26130(%rip),%rax        # 1400277f0 <__fu2__ZSt3cin>
   1400016c0:	48 89 c1             	mov    %rax,%rcx
   1400016c3:	e8 c8 06 00 00       	call   140001d90 <_ZNSirsERi>
   1400016c8:	48 89 c1             	mov    %rax,%rcx
   1400016cb:	48 8d 45 c0          	lea    -0x40(%rbp),%rax
   1400016cf:	48 89 c2             	mov    %rax,%rdx
   1400016d2:	e8 b9 06 00 00       	call   140001d90 <_ZNSirsERi>
   1400016d7:	8b 75 c0             	mov    -0x40(%rbp),%esi
   1400016da:	8b 5d c4             	mov    -0x3c(%rbp),%ebx
   1400016dd:	f3 0f 10 75 c8       	movss  -0x38(%rbp),%xmm6
   1400016e2:	48 8d 45 70          	lea    0x70(%rbp),%rax
   1400016e6:	8b 95 98 00 00 00    	mov    0x98(%rbp),%edx
   1400016ec:	48 89 c1             	mov    %rax,%rcx
   1400016ef:	e8 0c 16 02 00       	call   140022d00 <_ZNSt7__cxx119to_stringEi>
   1400016f4:	48 8d 45 50          	lea    0x50(%rbp),%rax
   1400016f8:	48 8d 55 70          	lea    0x70(%rbp),%rdx
   1400016fc:	49 89 d0             	mov    %rdx,%r8
   1400016ff:	48 8d 15 c7 4b 02 00 	lea    0x24bc7(%rip),%rdx        # 1400262cd <_ZN5Eigen8internalL18defaultL3CacheSizeE+0x165>
   140001706:	48 89 c1             	mov    %rax,%rcx
   140001709:	e8 f2 31 02 00       	call   140024900 <_ZStplIcSt11char_traitsIcESaIcEENSt7__cxx1112basic_stringIT_T0_T1_EEPKS5_OS8_>
   14000170e:	8b 55 dc             	mov    -0x24(%rbp),%edx
   140001711:	8b 85 98 00 00 00    	mov    0x98(%rbp),%eax
   140001717:	01 c2                	add    %eax,%edx
   140001719:	48 8d 4d 50          	lea    0x50(%rbp),%rcx
   14000171d:	48 8d 45 e0          	lea    -0x20(%rbp),%rax
   140001721:	89 74 24 30          	mov    %esi,0x30(%rsp)
   140001725:	89 5c 24 28          	mov    %ebx,0x28(%rsp)
   140001729:	f3 0f 11 74 24 20    	movss  %xmm6,0x20(%rsp)
   14000172f:	41 b9 02 00 00 00    	mov    $0x2,%r9d
   140001735:	49 89 c8             	mov    %rcx,%r8
   140001738:	48 89 c1             	mov    %rax,%rcx
   14000173b:	e8 70 95 01 00       	call   14001acb0 <_ZN8Circuito14aggiungiBipoloEiRKNSt7__cxx1112basic_stringIcSt11char_traitsIcESaIcEEE4Tipofii>
   140001740:	48 8d 45 50          	lea    0x50(%rbp),%rax
   140001744:	48 89 c1             	mov    %rax,%rcx
   140001747:	e8 bc 05 00 00       	call   140001d08 <_ZNSt7__cxx1112basic_stringIcSt11char_traitsIcESaIcEED1Ev>
   14000174c:	48 8d 45 70          	lea    0x70(%rbp),%rax
   140001750:	48 89 c1             	mov    %rax,%rcx
   140001753:	e8 b0 05 00 00       	call   140001d08 <_ZNSt7__cxx1112basic_stringIcSt11char_traitsIcESaIcEED1Ev>
   140001758:	83 ad 98 00 00 00 01 	subl   $0x1,0x98(%rbp)
   14000175f:	83 bd 98 00 00 00 00 	cmpl   $0x0,0x98(%rbp)
   140001766:	0f 8f dc fe ff ff    	jg     140001648 <main+0x1f8>
   14000176c:	48 8d 45 e0          	lea    -0x20(%rbp),%rax
   140001770:	48 89 c1             	mov    %rax,%rcx
   140001773:	e8 98 95 01 00       	call   14001ad10 <_ZN8Circuito15risolviCircuitoEv>
   140001778:	bb 00 00 00 00       	mov    $0x0,%ebx
   14000177d:	48 8d 45 e0          	lea    -0x20(%rbp),%rax
   140001781:	48 89 c1             	mov    %rax,%rcx
   140001784:	e8 27 9d 01 00       	call   14001b4b0 <_ZN8CircuitoD1Ev>
   140001789:	89 d8                	mov    %ebx,%eax
   14000178b:	eb 5e                	jmp    1400017eb <main+0x39b>
   14000178d:	48 89 c3             	mov    %rax,%rbx
   140001790:	48 8d 45 10          	lea    0x10(%rbp),%rax
   140001794:	48 89 c1             	mov    %rax,%rcx
   140001797:	e8 6c 05 00 00       	call   140001d08 <_ZNSt7__cxx1112basic_stringIcSt11char_traitsIcESaIcEED1Ev>
   14000179c:	eb 03                	jmp    1400017a1 <main+0x351>
   14000179e:	48 89 c3             	mov    %rax,%rbx
   1400017a1:	48 8d 45 30          	lea    0x30(%rbp),%rax
   1400017a5:	48 89 c1             	mov    %rax,%rcx
   1400017a8:	e8 5b 05 00 00       	call   140001d08 <_ZNSt7__cxx1112basic_stringIcSt11char_traitsIcESaIcEED1Ev>
   1400017ad:	eb 25                	jmp    1400017d4 <main+0x384>
   1400017af:	48 89 c3             	mov    %rax,%rbx
   1400017b2:	48 8d 45 50          	lea    0x50(%rbp),%rax
   1400017b6:	48 89 c1             	mov    %rax,%rcx
   1400017b9:	e8 4a 05 00 00       	call   140001d08 <_ZNSt7__cxx1112basic_stringIcSt11char_traitsIcESaIcEED1Ev>
   1400017be:	eb 03                	jmp    1400017c3 <main+0x373>
   1400017c0:	48 89 c3             	mov    %rax,%rbx
   1400017c3:	48 8d 45 70          	lea    0x70(%rbp),%rax
   1400017c7:	48 89 c1             	mov    %rax,%rcx
   1400017ca:	e8 39 05 00 00       	call   140001d08 <_ZNSt7__cxx1112basic_stringIcSt11char_traitsIcESaIcEED1Ev>
   1400017cf:	eb 03                	jmp    1400017d4 <main+0x384>
   1400017d1:	48 89 c3             	mov    %rax,%rbx
   1400017d4:	48 8d 45 e0          	lea    -0x20(%rbp),%rax
   1400017d8:	48 89 c1             	mov    %rax,%rcx
   1400017db:	e8 d0 9c 01 00       	call   14001b4b0 <_ZN8CircuitoD1Ev>
   1400017e0:	48 89 d8             	mov    %rbx,%rax
   1400017e3:	48 89 c1             	mov    %rax,%rcx
   1400017e6:	e8 55 16 00 00       	call   140002e40 <_Unwind_Resume>
   1400017eb:	0f 10 b5 a0 00 00 00 	movups 0xa0(%rbp),%xmm6
   1400017f2:	48 81 c4 30 01 00 00 	add    $0x130,%rsp
   1400017f9:	5b                   	pop    %rbx
   1400017fa:	5e                   	pop    %rsi
   1400017fb:	5d                   	pop    %rbp
   1400017fc:	c3                   	ret
   1400017fd:	90                   	nop

00000001400017fe <_ZN5Eigen9DenseBaseINS_6MatrixIdLin1ELin1ELi0ELin1ELin1EEEE4ZeroExx>:
   1400017fe:	55                   	push   %rbp
   1400017ff:	48 89 e5             	mov    %rsp,%rbp
   140001802:	48 83 ec 30          	sub    $0x30,%rsp
   140001806:	48 89 4d 10          	mov    %rcx,0x10(%rbp)
   14000180a:	48 89 55 18          	mov    %rdx,0x18(%rbp)
   14000180e:	4c 89 45 20          	mov    %r8,0x20(%rbp)
   140001812:	66 0f ef c0          	pxor   %xmm0,%xmm0
   140001816:	f2 0f 11 45 f8       	movsd  %xmm0,-0x8(%rbp)
   14000181b:	48 8b 45 10          	mov    0x10(%rbp),%rax
   14000181f:	4c 8d 45 f8          	lea    -0x8(%rbp),%r8
   140001823:	48 8b 4d 20          	mov    0x20(%rbp),%rcx
   140001827:	48 8b 55 18          	mov    0x18(%rbp),%rdx
   14000182b:	4d 89 c1             	mov    %r8,%r9
   14000182e:	49 89 c8             	mov    %rcx,%r8
   140001831:	48 89 c1             	mov    %rax,%rcx
   140001834:	e8 45 00 00 00       	call   14000187e <_ZN5Eigen9DenseBaseINS_6MatrixIdLin1ELin1ELi0ELin1ELin1EEEE8ConstantExxRKd>
   140001839:	48 8b 45 10          	mov    0x10(%rbp),%rax
   14000183d:	48 83 c4 30          	add    $0x30,%rsp
   140001841:	5d                   	pop    %rbp
   140001842:	c3                   	ret
   140001843:	90                   	nop

0000000140001844 <_ZN5Eigen9DenseBaseINS_6MatrixIdLin1ELi1ELi0ELin1ELi1EEEE4ZeroEx>:
   140001844:	55                   	push   %rbp
   140001845:	48 89 e5             	mov    %rsp,%rbp
   140001848:	48 83 ec 30          	sub    $0x30,%rsp
   14000184c:	48 89 4d 10          	mov    %rcx,0x10(%rbp)
   140001850:	48 89 55 18          	mov    %rdx,0x18(%rbp)
   140001854:	66 0f ef c0          	pxor   %xmm0,%xmm0
   140001858:	f2 0f 11 45 f8       	movsd  %xmm0,-0x8(%rbp)
   14000185d:	48 8b 45 10          	mov    0x10(%rbp),%rax
   140001861:	48 8d 4d f8          	lea    -0x8(%rbp),%rcx
   140001865:	48 8b 55 18          	mov    0x18(%rbp),%rdx
   140001869:	49 89 c8             	mov    %rcx,%r8
   14000186c:	48 89 c1             	mov    %rax,%rcx
   14000186f:	e8 5a 00 00 00       	call   1400018ce <_ZN5Eigen9DenseBaseINS_6MatrixIdLin1ELi1ELi0ELin1ELi1EEEE8ConstantExRKd>
   140001874:	48 8b 45 10          	mov    0x10(%rbp),%rax
   140001878:	48 83 c4 30          	add    $0x30,%rsp
   14000187c:	5d                   	pop    %rbp
   14000187d:	c3                   	ret

000000014000187e <_ZN5Eigen9DenseBaseINS_6MatrixIdLin1ELin1ELi0ELin1ELin1EEEE8ConstantExxRKd>:
   14000187e:	55                   	push   %rbp
   14000187f:	48 89 e5             	mov    %rsp,%rbp
   140001882:	48 83 ec 30          	sub    $0x30,%rsp
   140001886:	48 89 4d 10          	mov    %rcx,0x10(%rbp)
   14000188a:	48 89 55 18          	mov    %rdx,0x18(%rbp)
   14000188e:	4c 89 45 20          	mov    %r8,0x20(%rbp)
   140001892:	4c 89 4d 28          	mov    %r9,0x28(%rbp)
   140001896:	48 8b 55 28          	mov    0x28(%rbp),%rdx
   14000189a:	48 8d 45 f8          	lea    -0x8(%rbp),%rax
   14000189e:	48 89 c1             	mov    %rax,%rcx
   1400018a1:	e8 7a cc 00 00       	call   14000e520 <_ZN5Eigen8internal18scalar_constant_opIdEC1ERKd>
   1400018a6:	48 8b 45 10          	mov    0x10(%rbp),%rax
   1400018aa:	4c 8d 45 f8          	lea    -0x8(%rbp),%r8
   1400018ae:	48 8b 4d 20          	mov    0x20(%rbp),%rcx
   1400018b2:	48 8b 55 18          	mov    0x18(%rbp),%rdx
   1400018b6:	4d 89 c1             	mov    %r8,%r9
   1400018b9:	49 89 c8             	mov    %rcx,%r8
   1400018bc:	48 89 c1             	mov    %rax,%rcx
   1400018bf:	e8 50 00 00 00       	call   140001914 <_ZN5Eigen9DenseBaseINS_6MatrixIdLin1ELin1ELi0ELin1ELin1EEEE11NullaryExprINS_8internal18scalar_constant_opIdEEEEKNS_14CwiseNullaryOpIT_S2_EExxRKS9_>
   1400018c4:	48 8b 45 10          	mov    0x10(%rbp),%rax
   1400018c8:	48 83 c4 30          	add    $0x30,%rsp
   1400018cc:	5d                   	pop    %rbp
   1400018cd:	c3                   	ret

00000001400018ce <_ZN5Eigen9DenseBaseINS_6MatrixIdLin1ELi1ELi0ELin1ELi1EEEE8ConstantExRKd>:
   1400018ce:	55                   	push   %rbp
   1400018cf:	48 89 e5             	mov    %rsp,%rbp
   1400018d2:	48 83 ec 30          	sub    $0x30,%rsp
   1400018d6:	48 89 4d 10          	mov    %rcx,0x10(%rbp)
   1400018da:	48 89 55 18          	mov    %rdx,0x18(%rbp)
   1400018de:	4c 89 45 20          	mov    %r8,0x20(%rbp)
   1400018e2:	48 8b 55 20          	mov    0x20(%rbp),%rdx
   1400018e6:	48 8d 45 f8          	lea    -0x8(%rbp),%rax
   1400018ea:	48 89 c1             	mov    %rax,%rcx
   1400018ed:	e8 2e cc 00 00       	call   14000e520 <_ZN5Eigen8internal18scalar_constant_opIdEC1ERKd>
   1400018f2:	48 8b 45 10          	mov    0x10(%rbp),%rax
   1400018f6:	48 8d 4d f8          	lea    -0x8(%rbp),%rcx
   1400018fa:	48 8b 55 18          	mov    0x18(%rbp),%rdx
   1400018fe:	49 89 c8             	mov    %rcx,%r8
   140001901:	48 89 c1             	mov    %rax,%rcx
   140001904:	e8 4b 00 00 00       	call   140001954 <_ZN5Eigen9DenseBaseINS_6MatrixIdLin1ELi1ELi0ELin1ELi1EEEE11NullaryExprINS_8internal18scalar_constant_opIdEEEEKNS_14CwiseNullaryOpIT_S2_EExRKS9_>
   140001909:	48 8b 45 10          	mov    0x10(%rbp),%rax
   14000190d:	48 83 c4 30          	add    $0x30,%rsp
   140001911:	5d                   	pop    %rbp
   140001912:	c3                   	ret
   140001913:	90                   	nop

0000000140001914 <_ZN5Eigen9DenseBaseINS_6MatrixIdLin1ELin1ELi0ELin1ELin1EEEE11NullaryExprINS_8internal18scalar_constant_opIdEEEEKNS_14CwiseNullaryOpIT_S2_EExxRKS9_>:
   140001914:	55                   	push   %rbp
   140001915:	48 89 e5             	mov    %rsp,%rbp
   140001918:	48 83 ec 20          	sub    $0x20,%rsp
   14000191c:	48 89 4d 10          	mov    %rcx,0x10(%rbp)
   140001920:	48 89 55 18          	mov    %rdx,0x18(%rbp)
   140001924:	4c 89 45 20          	mov    %r8,0x20(%rbp)
   140001928:	4c 89 4d 28          	mov    %r9,0x28(%rbp)
   14000192c:	4c 8b 45 28          	mov    0x28(%rbp),%r8
   140001930:	48 8b 4d 20          	mov    0x20(%rbp),%rcx
   140001934:	48 8b 55 18          	mov    0x18(%rbp),%rdx
   140001938:	48 8b 45 10          	mov    0x10(%rbp),%rax
   14000193c:	4d 89 c1             	mov    %r8,%r9
   14000193f:	49 89 c8             	mov    %rcx,%r8
   140001942:	48 89 c1             	mov    %rax,%rcx
   140001945:	e8 26 28 00 00       	call   140004170 <_ZN5Eigen14CwiseNullaryOpINS_8internal18scalar_constant_opIdEENS_6MatrixIdLin1ELin1ELi0ELin1ELin1EEEEC1ExxRKS3_>
   14000194a:	48 8b 45 10          	mov    0x10(%rbp),%rax
   14000194e:	48 83 c4 20          	add    $0x20,%rsp
   140001952:	5d                   	pop    %rbp
   140001953:	c3                   	ret

0000000140001954 <_ZN5Eigen9DenseBaseINS_6MatrixIdLin1ELi1ELi0ELin1ELi1EEEE11NullaryExprINS_8internal18scalar_constant_opIdEEEEKNS_14CwiseNullaryOpIT_S2_EExRKS9_>:
   140001954:	55                   	push   %rbp
   140001955:	48 89 e5             	mov    %rsp,%rbp
   140001958:	48 83 ec 20          	sub    $0x20,%rsp
   14000195c:	48 89 4d 10          	mov    %rcx,0x10(%rbp)
   140001960:	48 89 55 18          	mov    %rdx,0x18(%rbp)
   140001964:	4c 89 45 20          	mov    %r8,0x20(%rbp)
   140001968:	48 8b 4d 20          	mov    0x20(%rbp),%rcx
   14000196c:	48 8b 55 18          	mov    0x18(%rbp),%rdx
   140001970:	48 8b 45 10          	mov    0x10(%rbp),%rax
   140001974:	49 89 c9             	mov    %rcx,%r9
   140001977:	41 b8 01 00 00 00    	mov    $0x1,%r8d
   14000197d:	48 89 c1             	mov    %rax,%rcx
   140001980:	e8 5b 27 00 00       	call   1400040e0 <_ZN5Eigen14CwiseNullaryOpINS_8internal18scalar_constant_opIdEENS_6MatrixIdLin1ELi1ELi0ELin1ELi1EEEEC1ExxRKS3_>
   140001985:	48 8b 45 10          	mov    0x10(%rbp),%rax
   140001989:	48 83 c4 20          	add    $0x20,%rsp
   14000198d:	5d                   	pop    %rbp
   14000198e:	c3                   	ret
   14000198f:	90                   	nop

0000000140001990 <_ZN5Eigen15PlainObjectBaseINS_6MatrixIiLin1ELi1ELi0ELin1ELi1EEEE6_init1IxEEvxPNSt9enable_ifIXaaooneLNS_9DenseBaseIS2_EUt_En1ELi1EntsrSt14is_convertibleIT_iE5valueoontLNS_8internal7is_sameINS_9MatrixXprENS_8ArrayXprEEUt_E0EeqLS8_n1EL_ZNS_L7DynamicEEESA_E4typeE>:
   140001990:	55                   	push   %rbp
   140001991:	48 89 e5             	mov    %rsp,%rbp
   140001994:	48 83 ec 30          	sub    $0x30,%rsp
   140001998:	48 89 4d 10          	mov    %rcx,0x10(%rbp)
   14000199c:	48 89 55 18          	mov    %rdx,0x18(%rbp)
   1400019a0:	4c 89 45 20          	mov    %r8,0x20(%rbp)
   1400019a4:	c6 45 ff 01          	movb   $0x1,-0x1(%rbp)
   1400019a8:	48 8d 45 ff          	lea    -0x1(%rbp),%rax
   1400019ac:	48 89 c1             	mov    %rax,%rcx
   1400019af:	e8 dc dc 00 00       	call   14000f690 <_ZN5Eigen8internal22ignore_unused_variableIbEEvRKT_>
   1400019b4:	48 8b 55 18          	mov    0x18(%rbp),%rdx
   1400019b8:	48 8b 45 10          	mov    0x10(%rbp),%rax
   1400019bc:	48 89 c1             	mov    %rax,%rcx
   1400019bf:	e8 8c 3b 00 00       	call   140005550 <_ZN5Eigen15PlainObjectBaseINS_6MatrixIiLin1ELi1ELi0ELin1ELi1EEEE6resizeEx>
   1400019c4:	90                   	nop
   1400019c5:	48 83 c4 30          	add    $0x30,%rsp
   1400019c9:	5d                   	pop    %rbp
   1400019ca:	c3                   	ret
   1400019cb:	90                   	nop

00000001400019cc <_ZN5Eigen15PlainObjectBaseINS_6MatrixIiLi1ELin1ELi1ELi1ELin1EEEE6_init1IxEEvxPNSt9enable_ifIXaaooneLNS_9DenseBaseIS2_EUt_En1ELi1EntsrSt14is_convertibleIT_iE5valueoontLNS_8internal7is_sameINS_9MatrixXprENS_8ArrayXprEEUt_E0EeqLS8_n1EL_ZNS_L7DynamicEEESA_E4typeE>:
   1400019cc:	55                   	push   %rbp
   1400019cd:	48 89 e5             	mov    %rsp,%rbp
   1400019d0:	48 83 ec 30          	sub    $0x30,%rsp
   1400019d4:	48 89 4d 10          	mov    %rcx,0x10(%rbp)
   1400019d8:	48 89 55 18          	mov    %rdx,0x18(%rbp)
   1400019dc:	4c 89 45 20          	mov    %r8,0x20(%rbp)
   1400019e0:	c6 45 ff 01          	movb   $0x1,-0x1(%rbp)
   1400019e4:	48 8d 45 ff          	lea    -0x1(%rbp),%rax
   1400019e8:	48 89 c1             	mov    %rax,%rcx
   1400019eb:	e8 a0 dc 00 00       	call   14000f690 <_ZN5Eigen8internal22ignore_unused_variableIbEEvRKT_>
   1400019f0:	48 8b 55 18          	mov    0x18(%rbp),%rdx
   1400019f4:	48 8b 45 10          	mov    0x10(%rbp),%rax
   1400019f8:	48 89 c1             	mov    %rax,%rcx
   1400019fb:	e8 80 3a 00 00       	call   140005480 <_ZN5Eigen15PlainObjectBaseINS_6MatrixIiLi1ELin1ELi1ELi1ELin1EEEE6resizeEx>
   140001a00:	90                   	nop
   140001a01:	48 83 c4 30          	add    $0x30,%rsp
   140001a05:	5d                   	pop    %rbp
   140001a06:	c3                   	ret
   140001a07:	90                   	nop

0000000140001a08 <_ZN5Eigen9DenseBaseINS_6MatrixIdLin1ELi1ELi0ELin1ELi1EEEE8ConstantExxRKd>:
   140001a08:	55                   	push   %rbp
   140001a09:	48 89 e5             	mov    %rsp,%rbp
   140001a0c:	48 83 ec 30          	sub    $0x30,%rsp
   140001a10:	48 89 4d 10          	mov    %rcx,0x10(%rbp)
   140001a14:	48 89 55 18          	mov    %rdx,0x18(%rbp)
   140001a18:	4c 89 45 20          	mov    %r8,0x20(%rbp)
   140001a1c:	4c 89 4d 28          	mov    %r9,0x28(%rbp)
   140001a20:	48 8b 55 28          	mov    0x28(%rbp),%rdx
   140001a24:	48 8d 45 f8          	lea    -0x8(%rbp),%rax
   140001a28:	48 89 c1             	mov    %rax,%rcx
   140001a2b:	e8 f0 ca 00 00       	call   14000e520 <_ZN5Eigen8internal18scalar_constant_opIdEC1ERKd>
   140001a30:	48 8b 45 10          	mov    0x10(%rbp),%rax
   140001a34:	4c 8d 45 f8          	lea    -0x8(%rbp),%r8
   140001a38:	48 8b 4d 20          	mov    0x20(%rbp),%rcx
   140001a3c:	48 8b 55 18          	mov    0x18(%rbp),%rdx
   140001a40:	4d 89 c1             	mov    %r8,%r9
   140001a43:	49 89 c8             	mov    %rcx,%r8
   140001a46:	48 89 c1             	mov    %rax,%rcx
   140001a49:	e8 0a 00 00 00       	call   140001a58 <_ZN5Eigen9DenseBaseINS_6MatrixIdLin1ELi1ELi0ELin1ELi1EEEE11NullaryExprINS_8internal18scalar_constant_opIdEEEEKNS_14CwiseNullaryOpIT_S2_EExxRKS9_>
   140001a4e:	48 8b 45 10          	mov    0x10(%rbp),%rax
   140001a52:	48 83 c4 30          	add    $0x30,%rsp
   140001a56:	5d                   	pop    %rbp
   140001a57:	c3                   	ret

0000000140001a58 <_ZN5Eigen9DenseBaseINS_6MatrixIdLin1ELi1ELi0ELin1ELi1EEEE11NullaryExprINS_8internal18scalar_constant_opIdEEEEKNS_14CwiseNullaryOpIT_S2_EExxRKS9_>:
   140001a58:	55                   	push   %rbp
   140001a59:	48 89 e5             	mov    %rsp,%rbp
   140001a5c:	48 83 ec 20          	sub    $0x20,%rsp
   140001a60:	48 89 4d 10          	mov    %rcx,0x10(%rbp)
   140001a64:	48 89 55 18          	mov    %rdx,0x18(%rbp)
   140001a68:	4c 89 45 20          	mov    %r8,0x20(%rbp)
   140001a6c:	4c 89 4d 28          	mov    %r9,0x28(%rbp)
   140001a70:	4c 8b 45 28          	mov    0x28(%rbp),%r8
   140001a74:	48 8b 4d 20          	mov    0x20(%rbp),%rcx
   140001a78:	48 8b 55 18          	mov    0x18(%rbp),%rdx
   140001a7c:	48 8b 45 10          	mov    0x10(%rbp),%rax
   140001a80:	4d 89 c1             	mov    %r8,%r9
   140001a83:	49 89 c8             	mov    %rcx,%r8
   140001a86:	48 89 c1             	mov    %rax,%rcx
   140001a89:	e8 52 26 00 00       	call   1400040e0 <_ZN5Eigen14CwiseNullaryOpINS_8internal18scalar_constant_opIdEENS_6MatrixIdLin1ELi1ELi0ELin1ELi1EEEEC1ExxRKS3_>
   140001a8e:	48 8b 45 10          	mov    0x10(%rbp),%rax
   140001a92:	48 83 c4 20          	add    $0x20,%rsp
   140001a96:	5d                   	pop    %rbp
   140001a97:	c3                   	ret

0000000140001a98 <_ZN5Eigen9DenseBaseINS_5BlockINS_6MatrixIdLin1ELi1ELi0ELin1ELi1EEELi1ELi1ELb0EEEE8ConstantExxRKd>:
   140001a98:	55                   	push   %rbp
   140001a99:	48 89 e5             	mov    %rsp,%rbp
   140001a9c:	48 83 ec 30          	sub    $0x30,%rsp
   140001aa0:	48 89 4d 10          	mov    %rcx,0x10(%rbp)
   140001aa4:	48 89 55 18          	mov    %rdx,0x18(%rbp)
   140001aa8:	4c 89 45 20          	mov    %r8,0x20(%rbp)
   140001aac:	4c 89 4d 28          	mov    %r9,0x28(%rbp)
   140001ab0:	48 8b 55 28          	mov    0x28(%rbp),%rdx
   140001ab4:	48 8d 45 f8          	lea    -0x8(%rbp),%rax
   140001ab8:	48 89 c1             	mov    %rax,%rcx
   140001abb:	e8 60 ca 00 00       	call   14000e520 <_ZN5Eigen8internal18scalar_constant_opIdEC1ERKd>
   140001ac0:	48 8b 45 10          	mov    0x10(%rbp),%rax
   140001ac4:	4c 8d 45 f8          	lea    -0x8(%rbp),%r8
   140001ac8:	48 8b 4d 20          	mov    0x20(%rbp),%rcx
   140001acc:	48 8b 55 18          	mov    0x18(%rbp),%rdx
   140001ad0:	4d 89 c1             	mov    %r8,%r9
   140001ad3:	49 89 c8             	mov    %rcx,%r8
   140001ad6:	48 89 c1             	mov    %rax,%rcx
   140001ad9:	e8 0a 00 00 00       	call   140001ae8 <_ZN5Eigen9DenseBaseINS_5BlockINS_6MatrixIdLin1ELi1ELi0ELin1ELi1EEELi1ELi1ELb0EEEE11NullaryExprINS_8internal18scalar_constant_opIdEEEEKNS_14CwiseNullaryOpIT_NS2_IdLi1ELi1ELi0ELi1ELi1EEEEExxRKSB_>
   140001ade:	48 8b 45 10          	mov    0x10(%rbp),%rax
   140001ae2:	48 83 c4 30          	add    $0x30,%rsp
   140001ae6:	5d                   	pop    %rbp
   140001ae7:	c3                   	ret

0000000140001ae8 <_ZN5Eigen9DenseBaseINS_5BlockINS_6MatrixIdLin1ELi1ELi0ELin1ELi1EEELi1ELi1ELb0EEEE11NullaryExprINS_8internal18scalar_constant_opIdEEEEKNS_14CwiseNullaryOpIT_NS2_IdLi1ELi1ELi0ELi1ELi1EEEEExxRKSB_>:
   140001ae8:	55                   	push   %rbp
   140001ae9:	48 89 e5             	mov    %rsp,%rbp
   140001aec:	48 83 ec 20          	sub    $0x20,%rsp
   140001af0:	48 89 4d 10          	mov    %rcx,0x10(%rbp)
   140001af4:	48 89 55 18          	mov    %rdx,0x18(%rbp)
   140001af8:	4c 89 45 20          	mov    %r8,0x20(%rbp)
   140001afc:	4c 89 4d 28          	mov    %r9,0x28(%rbp)
   140001b00:	4c 8b 45 28          	mov    0x28(%rbp),%r8
   140001b04:	48 8b 4d 20          	mov    0x20(%rbp),%rcx
   140001b08:	48 8b 55 18          	mov    0x18(%rbp),%rdx
   140001b0c:	48 8b 45 10          	mov    0x10(%rbp),%rax
   140001b10:	4d 89 c1             	mov    %r8,%r9
   140001b13:	49 89 c8             	mov    %rcx,%r8
   140001b16:	48 89 c1             	mov    %rax,%rcx
   140001b19:	e8 22 25 00 00       	call   140004040 <_ZN5Eigen14CwiseNullaryOpINS_8internal18scalar_constant_opIdEENS_6MatrixIdLi1ELi1ELi0ELi1ELi1EEEEC1ExxRKS3_>
   140001b1e:	48 8b 45 10          	mov    0x10(%rbp),%rax
   140001b22:	48 83 c4 20          	add    $0x20,%rsp
   140001b26:	5d                   	pop    %rbp
   140001b27:	c3                   	ret

0000000140001b28 <_ZN5Eigen8internalL21first_default_alignedINS_5BlockIKNS_12CwiseUnaryOpINS0_13scalar_abs_opIdEEKNS_6MatrixIdLin1ELin1ELi0ELin1ELin1EEEEELin1ELi1ELb1EEEEExRKNS_9DenseBaseIT_EE>:
   140001b28:	55                   	push   %rbp
   140001b29:	48 89 e5             	mov    %rsp,%rbp
   140001b2c:	48 83 ec 20          	sub    $0x20,%rsp
   140001b30:	48 89 4d 10          	mov    %rcx,0x10(%rbp)
   140001b34:	48 8b 45 10          	mov    0x10(%rbp),%rax
   140001b38:	48 89 c1             	mov    %rax,%rcx
   140001b3b:	e8 06 00 00 00       	call   140001b46 <_ZN5Eigen8internalL13first_alignedILi16ENS_5BlockIKNS_12CwiseUnaryOpINS0_13scalar_abs_opIdEEKNS_6MatrixIdLin1ELin1ELi0ELin1ELin1EEEEELin1ELi1ELb1EEEEExRKNS_9DenseBaseIT0_EE>
   140001b40:	48 83 c4 20          	add    $0x20,%rsp
   140001b44:	5d                   	pop    %rbp
   140001b45:	c3                   	ret

0000000140001b46 <_ZN5Eigen8internalL13first_alignedILi16ENS_5BlockIKNS_12CwiseUnaryOpINS0_13scalar_abs_opIdEEKNS_6MatrixIdLin1ELin1ELi0ELin1ELin1EEEEELin1ELi1ELb1EEEEExRKNS_9DenseBaseIT0_EE>:
   140001b46:	55                   	push   %rbp
   140001b47:	48 89 e5             	mov    %rsp,%rbp
   140001b4a:	48 83 ec 20          	sub    $0x20,%rsp
   140001b4e:	48 89 4d 10          	mov    %rcx,0x10(%rbp)
   140001b52:	48 8b 45 10          	mov    0x10(%rbp),%rax
   140001b56:	48 89 c1             	mov    %rax,%rcx
   140001b59:	e8 f2 e9 01 00       	call   140020550 <_ZNK5Eigen9EigenBaseINS_5BlockIKNS_12CwiseUnaryOpINS_8internal13scalar_abs_opIdEEKNS_6MatrixIdLin1ELin1ELi0ELin1ELin1EEEEELin1ELi1ELb1EEEE7derivedEv>
   140001b5e:	48 89 c1             	mov    %rax,%rcx
   140001b61:	e8 aa c8 00 00       	call   14000e410 <_ZN5Eigen8internal18first_aligned_implILi16ENS_5BlockIKNS_12CwiseUnaryOpINS0_13scalar_abs_opIdEEKNS_6MatrixIdLin1ELin1ELi0ELin1ELin1EEEEELin1ELi1ELb1EEELb1EE3runERKSB_>
   140001b66:	48 83 c4 20          	add    $0x20,%rsp
   140001b6a:	5d                   	pop    %rbp
   140001b6b:	c3                   	ret

0000000140001b6c <_ZN5Eigen15PlainObjectBaseINS_6MatrixIbLin1ELi1ELi0ELin1ELi1EEEE6_init1IxEEvxPNSt9enable_ifIXaaooneLNS_9DenseBaseIS2_EUt_En1ELi1EntsrSt14is_convertibleIT_bE5valueoontLNS_8internal7is_sameINS_9MatrixXprENS_8ArrayXprEEUt_E0EeqLS8_n1EL_ZNS_L7DynamicEEESA_E4typeE>:
   140001b6c:	55                   	push   %rbp
   140001b6d:	48 89 e5             	mov    %rsp,%rbp
   140001b70:	48 83 ec 30          	sub    $0x30,%rsp
   140001b74:	48 89 4d 10          	mov    %rcx,0x10(%rbp)
   140001b78:	48 89 55 18          	mov    %rdx,0x18(%rbp)
   140001b7c:	4c 89 45 20          	mov    %r8,0x20(%rbp)
   140001b80:	c6 45 ff 01          	movb   $0x1,-0x1(%rbp)
   140001b84:	48 8d 45 ff          	lea    -0x1(%rbp),%rax
   140001b88:	48 89 c1             	mov    %rax,%rcx
   140001b8b:	e8 00 db 00 00       	call   14000f690 <_ZN5Eigen8internal22ignore_unused_variableIbEEvRKT_>
   140001b90:	48 8b 55 18          	mov    0x18(%rbp),%rdx
   140001b94:	48 8b 45 10          	mov    0x10(%rbp),%rax
   140001b98:	48 89 c1             	mov    %rax,%rcx
   140001b9b:	e8 60 2c 00 00       	call   140004800 <_ZN5Eigen15PlainObjectBaseINS_6MatrixIbLin1ELi1ELi0ELin1ELi1EEEE6resizeEx>
   140001ba0:	90                   	nop
   140001ba1:	48 83 c4 30          	add    $0x30,%rsp
   140001ba5:	5d                   	pop    %rbp
   140001ba6:	c3                   	ret
   140001ba7:	90                   	nop

0000000140001ba8 <_ZN5Eigen9DenseBaseINS_6MatrixIbLin1ELi1ELi0ELin1ELi1EEEE8ConstantExxRKb>:
   140001ba8:	55                   	push   %rbp
   140001ba9:	48 89 e5             	mov    %rsp,%rbp
   140001bac:	48 83 ec 30          	sub    $0x30,%rsp
   140001bb0:	48 89 4d 10          	mov    %rcx,0x10(%rbp)
   140001bb4:	48 89 55 18          	mov    %rdx,0x18(%rbp)
   140001bb8:	4c 89 45 20          	mov    %r8,0x20(%rbp)
   140001bbc:	4c 89 4d 28          	mov    %r9,0x28(%rbp)
   140001bc0:	48 8b 55 28          	mov    0x28(%rbp),%rdx
   140001bc4:	48 8d 45 ff          	lea    -0x1(%rbp),%rax
   140001bc8:	48 89 c1             	mov    %rax,%rcx
   140001bcb:	e8 10 c9 00 00       	call   14000e4e0 <_ZN5Eigen8internal18scalar_constant_opIbEC1ERKb>
   140001bd0:	48 8b 45 10          	mov    0x10(%rbp),%rax
   140001bd4:	4c 8d 45 ff          	lea    -0x1(%rbp),%r8
   140001bd8:	48 8b 4d 20          	mov    0x20(%rbp),%rcx
   140001bdc:	48 8b 55 18          	mov    0x18(%rbp),%rdx
   140001be0:	4d 89 c1             	mov    %r8,%r9
   140001be3:	49 89 c8             	mov    %rcx,%r8
   140001be6:	48 89 c1             	mov    %rax,%rcx
   140001be9:	e8 0a 00 00 00       	call   140001bf8 <_ZN5Eigen9DenseBaseINS_6MatrixIbLin1ELi1ELi0ELin1ELi1EEEE11NullaryExprINS_8internal18scalar_constant_opIbEEEEKNS_14CwiseNullaryOpIT_S2_EExxRKS9_>
   140001bee:	48 8b 45 10          	mov    0x10(%rbp),%rax
   140001bf2:	48 83 c4 30          	add    $0x30,%rsp
   140001bf6:	5d                   	pop    %rbp
   140001bf7:	c3                   	ret

0000000140001bf8 <_ZN5Eigen9DenseBaseINS_6MatrixIbLin1ELi1ELi0ELin1ELi1EEEE11NullaryExprINS_8internal18scalar_constant_opIbEEEEKNS_14CwiseNullaryOpIT_S2_EExxRKS9_>:
   140001bf8:	55                   	push   %rbp
   140001bf9:	48 89 e5             	mov    %rsp,%rbp
   140001bfc:	48 83 ec 20          	sub    $0x20,%rsp
   140001c00:	48 89 4d 10          	mov    %rcx,0x10(%rbp)
   140001c04:	48 89 55 18          	mov    %rdx,0x18(%rbp)
   140001c08:	4c 89 45 20          	mov    %r8,0x20(%rbp)
   140001c0c:	4c 89 4d 28          	mov    %r9,0x28(%rbp)
   140001c10:	4c 8b 45 28          	mov    0x28(%rbp),%r8
   140001c14:	48 8b 4d 20          	mov    0x20(%rbp),%rcx
   140001c18:	48 8b 55 18          	mov    0x18(%rbp),%rdx
   140001c1c:	48 8b 45 10          	mov    0x10(%rbp),%rax
   140001c20:	4d 89 c1             	mov    %r8,%r9
   140001c23:	49 89 c8             	mov    %rcx,%r8
   140001c26:	48 89 c1             	mov    %rax,%rcx
   140001c29:	e8 b2 22 00 00       	call   140003ee0 <_ZN5Eigen14CwiseNullaryOpINS_8internal18scalar_constant_opIbEENS_6MatrixIbLin1ELi1ELi0ELin1ELi1EEEEC1ExxRKS3_>
   140001c2e:	48 8b 45 10          	mov    0x10(%rbp),%rax
   140001c32:	48 83 c4 20          	add    $0x20,%rsp
   140001c36:	5d                   	pop    %rbp
   140001c37:	c3                   	ret
   140001c38:	90                   	nop
   140001c39:	90                   	nop
   140001c3a:	90                   	nop
   140001c3b:	90                   	nop
   140001c3c:	90                   	nop
   140001c3d:	90                   	nop
   140001c3e:	90                   	nop
   140001c3f:	90                   	nop

0000000140001c40 <__gxx_personality_seh0>:
   140001c40:	ff 25 da 2b 03 00    	jmp    *0x32bda(%rip)        # 140034820 <__imp___gxx_personality_seh0>
   140001c46:	90                   	nop
   140001c47:	90                   	nop

0000000140001c48 <__cxa_throw>:
   140001c48:	ff 25 ca 2b 03 00    	jmp    *0x32bca(%rip)        # 140034818 <__imp___cxa_throw>
   140001c4e:	90                   	nop
   140001c4f:	90                   	nop

0000000140001c50 <__cxa_rethrow>:
   140001c50:	ff 25 ba 2b 03 00    	jmp    *0x32bba(%rip)        # 140034810 <__imp___cxa_rethrow>
   140001c56:	90                   	nop
   140001c57:	90                   	nop

0000000140001c58 <__cxa_end_catch>:
   140001c58:	ff 25 aa 2b 03 00    	jmp    *0x32baa(%rip)        # 140034808 <__imp___cxa_end_catch>
   140001c5e:	90                   	nop
   140001c5f:	90                   	nop

0000000140001c60 <__cxa_begin_catch>:
   140001c60:	ff 25 9a 2b 03 00    	jmp    *0x32b9a(%rip)        # 140034800 <__imp___cxa_begin_catch>
   140001c66:	90                   	nop
   140001c67:	90                   	nop

0000000140001c68 <__cxa_allocate_exception>:
   140001c68:	ff 25 8a 2b 03 00    	jmp    *0x32b8a(%rip)        # 1400347f8 <__imp___cxa_allocate_exception>
   140001c6e:	90                   	nop
   140001c6f:	90                   	nop

0000000140001c70 <_Znwy>:
   140001c70:	ff 25 7a 2b 03 00    	jmp    *0x32b7a(%rip)        # 1400347f0 <__imp__Znwy>
   140001c76:	90                   	nop
   140001c77:	90                   	nop

0000000140001c78 <_ZdlPvy>:
   140001c78:	ff 25 6a 2b 03 00    	jmp    *0x32b6a(%rip)        # 1400347e8 <__imp__ZdlPvy>
   140001c7e:	90                   	nop
   140001c7f:	90                   	nop

0000000140001c80 <_ZStlsIcSt11char_traitsIcESaIcEERSt13basic_ostreamIT_T0_ES7_RKNSt7__cxx1112basic_stringIS4_S5_T1_EE>:
   140001c80:	ff 25 3a 2b 03 00    	jmp    *0x32b3a(%rip)        # 1400347c0 <__imp__ZStlsIcSt11char_traitsIcESaIcEERSt13basic_ostreamIT_T0_ES7_RKNSt7__cxx1112basic_stringIS4_S5_T1_EE>
   140001c86:	90                   	nop
   140001c87:	90                   	nop

0000000140001c88 <_ZStlsISt11char_traitsIcEERSt13basic_ostreamIcT_ES5_PKc>:
   140001c88:	ff 25 2a 2b 03 00    	jmp    *0x32b2a(%rip)        # 1400347b8 <__imp__ZStlsISt11char_traitsIcEERSt13basic_ostreamIcT_ES5_PKc>
   140001c8e:	90                   	nop
   140001c8f:	90                   	nop

0000000140001c90 <_ZSt4endlIcSt11char_traitsIcEERSt13basic_ostreamIT_T0_ES6_>:
   140001c90:	ff 25 1a 2b 03 00    	jmp    *0x32b1a(%rip)        # 1400347b0 <__imp__ZSt4endlIcSt11char_traitsIcEERSt13basic_ostreamIT_T0_ES6_>
   140001c96:	90                   	nop
   140001c97:	90                   	nop

0000000140001c98 <_ZSt29_Rb_tree_insert_and_rebalancebPSt18_Rb_tree_node_baseS0_RS_>:
   140001c98:	ff 25 fa 2a 03 00    	jmp    *0x32afa(%rip)        # 140034798 <__imp__ZSt29_Rb_tree_insert_and_rebalancebPSt18_Rb_tree_node_baseS0_RS_>
   140001c9e:	90                   	nop
   140001c9f:	90                   	nop

0000000140001ca0 <_ZSt28__throw_bad_array_new_lengthv>:
   140001ca0:	ff 25 ea 2a 03 00    	jmp    *0x32aea(%rip)        # 140034790 <__imp__ZSt28__throw_bad_array_new_lengthv>
   140001ca6:	90                   	nop
   140001ca7:	90                   	nop

0000000140001ca8 <_ZSt20__throw_length_errorPKc>:
   140001ca8:	ff 25 da 2a 03 00    	jmp    *0x32ada(%rip)        # 140034788 <__imp__ZSt20__throw_length_errorPKc>
   140001cae:	90                   	nop
   140001caf:	90                   	nop

0000000140001cb0 <_ZSt19__throw_logic_errorPKc>:
   140001cb0:	ff 25 ca 2a 03 00    	jmp    *0x32aca(%rip)        # 140034780 <__imp__ZSt19__throw_logic_errorPKc>
   140001cb6:	90                   	nop
   140001cb7:	90                   	nop

0000000140001cb8 <_ZSt18_Rb_tree_incrementPSt18_Rb_tree_node_base>:
   140001cb8:	ff 25 ba 2a 03 00    	jmp    *0x32aba(%rip)        # 140034778 <__imp__ZSt18_Rb_tree_incrementPSt18_Rb_tree_node_base>
   140001cbe:	90                   	nop
   140001cbf:	90                   	nop

0000000140001cc0 <_ZSt18_Rb_tree_decrementPSt18_Rb_tree_node_base>:
   140001cc0:	ff 25 aa 2a 03 00    	jmp    *0x32aaa(%rip)        # 140034770 <__imp__ZSt18_Rb_tree_decrementPSt18_Rb_tree_node_base>
   140001cc6:	90                   	nop
   140001cc7:	90                   	nop

0000000140001cc8 <_ZSt17__throw_bad_allocv>:
   140001cc8:	ff 25 9a 2a 03 00    	jmp    *0x32a9a(%rip)        # 140034768 <__imp__ZSt17__throw_bad_allocv>
   140001cce:	90                   	nop
   140001ccf:	90                   	nop

0000000140001cd0 <_ZNSt9basic_iosIcSt11char_traitsIcEE7copyfmtERKS2_>:
   140001cd0:	ff 25 8a 2a 03 00    	jmp    *0x32a8a(%rip)        # 140034760 <__imp__ZNSt9basic_iosIcSt11char_traitsIcEE7copyfmtERKS2_>
   140001cd6:	90                   	nop
   140001cd7:	90                   	nop

0000000140001cd8 <_ZNSt9basic_iosIcSt11char_traitsIcEE4fillEc>:
   140001cd8:	ff 25 7a 2a 03 00    	jmp    *0x32a7a(%rip)        # 140034758 <__imp__ZNSt9basic_iosIcSt11char_traitsIcEE4fillEc>
   140001cde:	90                   	nop
   140001cdf:	90                   	nop

0000000140001ce0 <_ZNSt9bad_allocD1Ev>:
   140001ce0:	ff 25 6a 2a 03 00    	jmp    *0x32a6a(%rip)        # 140034750 <__imp__ZNSt9bad_allocD1Ev>
   140001ce6:	90                   	nop
   140001ce7:	90                   	nop

0000000140001ce8 <_ZNSt7__cxx1118basic_stringstreamIcSt11char_traitsIcESaIcEED1Ev>:
   140001ce8:	ff 25 5a 2a 03 00    	jmp    *0x32a5a(%rip)        # 140034748 <__imp__ZNSt7__cxx1118basic_stringstreamIcSt11char_traitsIcESaIcEED1Ev>
   140001cee:	90                   	nop
   140001cef:	90                   	nop

0000000140001cf0 <_ZNSt7__cxx1118basic_stringstreamIcSt11char_traitsIcESaIcEEC1Ev>:
   140001cf0:	ff 25 4a 2a 03 00    	jmp    *0x32a4a(%rip)        # 140034740 <__imp__ZNSt7__cxx1118basic_stringstreamIcSt11char_traitsIcESaIcEEC1Ev>
   140001cf6:	90                   	nop
   140001cf7:	90                   	nop

0000000140001cf8 <_ZNSt7__cxx1112basic_stringIcSt11char_traitsIcESaIcEEpLEc>:
   140001cf8:	ff 25 3a 2a 03 00    	jmp    *0x32a3a(%rip)        # 140034738 <__imp__ZNSt7__cxx1112basic_stringIcSt11char_traitsIcESaIcEEpLEc>
   140001cfe:	90                   	nop
   140001cff:	90                   	nop

0000000140001d00 <_ZNSt7__cxx1112basic_stringIcSt11char_traitsIcESaIcEEixEy>:
   140001d00:	ff 25 2a 2a 03 00    	jmp    *0x32a2a(%rip)        # 140034730 <__imp__ZNSt7__cxx1112basic_stringIcSt11char_traitsIcESaIcEEixEy>
   140001d06:	90                   	nop
   140001d07:	90                   	nop

0000000140001d08 <_ZNSt7__cxx1112basic_stringIcSt11char_traitsIcESaIcEED1Ev>:
   140001d08:	ff 25 1a 2a 03 00    	jmp    *0x32a1a(%rip)        # 140034728 <__imp__ZNSt7__cxx1112basic_stringIcSt11char_traitsIcESaIcEED1Ev>
   140001d0e:	90                   	nop
   140001d0f:	90                   	nop

0000000140001d10 <_ZNSt7__cxx1112basic_stringIcSt11char_traitsIcESaIcEEC1ERKS4_>:
   140001d10:	ff 25 0a 2a 03 00    	jmp    *0x32a0a(%rip)        # 140034720 <__imp__ZNSt7__cxx1112basic_stringIcSt11char_traitsIcESaIcEEC1ERKS4_>
   140001d16:	90                   	nop
   140001d17:	90                   	nop

0000000140001d18 <_ZNSt7__cxx1112basic_stringIcSt11char_traitsIcESaIcEEC1EOS4_>:
   140001d18:	ff 25 fa 29 03 00    	jmp    *0x329fa(%rip)        # 140034718 <__imp__ZNSt7__cxx1112basic_stringIcSt11char_traitsIcESaIcEEC1EOS4_>
   140001d1e:	90                   	nop
   140001d1f:	90                   	nop

0000000140001d20 <_ZNSt7__cxx1112basic_stringIcSt11char_traitsIcESaIcEE9_M_createERyy>:
   140001d20:	ff 25 ea 29 03 00    	jmp    *0x329ea(%rip)        # 140034710 <__imp__ZNSt7__cxx1112basic_stringIcSt11char_traitsIcESaIcEE9_M_createERyy>
   140001d26:	90                   	nop
   140001d27:	90                   	nop

0000000140001d28 <_ZNSt7__cxx1112basic_stringIcSt11char_traitsIcESaIcEE7_M_dataEPc>:
   140001d28:	ff 25 da 29 03 00    	jmp    *0x329da(%rip)        # 140034708 <__imp__ZNSt7__cxx1112basic_stringIcSt11char_traitsIcESaIcEE7_M_dataEPc>
   140001d2e:	90                   	nop
   140001d2f:	90                   	nop

0000000140001d30 <_ZNSt7__cxx1112basic_stringIcSt11char_traitsIcESaIcEE6insertEyPKc>:
   140001d30:	ff 25 ca 29 03 00    	jmp    *0x329ca(%rip)        # 140034700 <__imp__ZNSt7__cxx1112basic_stringIcSt11char_traitsIcESaIcEE6insertEyPKc>
   140001d36:	90                   	nop
   140001d37:	90                   	nop

0000000140001d38 <_ZNSt7__cxx1112basic_stringIcSt11char_traitsIcESaIcEE13_S_copy_charsEPcPKcS7_>:
   140001d38:	ff 25 ba 29 03 00    	jmp    *0x329ba(%rip)        # 1400346f8 <__imp__ZNSt7__cxx1112basic_stringIcSt11char_traitsIcESaIcEE13_S_copy_charsEPcPKcS7_>
   140001d3e:	90                   	nop
   140001d3f:	90                   	nop

0000000140001d40 <_ZNSt7__cxx1112basic_stringIcSt11char_traitsIcESaIcEE13_M_set_lengthEy>:
   140001d40:	ff 25 aa 29 03 00    	jmp    *0x329aa(%rip)        # 1400346f0 <__imp__ZNSt7__cxx1112basic_stringIcSt11char_traitsIcESaIcEE13_M_set_lengthEy>
   140001d46:	90                   	nop
   140001d47:	90                   	nop

0000000140001d48 <_ZNSt7__cxx1112basic_stringIcSt11char_traitsIcESaIcEE13_M_local_dataEv>:
   140001d48:	ff 25 9a 29 03 00    	jmp    *0x3299a(%rip)        # 1400346e8 <__imp__ZNSt7__cxx1112basic_stringIcSt11char_traitsIcESaIcEE13_M_local_dataEv>
   140001d4e:	90                   	nop
   140001d4f:	90                   	nop

0000000140001d50 <_ZNSt7__cxx1112basic_stringIcSt11char_traitsIcESaIcEE12_M_constructEyc>:
   140001d50:	ff 25 8a 29 03 00    	jmp    *0x3298a(%rip)        # 1400346e0 <__imp__ZNSt7__cxx1112basic_stringIcSt11char_traitsIcESaIcEE12_M_constructEyc>
   140001d56:	90                   	nop
   140001d57:	90                   	nop

0000000140001d58 <_ZNSt7__cxx1112basic_stringIcSt11char_traitsIcESaIcEE12_Alloc_hiderC1EPcRKS3_>:
   140001d58:	ff 25 7a 29 03 00    	jmp    *0x3297a(%rip)        # 1400346d8 <__imp__ZNSt7__cxx1112basic_stringIcSt11char_traitsIcESaIcEE12_Alloc_hiderC1EPcRKS3_>
   140001d5e:	90                   	nop
   140001d5f:	90                   	nop

0000000140001d60 <_ZNSt7__cxx1112basic_stringIcSt11char_traitsIcESaIcEE11_M_capacityEy>:
   140001d60:	ff 25 6a 29 03 00    	jmp    *0x3296a(%rip)        # 1400346d0 <__imp__ZNSt7__cxx1112basic_stringIcSt11char_traitsIcESaIcEE11_M_capacityEy>
   140001d66:	90                   	nop
   140001d67:	90                   	nop

0000000140001d68 <_ZNSt7__cxx1112basic_stringIcSt11char_traitsIcESaIcEE10_M_disposeEv>:
   140001d68:	ff 25 5a 29 03 00    	jmp    *0x3295a(%rip)        # 1400346c8 <__imp__ZNSt7__cxx1112basic_stringIcSt11char_traitsIcESaIcEE10_M_disposeEv>
   140001d6e:	90                   	nop
   140001d6f:	90                   	nop

0000000140001d70 <_ZNSolsEi>:
   140001d70:	ff 25 4a 29 03 00    	jmp    *0x3294a(%rip)        # 1400346c0 <__imp__ZNSolsEi>
   140001d76:	90                   	nop
   140001d77:	90                   	nop

0000000140001d78 <_ZNSolsEf>:
   140001d78:	ff 25 3a 29 03 00    	jmp    *0x3293a(%rip)        # 1400346b8 <__imp__ZNSolsEf>
   140001d7e:	90                   	nop
   140001d7f:	90                   	nop

0000000140001d80 <_ZNSolsEd>:
   140001d80:	ff 25 2a 29 03 00    	jmp    *0x3292a(%rip)        # 1400346b0 <__imp__ZNSolsEd>
   140001d86:	90                   	nop
   140001d87:	90                   	nop

0000000140001d88 <_ZNSolsEPFRSoS_E>:
   140001d88:	ff 25 1a 29 03 00    	jmp    *0x3291a(%rip)        # 1400346a8 <__imp__ZNSolsEPFRSoS_E>
   140001d8e:	90                   	nop
   140001d8f:	90                   	nop

0000000140001d90 <_ZNSirsERi>:
   140001d90:	ff 25 0a 29 03 00    	jmp    *0x3290a(%rip)        # 1400346a0 <__imp__ZNSirsERi>
   140001d96:	90                   	nop
   140001d97:	90                   	nop

0000000140001d98 <_ZNSirsERf>:
   140001d98:	ff 25 fa 28 03 00    	jmp    *0x328fa(%rip)        # 140034698 <__imp__ZNSirsERf>
   140001d9e:	90                   	nop
   140001d9f:	90                   	nop

0000000140001da0 <_ZNKSt9basic_iosIcSt11char_traitsIcEE4fillEv>:
   140001da0:	ff 25 ea 28 03 00    	jmp    *0x328ea(%rip)        # 140034690 <__imp__ZNKSt9basic_iosIcSt11char_traitsIcEE4fillEv>
   140001da6:	90                   	nop
   140001da7:	90                   	nop

0000000140001da8 <_ZNKSt7__cxx1118basic_stringstreamIcSt11char_traitsIcESaIcEE3strEv>:
   140001da8:	ff 25 da 28 03 00    	jmp    *0x328da(%rip)        # 140034688 <__imp__ZNKSt7__cxx1118basic_stringstreamIcSt11char_traitsIcESaIcEE3strEv>
   140001dae:	90                   	nop
   140001daf:	90                   	nop

0000000140001db0 <_ZNKSt7__cxx1112basic_stringIcSt11char_traitsIcESaIcEE7_M_dataEv>:
   140001db0:	ff 25 ca 28 03 00    	jmp    *0x328ca(%rip)        # 140034680 <__imp__ZNKSt7__cxx1112basic_stringIcSt11char_traitsIcESaIcEE7_M_dataEv>
   140001db6:	90                   	nop
   140001db7:	90                   	nop

0000000140001db8 <_ZNKSt7__cxx1112basic_stringIcSt11char_traitsIcESaIcEE6lengthEv>:
   140001db8:	ff 25 ba 28 03 00    	jmp    *0x328ba(%rip)        # 140034678 <__imp__ZNKSt7__cxx1112basic_stringIcSt11char_traitsIcESaIcEE6lengthEv>
   140001dbe:	90                   	nop
   140001dbf:	90                   	nop

0000000140001dc0 <__do_global_dtors>:
   140001dc0:	48 83 ec 28          	sub    $0x28,%rsp
   140001dc4:	48 8b 05 35 32 02 00 	mov    0x23235(%rip),%rax        # 140025000 <__data_start__>
   140001dcb:	48 8b 00             	mov    (%rax),%rax
   140001dce:	48 85 c0             	test   %rax,%rax
   140001dd1:	74 22                	je     140001df5 <__do_global_dtors+0x35>
   140001dd3:	0f 1f 44 00 00       	nopl   0x0(%rax,%rax,1)
   140001dd8:	ff d0                	call   *%rax
   140001dda:	48 8b 05 1f 32 02 00 	mov    0x2321f(%rip),%rax        # 140025000 <__data_start__>
   140001de1:	48 8d 50 08          	lea    0x8(%rax),%rdx
   140001de5:	48 8b 40 08          	mov    0x8(%rax),%rax
   140001de9:	48 89 15 10 32 02 00 	mov    %rdx,0x23210(%rip)        # 140025000 <__data_start__>
   140001df0:	48 85 c0             	test   %rax,%rax
   140001df3:	75 e3                	jne    140001dd8 <__do_global_dtors+0x18>
   140001df5:	48 83 c4 28          	add    $0x28,%rsp
   140001df9:	c3                   	ret
   140001dfa:	66 0f 1f 44 00 00    	nopw   0x0(%rax,%rax,1)

0000000140001e00 <__do_global_ctors>:
   140001e00:	56                   	push   %rsi
   140001e01:	53                   	push   %rbx
   140001e02:	48 83 ec 28          	sub    $0x28,%rsp
   140001e06:	48 8b 15 33 5a 02 00 	mov    0x25a33(%rip),%rdx        # 140027840 <.refptr.__CTOR_LIST__>
   140001e0d:	48 8b 02             	mov    (%rdx),%rax
   140001e10:	89 c1                	mov    %eax,%ecx
   140001e12:	83 f8 ff             	cmp    $0xffffffff,%eax
   140001e15:	74 39                	je     140001e50 <__do_global_ctors+0x50>
   140001e17:	85 c9                	test   %ecx,%ecx
   140001e19:	74 20                	je     140001e3b <__do_global_ctors+0x3b>
   140001e1b:	89 c8                	mov    %ecx,%eax
   140001e1d:	83 e9 01             	sub    $0x1,%ecx
   140001e20:	48 8d 1c c2          	lea    (%rdx,%rax,8),%rbx
   140001e24:	48 29 c8             	sub    %rcx,%rax
   140001e27:	48 8d 74 c2 f8       	lea    -0x8(%rdx,%rax,8),%rsi
   140001e2c:	0f 1f 40 00          	nopl   0x0(%rax)
   140001e30:	ff 13                	call   *(%rbx)
   140001e32:	48 83 eb 08          	sub    $0x8,%rbx
   140001e36:	48 39 f3             	cmp    %rsi,%rbx
   140001e39:	75 f5                	jne    140001e30 <__do_global_ctors+0x30>
   140001e3b:	48 8d 0d 7e ff ff ff 	lea    -0x82(%rip),%rcx        # 140001dc0 <__do_global_dtors>
   140001e42:	48 83 c4 28          	add    $0x28,%rsp
   140001e46:	5b                   	pop    %rbx
   140001e47:	5e                   	pop    %rsi
   140001e48:	e9 c3 f5 ff ff       	jmp    140001410 <atexit>
   140001e4d:	0f 1f 00             	nopl   (%rax)
   140001e50:	31 c0                	xor    %eax,%eax
   140001e52:	66 0f 1f 44 00 00    	nopw   0x0(%rax,%rax,1)
   140001e58:	44 8d 40 01          	lea    0x1(%rax),%r8d
   140001e5c:	89 c1                	mov    %eax,%ecx
   140001e5e:	4a 83 3c c2 00       	cmpq   $0x0,(%rdx,%r8,8)
   140001e63:	4c 89 c0             	mov    %r8,%rax
   140001e66:	75 f0                	jne    140001e58 <__do_global_ctors+0x58>
   140001e68:	eb ad                	jmp    140001e17 <__do_global_ctors+0x17>
   140001e6a:	66 0f 1f 44 00 00    	nopw   0x0(%rax,%rax,1)

0000000140001e70 <__main>:
   140001e70:	8b 05 ba 11 03 00    	mov    0x311ba(%rip),%eax        # 140033030 <initialized>
   140001e76:	85 c0                	test   %eax,%eax
   140001e78:	74 06                	je     140001e80 <__main+0x10>
   140001e7a:	c3                   	ret
   140001e7b:	0f 1f 44 00 00       	nopl   0x0(%rax,%rax,1)
   140001e80:	c7 05 a6 11 03 00 01 	movl   $0x1,0x311a6(%rip)        # 140033030 <initialized>
   140001e87:	00 00 00 
   140001e8a:	e9 71 ff ff ff       	jmp    140001e00 <__do_global_ctors>
   140001e8f:	90                   	nop

0000000140001e90 <_setargv>:
   140001e90:	31 c0                	xor    %eax,%eax
   140001e92:	c3                   	ret
   140001e93:	90                   	nop
   140001e94:	90                   	nop
   140001e95:	90                   	nop
   140001e96:	90                   	nop
   140001e97:	90                   	nop
   140001e98:	90                   	nop
   140001e99:	90                   	nop
   140001e9a:	90                   	nop
   140001e9b:	90                   	nop
   140001e9c:	90                   	nop
   140001e9d:	90                   	nop
   140001e9e:	90                   	nop
   140001e9f:	90                   	nop

0000000140001ea0 <__dyn_tls_dtor>:
   140001ea0:	48 83 ec 28          	sub    $0x28,%rsp
   140001ea4:	83 fa 03             	cmp    $0x3,%edx
   140001ea7:	74 17                	je     140001ec0 <__dyn_tls_dtor+0x20>
   140001ea9:	85 d2                	test   %edx,%edx
   140001eab:	74 13                	je     140001ec0 <__dyn_tls_dtor+0x20>
   140001ead:	b8 01 00 00 00       	mov    $0x1,%eax
   140001eb2:	48 83 c4 28          	add    $0x28,%rsp
   140001eb6:	c3                   	ret
   140001eb7:	66 0f 1f 84 00 00 00 	nopw   0x0(%rax,%rax,1)
   140001ebe:	00 00 
   140001ec0:	e8 7b 0a 00 00       	call   140002940 <__mingw_TLScallback>
   140001ec5:	b8 01 00 00 00       	mov    $0x1,%eax
   140001eca:	48 83 c4 28          	add    $0x28,%rsp
   140001ece:	c3                   	ret
   140001ecf:	90                   	nop

0000000140001ed0 <__dyn_tls_init>:
   140001ed0:	56                   	push   %rsi
   140001ed1:	53                   	push   %rbx
   140001ed2:	48 83 ec 28          	sub    $0x28,%rsp
   140001ed6:	48 8b 05 e3 58 02 00 	mov    0x258e3(%rip),%rax        # 1400277c0 <.refptr._CRT_MT>
   140001edd:	83 38 02             	cmpl   $0x2,(%rax)
   140001ee0:	74 06                	je     140001ee8 <__dyn_tls_init+0x18>
   140001ee2:	c7 00 02 00 00 00    	movl   $0x2,(%rax)
   140001ee8:	83 fa 02             	cmp    $0x2,%edx
   140001eeb:	74 13                	je     140001f00 <__dyn_tls_init+0x30>
   140001eed:	83 fa 01             	cmp    $0x1,%edx
   140001ef0:	74 4e                	je     140001f40 <__dyn_tls_init+0x70>
   140001ef2:	b8 01 00 00 00       	mov    $0x1,%eax
   140001ef7:	48 83 c4 28          	add    $0x28,%rsp
   140001efb:	5b                   	pop    %rbx
   140001efc:	5e                   	pop    %rsi
   140001efd:	c3                   	ret
   140001efe:	66 90                	xchg   %ax,%ax
   140001f00:	48 8d 1d 51 41 03 00 	lea    0x34151(%rip),%rbx        # 140036058 <__xd_z>
   140001f07:	48 8d 35 4a 41 03 00 	lea    0x3414a(%rip),%rsi        # 140036058 <__xd_z>
   140001f0e:	48 39 f3             	cmp    %rsi,%rbx
   140001f11:	74 df                	je     140001ef2 <__dyn_tls_init+0x22>
   140001f13:	0f 1f 44 00 00       	nopl   0x0(%rax,%rax,1)
   140001f18:	48 8b 03             	mov    (%rbx),%rax
   140001f1b:	48 85 c0             	test   %rax,%rax
   140001f1e:	74 02                	je     140001f22 <__dyn_tls_init+0x52>
   140001f20:	ff d0                	call   *%rax
   140001f22:	48 83 c3 08          	add    $0x8,%rbx
   140001f26:	48 39 f3             	cmp    %rsi,%rbx
   140001f29:	75 ed                	jne    140001f18 <__dyn_tls_init+0x48>
   140001f2b:	b8 01 00 00 00       	mov    $0x1,%eax
   140001f30:	48 83 c4 28          	add    $0x28,%rsp
   140001f34:	5b                   	pop    %rbx
   140001f35:	5e                   	pop    %rsi
   140001f36:	c3                   	ret
   140001f37:	66 0f 1f 84 00 00 00 	nopw   0x0(%rax,%rax,1)
   140001f3e:	00 00 
   140001f40:	e8 fb 09 00 00       	call   140002940 <__mingw_TLScallback>
   140001f45:	b8 01 00 00 00       	mov    $0x1,%eax
   140001f4a:	48 83 c4 28          	add    $0x28,%rsp
   140001f4e:	5b                   	pop    %rbx
   140001f4f:	5e                   	pop    %rsi
   140001f50:	c3                   	ret
   140001f51:	66 66 2e 0f 1f 84 00 	data16 cs nopw 0x0(%rax,%rax,1)
   140001f58:	00 00 00 00 
   140001f5c:	0f 1f 40 00          	nopl   0x0(%rax)

0000000140001f60 <__tlregdtor>:
   140001f60:	31 c0                	xor    %eax,%eax
   140001f62:	c3                   	ret
   140001f63:	90                   	nop
   140001f64:	90                   	nop
   140001f65:	90                   	nop
   140001f66:	90                   	nop
   140001f67:	90                   	nop
   140001f68:	90                   	nop
   140001f69:	90                   	nop
   140001f6a:	90                   	nop
   140001f6b:	90                   	nop
   140001f6c:	90                   	nop
   140001f6d:	90                   	nop
   140001f6e:	90                   	nop
   140001f6f:	90                   	nop

0000000140001f70 <_matherr>:
   140001f70:	56                   	push   %rsi
   140001f71:	53                   	push   %rbx
   140001f72:	48 83 ec 78          	sub    $0x78,%rsp
   140001f76:	0f 11 74 24 40       	movups %xmm6,0x40(%rsp)
   140001f7b:	0f 11 7c 24 50       	movups %xmm7,0x50(%rsp)
   140001f80:	44 0f 11 44 24 60    	movups %xmm8,0x60(%rsp)
   140001f86:	83 39 06             	cmpl   $0x6,(%rcx)
   140001f89:	0f 87 cd 00 00 00    	ja     14000205c <_matherr+0xec>
   140001f8f:	8b 01                	mov    (%rcx),%eax
   140001f91:	48 8d 15 4c 56 02 00 	lea    0x2564c(%rip),%rdx        # 1400275e4 <.rdata+0x124>
   140001f98:	48 63 04 82          	movslq (%rdx,%rax,4),%rax
   140001f9c:	48 01 d0             	add    %rdx,%rax
   140001f9f:	ff e0                	jmp    *%rax
   140001fa1:	0f 1f 80 00 00 00 00 	nopl   0x0(%rax)
   140001fa8:	48 8d 1d 30 55 02 00 	lea    0x25530(%rip),%rbx        # 1400274df <.rdata+0x1f>
   140001faf:	f2 44 0f 10 41 20    	movsd  0x20(%rcx),%xmm8
   140001fb5:	f2 0f 10 79 18       	movsd  0x18(%rcx),%xmm7
   140001fba:	f2 0f 10 71 10       	movsd  0x10(%rcx),%xmm6
   140001fbf:	48 8b 71 08          	mov    0x8(%rcx),%rsi
   140001fc3:	b9 02 00 00 00       	mov    $0x2,%ecx
   140001fc8:	e8 83 11 00 00       	call   140003150 <__acrt_iob_func>
   140001fcd:	f2 44 0f 11 44 24 30 	movsd  %xmm8,0x30(%rsp)
   140001fd4:	49 89 d8             	mov    %rbx,%r8
   140001fd7:	48 8d 15 da 55 02 00 	lea    0x255da(%rip),%rdx        # 1400275b8 <.rdata+0xf8>
   140001fde:	f2 0f 11 7c 24 28    	movsd  %xmm7,0x28(%rsp)
   140001fe4:	48 89 c1             	mov    %rax,%rcx
   140001fe7:	49 89 f1             	mov    %rsi,%r9
   140001fea:	f2 0f 11 74 24 20    	movsd  %xmm6,0x20(%rsp)
   140001ff0:	e8 bb 0e 00 00       	call   140002eb0 <fprintf>
   140001ff5:	90                   	nop
   140001ff6:	0f 10 74 24 40       	movups 0x40(%rsp),%xmm6
   140001ffb:	0f 10 7c 24 50       	movups 0x50(%rsp),%xmm7
   140002000:	31 c0                	xor    %eax,%eax
   140002002:	44 0f 10 44 24 60    	movups 0x60(%rsp),%xmm8
   140002008:	48 83 c4 78          	add    $0x78,%rsp
   14000200c:	5b                   	pop    %rbx
   14000200d:	5e                   	pop    %rsi
   14000200e:	c3                   	ret
   14000200f:	90                   	nop
   140002010:	48 8d 1d a9 54 02 00 	lea    0x254a9(%rip),%rbx        # 1400274c0 <.rdata>
   140002017:	eb 96                	jmp    140001faf <_matherr+0x3f>
   140002019:	0f 1f 80 00 00 00 00 	nopl   0x0(%rax)
   140002020:	48 8d 1d f9 54 02 00 	lea    0x254f9(%rip),%rbx        # 140027520 <.rdata+0x60>
   140002027:	eb 86                	jmp    140001faf <_matherr+0x3f>
   140002029:	0f 1f 80 00 00 00 00 	nopl   0x0(%rax)
   140002030:	48 8d 1d c9 54 02 00 	lea    0x254c9(%rip),%rbx        # 140027500 <.rdata+0x40>
   140002037:	e9 73 ff ff ff       	jmp    140001faf <_matherr+0x3f>
   14000203c:	0f 1f 40 00          	nopl   0x0(%rax)
   140002040:	48 8d 1d 29 55 02 00 	lea    0x25529(%rip),%rbx        # 140027570 <.rdata+0xb0>
   140002047:	e9 63 ff ff ff       	jmp    140001faf <_matherr+0x3f>
   14000204c:	0f 1f 40 00          	nopl   0x0(%rax)
   140002050:	48 8d 1d f1 54 02 00 	lea    0x254f1(%rip),%rbx        # 140027548 <.rdata+0x88>
   140002057:	e9 53 ff ff ff       	jmp    140001faf <_matherr+0x3f>
   14000205c:	48 8d 1d 43 55 02 00 	lea    0x25543(%rip),%rbx        # 1400275a6 <.rdata+0xe6>
   140002063:	e9 47 ff ff ff       	jmp    140001faf <_matherr+0x3f>
   140002068:	90                   	nop
   140002069:	90                   	nop
   14000206a:	90                   	nop
   14000206b:	90                   	nop
   14000206c:	90                   	nop
   14000206d:	90                   	nop
   14000206e:	90                   	nop
   14000206f:	90                   	nop

0000000140002070 <_fpreset>:
   140002070:	db e3                	fninit
   140002072:	c3                   	ret
   140002073:	90                   	nop
   140002074:	90                   	nop
   140002075:	90                   	nop
   140002076:	90                   	nop
   140002077:	90                   	nop
   140002078:	90                   	nop
   140002079:	90                   	nop
   14000207a:	90                   	nop
   14000207b:	90                   	nop
   14000207c:	90                   	nop
   14000207d:	90                   	nop
   14000207e:	90                   	nop
   14000207f:	90                   	nop

0000000140002080 <__report_error>:
   140002080:	56                   	push   %rsi
   140002081:	53                   	push   %rbx
   140002082:	48 83 ec 38          	sub    $0x38,%rsp
   140002086:	48 89 cb             	mov    %rcx,%rbx
   140002089:	48 8d 44 24 58       	lea    0x58(%rsp),%rax
   14000208e:	b9 02 00 00 00       	mov    $0x2,%ecx
   140002093:	48 89 54 24 58       	mov    %rdx,0x58(%rsp)
   140002098:	4c 89 44 24 60       	mov    %r8,0x60(%rsp)
   14000209d:	4c 89 4c 24 68       	mov    %r9,0x68(%rsp)
   1400020a2:	48 89 44 24 28       	mov    %rax,0x28(%rsp)
   1400020a7:	e8 a4 10 00 00       	call   140003150 <__acrt_iob_func>
   1400020ac:	41 b8 1b 00 00 00    	mov    $0x1b,%r8d
   1400020b2:	ba 01 00 00 00       	mov    $0x1,%edx
   1400020b7:	48 8d 0d 42 55 02 00 	lea    0x25542(%rip),%rcx        # 140027600 <.rdata>
   1400020be:	49 89 c1             	mov    %rax,%r9
   1400020c1:	e8 b2 10 00 00       	call   140003178 <fwrite>
   1400020c6:	48 8b 74 24 28       	mov    0x28(%rsp),%rsi
   1400020cb:	b9 02 00 00 00       	mov    $0x2,%ecx
   1400020d0:	e8 7b 10 00 00       	call   140003150 <__acrt_iob_func>
   1400020d5:	48 89 da             	mov    %rbx,%rdx
   1400020d8:	48 89 c1             	mov    %rax,%rcx
   1400020db:	49 89 f0             	mov    %rsi,%r8
   1400020de:	e8 ad 0d 00 00       	call   140002e90 <vfprintf>
   1400020e3:	e8 10 11 00 00       	call   1400031f8 <abort>
   1400020e8:	90                   	nop
   1400020e9:	0f 1f 80 00 00 00 00 	nopl   0x0(%rax)

00000001400020f0 <mark_section_writable>:
   1400020f0:	57                   	push   %rdi
   1400020f1:	56                   	push   %rsi
   1400020f2:	53                   	push   %rbx
   1400020f3:	48 83 ec 50          	sub    $0x50,%rsp
   1400020f7:	48 63 35 96 0f 03 00 	movslq 0x30f96(%rip),%rsi        # 140033094 <maxSections>
   1400020fe:	48 89 cb             	mov    %rcx,%rbx
   140002101:	85 f6                	test   %esi,%esi
   140002103:	0f 8e 17 01 00 00    	jle    140002220 <mark_section_writable+0x130>
   140002109:	48 8b 05 88 0f 03 00 	mov    0x30f88(%rip),%rax        # 140033098 <the_secs>
   140002110:	45 31 c9             	xor    %r9d,%r9d
   140002113:	48 83 c0 18          	add    $0x18,%rax
   140002117:	66 0f 1f 84 00 00 00 	nopw   0x0(%rax,%rax,1)
   14000211e:	00 00 
   140002120:	4c 8b 00             	mov    (%rax),%r8
   140002123:	4c 39 c3             	cmp    %r8,%rbx
   140002126:	72 13                	jb     14000213b <mark_section_writable+0x4b>
   140002128:	48 8b 50 08          	mov    0x8(%rax),%rdx
   14000212c:	8b 52 08             	mov    0x8(%rdx),%edx
   14000212f:	49 01 d0             	add    %rdx,%r8
   140002132:	4c 39 c3             	cmp    %r8,%rbx
   140002135:	0f 82 8a 00 00 00    	jb     1400021c5 <mark_section_writable+0xd5>
   14000213b:	41 83 c1 01          	add    $0x1,%r9d
   14000213f:	48 83 c0 28          	add    $0x28,%rax
   140002143:	41 39 f1             	cmp    %esi,%r9d
   140002146:	75 d8                	jne    140002120 <mark_section_writable+0x30>
   140002148:	48 89 d9             	mov    %rbx,%rcx
   14000214b:	e8 10 0a 00 00       	call   140002b60 <__mingw_GetSectionForAddress>
   140002150:	48 89 c7             	mov    %rax,%rdi
   140002153:	48 85 c0             	test   %rax,%rax
   140002156:	0f 84 e6 00 00 00    	je     140002242 <mark_section_writable+0x152>
   14000215c:	48 8b 05 35 0f 03 00 	mov    0x30f35(%rip),%rax        # 140033098 <the_secs>
   140002163:	48 8d 1c b6          	lea    (%rsi,%rsi,4),%rbx
   140002167:	48 c1 e3 03          	shl    $0x3,%rbx
   14000216b:	48 01 d8             	add    %rbx,%rax
   14000216e:	48 89 78 20          	mov    %rdi,0x20(%rax)
   140002172:	c7 00 00 00 00 00    	movl   $0x0,(%rax)
   140002178:	e8 23 0b 00 00       	call   140002ca0 <_GetPEImageBase>
   14000217d:	8b 57 0c             	mov    0xc(%rdi),%edx
   140002180:	41 b8 30 00 00 00    	mov    $0x30,%r8d
   140002186:	48 8d 0c 10          	lea    (%rax,%rdx,1),%rcx
   14000218a:	48 8b 05 07 0f 03 00 	mov    0x30f07(%rip),%rax        # 140033098 <the_secs>
   140002191:	48 8d 54 24 20       	lea    0x20(%rsp),%rdx
   140002196:	48 89 4c 18 18       	mov    %rcx,0x18(%rax,%rbx,1)
   14000219b:	ff 15 47 23 03 00    	call   *0x32347(%rip)        # 1400344e8 <__imp_VirtualQuery>
   1400021a1:	48 85 c0             	test   %rax,%rax
   1400021a4:	0f 84 7d 00 00 00    	je     140002227 <mark_section_writable+0x137>
   1400021aa:	8b 44 24 44          	mov    0x44(%rsp),%eax
   1400021ae:	8d 50 fc             	lea    -0x4(%rax),%edx
   1400021b1:	83 e2 fb             	and    $0xfffffffb,%edx
   1400021b4:	74 08                	je     1400021be <mark_section_writable+0xce>
   1400021b6:	8d 50 c0             	lea    -0x40(%rax),%edx
   1400021b9:	83 e2 bf             	and    $0xffffffbf,%edx
   1400021bc:	75 12                	jne    1400021d0 <mark_section_writable+0xe0>
   1400021be:	83 05 cf 0e 03 00 01 	addl   $0x1,0x30ecf(%rip)        # 140033094 <maxSections>
   1400021c5:	48 83 c4 50          	add    $0x50,%rsp
   1400021c9:	5b                   	pop    %rbx
   1400021ca:	5e                   	pop    %rsi
   1400021cb:	5f                   	pop    %rdi
   1400021cc:	c3                   	ret
   1400021cd:	0f 1f 00             	nopl   (%rax)
   1400021d0:	83 f8 02             	cmp    $0x2,%eax
   1400021d3:	48 8b 4c 24 20       	mov    0x20(%rsp),%rcx
   1400021d8:	48 8b 54 24 38       	mov    0x38(%rsp),%rdx
   1400021dd:	41 b8 40 00 00 00    	mov    $0x40,%r8d
   1400021e3:	b8 04 00 00 00       	mov    $0x4,%eax
   1400021e8:	44 0f 44 c0          	cmove  %eax,%r8d
   1400021ec:	48 03 1d a5 0e 03 00 	add    0x30ea5(%rip),%rbx        # 140033098 <the_secs>
   1400021f3:	48 89 4b 08          	mov    %rcx,0x8(%rbx)
   1400021f7:	49 89 d9             	mov    %rbx,%r9
   1400021fa:	48 89 53 10          	mov    %rdx,0x10(%rbx)
   1400021fe:	ff 15 dc 22 03 00    	call   *0x322dc(%rip)        # 1400344e0 <__imp_VirtualProtect>
   140002204:	85 c0                	test   %eax,%eax
   140002206:	75 b6                	jne    1400021be <mark_section_writable+0xce>
   140002208:	ff 15 a2 22 03 00    	call   *0x322a2(%rip)        # 1400344b0 <__imp_GetLastError>
   14000220e:	48 8d 0d 63 54 02 00 	lea    0x25463(%rip),%rcx        # 140027678 <.rdata+0x78>
   140002215:	89 c2                	mov    %eax,%edx
   140002217:	e8 64 fe ff ff       	call   140002080 <__report_error>
   14000221c:	0f 1f 40 00          	nopl   0x0(%rax)
   140002220:	31 f6                	xor    %esi,%esi
   140002222:	e9 21 ff ff ff       	jmp    140002148 <mark_section_writable+0x58>
   140002227:	48 8b 05 6a 0e 03 00 	mov    0x30e6a(%rip),%rax        # 140033098 <the_secs>
   14000222e:	8b 57 08             	mov    0x8(%rdi),%edx
   140002231:	48 8d 0d 08 54 02 00 	lea    0x25408(%rip),%rcx        # 140027640 <.rdata+0x40>
   140002238:	4c 8b 44 18 18       	mov    0x18(%rax,%rbx,1),%r8
   14000223d:	e8 3e fe ff ff       	call   140002080 <__report_error>
   140002242:	48 89 da             	mov    %rbx,%rdx
   140002245:	48 8d 0d d4 53 02 00 	lea    0x253d4(%rip),%rcx        # 140027620 <.rdata+0x20>
   14000224c:	e8 2f fe ff ff       	call   140002080 <__report_error>
   140002251:	90                   	nop
   140002252:	66 66 2e 0f 1f 84 00 	data16 cs nopw 0x0(%rax,%rax,1)
   140002259:	00 00 00 00 
   14000225d:	0f 1f 00             	nopl   (%rax)

0000000140002260 <_pei386_runtime_relocator>:
   140002260:	55                   	push   %rbp
   140002261:	41 57                	push   %r15
   140002263:	41 56                	push   %r14
   140002265:	41 55                	push   %r13
   140002267:	41 54                	push   %r12
   140002269:	57                   	push   %rdi
   14000226a:	56                   	push   %rsi
   14000226b:	53                   	push   %rbx
   14000226c:	48 83 ec 48          	sub    $0x48,%rsp
   140002270:	48 8d 6c 24 40       	lea    0x40(%rsp),%rbp
   140002275:	44 8b 25 14 0e 03 00 	mov    0x30e14(%rip),%r12d        # 140033090 <was_init.0>
   14000227c:	45 85 e4             	test   %r12d,%r12d
   14000227f:	74 17                	je     140002298 <_pei386_runtime_relocator+0x38>
   140002281:	48 8d 65 08          	lea    0x8(%rbp),%rsp
   140002285:	5b                   	pop    %rbx
   140002286:	5e                   	pop    %rsi
   140002287:	5f                   	pop    %rdi
   140002288:	41 5c                	pop    %r12
   14000228a:	41 5d                	pop    %r13
   14000228c:	41 5e                	pop    %r14
   14000228e:	41 5f                	pop    %r15
   140002290:	5d                   	pop    %rbp
   140002291:	c3                   	ret
   140002292:	66 0f 1f 44 00 00    	nopw   0x0(%rax,%rax,1)
   140002298:	c7 05 ee 0d 03 00 01 	movl   $0x1,0x30dee(%rip)        # 140033090 <was_init.0>
   14000229f:	00 00 00 
   1400022a2:	e8 39 09 00 00       	call   140002be0 <__mingw_GetSectionCount>
   1400022a7:	48 98                	cltq
   1400022a9:	48 8d 04 80          	lea    (%rax,%rax,4),%rax
   1400022ad:	48 8d 04 c5 0f 00 00 	lea    0xf(,%rax,8),%rax
   1400022b4:	00 
   1400022b5:	48 83 e0 f0          	and    $0xfffffffffffffff0,%rax
   1400022b9:	e8 92 0b 00 00       	call   140002e50 <___chkstk_ms>
   1400022be:	4c 8b 2d 9b 55 02 00 	mov    0x2559b(%rip),%r13        # 140027860 <.refptr.__RUNTIME_PSEUDO_RELOC_LIST_END__>
   1400022c5:	48 8b 1d a4 55 02 00 	mov    0x255a4(%rip),%rbx        # 140027870 <.refptr.__RUNTIME_PSEUDO_RELOC_LIST__>
   1400022cc:	c7 05 be 0d 03 00 00 	movl   $0x0,0x30dbe(%rip)        # 140033094 <maxSections>
   1400022d3:	00 00 00 
   1400022d6:	48 29 c4             	sub    %rax,%rsp
   1400022d9:	48 8d 44 24 30       	lea    0x30(%rsp),%rax
   1400022de:	48 89 05 b3 0d 03 00 	mov    %rax,0x30db3(%rip)        # 140033098 <the_secs>
   1400022e5:	4c 89 e8             	mov    %r13,%rax
   1400022e8:	48 29 d8             	sub    %rbx,%rax
   1400022eb:	48 83 f8 07          	cmp    $0x7,%rax
   1400022ef:	7e 90                	jle    140002281 <_pei386_runtime_relocator+0x21>
   1400022f1:	8b 13                	mov    (%rbx),%edx
   1400022f3:	48 83 f8 0b          	cmp    $0xb,%rax
   1400022f7:	0f 8f 03 01 00 00    	jg     140002400 <_pei386_runtime_relocator+0x1a0>
   1400022fd:	8b 03                	mov    (%rbx),%eax
   1400022ff:	85 c0                	test   %eax,%eax
   140002301:	0f 85 69 02 00 00    	jne    140002570 <_pei386_runtime_relocator+0x310>
   140002307:	8b 43 04             	mov    0x4(%rbx),%eax
   14000230a:	85 c0                	test   %eax,%eax
   14000230c:	0f 85 5e 02 00 00    	jne    140002570 <_pei386_runtime_relocator+0x310>
   140002312:	8b 53 08             	mov    0x8(%rbx),%edx
   140002315:	83 fa 01             	cmp    $0x1,%edx
   140002318:	0f 85 92 02 00 00    	jne    1400025b0 <_pei386_runtime_relocator+0x350>
   14000231e:	48 83 c3 0c          	add    $0xc,%rbx
   140002322:	4c 39 eb             	cmp    %r13,%rbx
   140002325:	0f 83 56 ff ff ff    	jae    140002281 <_pei386_runtime_relocator+0x21>
   14000232b:	4c 8b 35 1e 55 02 00 	mov    0x2551e(%rip),%r14        # 140027850 <.refptr.__ImageBase>
   140002332:	41 bf ff ff ff ff    	mov    $0xffffffff,%r15d
   140002338:	eb 65                	jmp    14000239f <_pei386_runtime_relocator+0x13f>
   14000233a:	66 0f 1f 44 00 00    	nopw   0x0(%rax,%rax,1)
   140002340:	83 f9 08             	cmp    $0x8,%ecx
   140002343:	0f 84 d7 00 00 00    	je     140002420 <_pei386_runtime_relocator+0x1c0>
   140002349:	83 f9 10             	cmp    $0x10,%ecx
   14000234c:	0f 85 50 02 00 00    	jne    1400025a2 <_pei386_runtime_relocator+0x342>
   140002352:	0f b7 37             	movzwl (%rdi),%esi
   140002355:	81 e2 c0 00 00 00    	and    $0xc0,%edx
   14000235b:	66 85 f6             	test   %si,%si
   14000235e:	0f 89 cc 01 00 00    	jns    140002530 <_pei386_runtime_relocator+0x2d0>
   140002364:	48 81 ce 00 00 ff ff 	or     $0xffffffffffff0000,%rsi
   14000236b:	48 29 c6             	sub    %rax,%rsi
   14000236e:	4c 01 ce             	add    %r9,%rsi
   140002371:	85 d2                	test   %edx,%edx
   140002373:	75 12                	jne    140002387 <_pei386_runtime_relocator+0x127>
   140002375:	48 81 fe 00 80 ff ff 	cmp    $0xffffffffffff8000,%rsi
   14000237c:	7c 65                	jl     1400023e3 <_pei386_runtime_relocator+0x183>
   14000237e:	48 81 fe ff ff 00 00 	cmp    $0xffff,%rsi
   140002385:	7f 5c                	jg     1400023e3 <_pei386_runtime_relocator+0x183>
   140002387:	48 89 f9             	mov    %rdi,%rcx
   14000238a:	e8 61 fd ff ff       	call   1400020f0 <mark_section_writable>
   14000238f:	66 89 37             	mov    %si,(%rdi)
   140002392:	48 83 c3 0c          	add    $0xc,%rbx
   140002396:	4c 39 eb             	cmp    %r13,%rbx
   140002399:	0f 83 d1 00 00 00    	jae    140002470 <_pei386_runtime_relocator+0x210>
   14000239f:	8b 03                	mov    (%rbx),%eax
   1400023a1:	8b 53 08             	mov    0x8(%rbx),%edx
   1400023a4:	8b 7b 04             	mov    0x4(%rbx),%edi
   1400023a7:	4c 01 f0             	add    %r14,%rax
   1400023aa:	0f b6 ca             	movzbl %dl,%ecx
   1400023ad:	4c 8b 08             	mov    (%rax),%r9
   1400023b0:	4c 01 f7             	add    %r14,%rdi
   1400023b3:	83 f9 20             	cmp    $0x20,%ecx
   1400023b6:	0f 84 0c 01 00 00    	je     1400024c8 <_pei386_runtime_relocator+0x268>
   1400023bc:	76 82                	jbe    140002340 <_pei386_runtime_relocator+0xe0>
   1400023be:	83 f9 40             	cmp    $0x40,%ecx
   1400023c1:	0f 85 db 01 00 00    	jne    1400025a2 <_pei386_runtime_relocator+0x342>
   1400023c7:	48 8b 37             	mov    (%rdi),%rsi
   1400023ca:	89 d1                	mov    %edx,%ecx
   1400023cc:	48 29 c6             	sub    %rax,%rsi
   1400023cf:	4c 01 ce             	add    %r9,%rsi
   1400023d2:	81 e1 c0 00 00 00    	and    $0xc0,%ecx
   1400023d8:	0f 85 42 01 00 00    	jne    140002520 <_pei386_runtime_relocator+0x2c0>
   1400023de:	48 85 f6             	test   %rsi,%rsi
   1400023e1:	78 af                	js     140002392 <_pei386_runtime_relocator+0x132>
   1400023e3:	48 89 74 24 20       	mov    %rsi,0x20(%rsp)
   1400023e8:	89 ca                	mov    %ecx,%edx
   1400023ea:	49 89 f8             	mov    %rdi,%r8
   1400023ed:	48 8d 0d 14 53 02 00 	lea    0x25314(%rip),%rcx        # 140027708 <.rdata+0x108>
   1400023f4:	e8 87 fc ff ff       	call   140002080 <__report_error>
   1400023f9:	0f 1f 80 00 00 00 00 	nopl   0x0(%rax)
   140002400:	85 d2                	test   %edx,%edx
   140002402:	0f 85 68 01 00 00    	jne    140002570 <_pei386_runtime_relocator+0x310>
   140002408:	8b 43 04             	mov    0x4(%rbx),%eax
   14000240b:	89 c2                	mov    %eax,%edx
   14000240d:	0b 53 08             	or     0x8(%rbx),%edx
   140002410:	0f 85 f4 fe ff ff    	jne    14000230a <_pei386_runtime_relocator+0xaa>
   140002416:	48 83 c3 0c          	add    $0xc,%rbx
   14000241a:	e9 de fe ff ff       	jmp    1400022fd <_pei386_runtime_relocator+0x9d>
   14000241f:	90                   	nop
   140002420:	0f b6 37             	movzbl (%rdi),%esi
   140002423:	81 e2 c0 00 00 00    	and    $0xc0,%edx
   140002429:	40 84 f6             	test   %sil,%sil
   14000242c:	0f 89 26 01 00 00    	jns    140002558 <_pei386_runtime_relocator+0x2f8>
   140002432:	48 81 ce 00 ff ff ff 	or     $0xffffffffffffff00,%rsi
   140002439:	48 29 c6             	sub    %rax,%rsi
   14000243c:	4c 01 ce             	add    %r9,%rsi
   14000243f:	85 d2                	test   %edx,%edx
   140002441:	75 0f                	jne    140002452 <_pei386_runtime_relocator+0x1f2>
   140002443:	48 81 fe ff 00 00 00 	cmp    $0xff,%rsi
   14000244a:	7f 97                	jg     1400023e3 <_pei386_runtime_relocator+0x183>
   14000244c:	48 83 fe 80          	cmp    $0xffffffffffffff80,%rsi
   140002450:	7c 91                	jl     1400023e3 <_pei386_runtime_relocator+0x183>
   140002452:	48 89 f9             	mov    %rdi,%rcx
   140002455:	48 83 c3 0c          	add    $0xc,%rbx
   140002459:	e8 92 fc ff ff       	call   1400020f0 <mark_section_writable>
   14000245e:	40 88 37             	mov    %sil,(%rdi)
   140002461:	4c 39 eb             	cmp    %r13,%rbx
   140002464:	0f 82 35 ff ff ff    	jb     14000239f <_pei386_runtime_relocator+0x13f>
   14000246a:	66 0f 1f 44 00 00    	nopw   0x0(%rax,%rax,1)
   140002470:	8b 15 1e 0c 03 00    	mov    0x30c1e(%rip),%edx        # 140033094 <maxSections>
   140002476:	85 d2                	test   %edx,%edx
   140002478:	0f 8e 03 fe ff ff    	jle    140002281 <_pei386_runtime_relocator+0x21>
   14000247e:	48 8b 35 5b 20 03 00 	mov    0x3205b(%rip),%rsi        # 1400344e0 <__imp_VirtualProtect>
   140002485:	31 db                	xor    %ebx,%ebx
   140002487:	48 8d 7d fc          	lea    -0x4(%rbp),%rdi
   14000248b:	0f 1f 44 00 00       	nopl   0x0(%rax,%rax,1)
   140002490:	48 8b 05 01 0c 03 00 	mov    0x30c01(%rip),%rax        # 140033098 <the_secs>
   140002497:	48 01 d8             	add    %rbx,%rax
   14000249a:	44 8b 00             	mov    (%rax),%r8d
   14000249d:	45 85 c0             	test   %r8d,%r8d
   1400024a0:	74 0d                	je     1400024af <_pei386_runtime_relocator+0x24f>
   1400024a2:	48 8b 50 10          	mov    0x10(%rax),%rdx
   1400024a6:	48 8b 48 08          	mov    0x8(%rax),%rcx
   1400024aa:	49 89 f9             	mov    %rdi,%r9
   1400024ad:	ff d6                	call   *%rsi
   1400024af:	41 83 c4 01          	add    $0x1,%r12d
   1400024b3:	48 83 c3 28          	add    $0x28,%rbx
   1400024b7:	44 3b 25 d6 0b 03 00 	cmp    0x30bd6(%rip),%r12d        # 140033094 <maxSections>
   1400024be:	7c d0                	jl     140002490 <_pei386_runtime_relocator+0x230>
   1400024c0:	e9 bc fd ff ff       	jmp    140002281 <_pei386_runtime_relocator+0x21>
   1400024c5:	0f 1f 00             	nopl   (%rax)
   1400024c8:	8b 37                	mov    (%rdi),%esi
   1400024ca:	81 e2 c0 00 00 00    	and    $0xc0,%edx
   1400024d0:	85 f6                	test   %esi,%esi
   1400024d2:	79 74                	jns    140002548 <_pei386_runtime_relocator+0x2e8>
   1400024d4:	49 bb 00 00 00 00 ff 	movabs $0xffffffff00000000,%r11
   1400024db:	ff ff ff 
   1400024de:	4c 09 de             	or     %r11,%rsi
   1400024e1:	48 29 c6             	sub    %rax,%rsi
   1400024e4:	4c 01 ce             	add    %r9,%rsi
   1400024e7:	85 d2                	test   %edx,%edx
   1400024e9:	75 1c                	jne    140002507 <_pei386_runtime_relocator+0x2a7>
   1400024eb:	4c 39 fe             	cmp    %r15,%rsi
   1400024ee:	0f 8f ef fe ff ff    	jg     1400023e3 <_pei386_runtime_relocator+0x183>
   1400024f4:	48 b8 ff ff ff 7f ff 	movabs $0xffffffff7fffffff,%rax
   1400024fb:	ff ff ff 
   1400024fe:	48 39 c6             	cmp    %rax,%rsi
   140002501:	0f 8e dc fe ff ff    	jle    1400023e3 <_pei386_runtime_relocator+0x183>
   140002507:	48 89 f9             	mov    %rdi,%rcx
   14000250a:	e8 e1 fb ff ff       	call   1400020f0 <mark_section_writable>
   14000250f:	89 37                	mov    %esi,(%rdi)
   140002511:	e9 7c fe ff ff       	jmp    140002392 <_pei386_runtime_relocator+0x132>
   140002516:	66 2e 0f 1f 84 00 00 	cs nopw 0x0(%rax,%rax,1)
   14000251d:	00 00 00 
   140002520:	48 89 f9             	mov    %rdi,%rcx
   140002523:	e8 c8 fb ff ff       	call   1400020f0 <mark_section_writable>
   140002528:	48 89 37             	mov    %rsi,(%rdi)
   14000252b:	e9 62 fe ff ff       	jmp    140002392 <_pei386_runtime_relocator+0x132>
   140002530:	48 29 c6             	sub    %rax,%rsi
   140002533:	4c 01 ce             	add    %r9,%rsi
   140002536:	85 d2                	test   %edx,%edx
   140002538:	0f 84 37 fe ff ff    	je     140002375 <_pei386_runtime_relocator+0x115>
   14000253e:	e9 44 fe ff ff       	jmp    140002387 <_pei386_runtime_relocator+0x127>
   140002543:	0f 1f 44 00 00       	nopl   0x0(%rax,%rax,1)
   140002548:	48 29 c6             	sub    %rax,%rsi
   14000254b:	4c 01 ce             	add    %r9,%rsi
   14000254e:	85 d2                	test   %edx,%edx
   140002550:	74 99                	je     1400024eb <_pei386_runtime_relocator+0x28b>
   140002552:	eb b3                	jmp    140002507 <_pei386_runtime_relocator+0x2a7>
   140002554:	0f 1f 40 00          	nopl   0x0(%rax)
   140002558:	48 29 c6             	sub    %rax,%rsi
   14000255b:	4c 01 ce             	add    %r9,%rsi
   14000255e:	85 d2                	test   %edx,%edx
   140002560:	0f 84 dd fe ff ff    	je     140002443 <_pei386_runtime_relocator+0x1e3>
   140002566:	e9 e7 fe ff ff       	jmp    140002452 <_pei386_runtime_relocator+0x1f2>
   14000256b:	0f 1f 44 00 00       	nopl   0x0(%rax,%rax,1)
   140002570:	4c 39 eb             	cmp    %r13,%rbx
   140002573:	0f 83 08 fd ff ff    	jae    140002281 <_pei386_runtime_relocator+0x21>
   140002579:	4c 8b 35 d0 52 02 00 	mov    0x252d0(%rip),%r14        # 140027850 <.refptr.__ImageBase>
   140002580:	8b 73 04             	mov    0x4(%rbx),%esi
   140002583:	8b 3b                	mov    (%rbx),%edi
   140002585:	48 83 c3 08          	add    $0x8,%rbx
   140002589:	4c 01 f6             	add    %r14,%rsi
   14000258c:	03 3e                	add    (%rsi),%edi
   14000258e:	48 89 f1             	mov    %rsi,%rcx
   140002591:	e8 5a fb ff ff       	call   1400020f0 <mark_section_writable>
   140002596:	89 3e                	mov    %edi,(%rsi)
   140002598:	4c 39 eb             	cmp    %r13,%rbx
   14000259b:	72 e3                	jb     140002580 <_pei386_runtime_relocator+0x320>
   14000259d:	e9 ce fe ff ff       	jmp    140002470 <_pei386_runtime_relocator+0x210>
   1400025a2:	89 ca                	mov    %ecx,%edx
   1400025a4:	48 8d 0d 2d 51 02 00 	lea    0x2512d(%rip),%rcx        # 1400276d8 <.rdata+0xd8>
   1400025ab:	e8 d0 fa ff ff       	call   140002080 <__report_error>
   1400025b0:	48 8d 0d e9 50 02 00 	lea    0x250e9(%rip),%rcx        # 1400276a0 <.rdata+0xa0>
   1400025b7:	e8 c4 fa ff ff       	call   140002080 <__report_error>
   1400025bc:	90                   	nop
   1400025bd:	90                   	nop
   1400025be:	90                   	nop
   1400025bf:	90                   	nop

00000001400025c0 <__mingw_raise_matherr>:
   1400025c0:	48 83 ec 58          	sub    $0x58,%rsp
   1400025c4:	48 8b 05 d5 0a 03 00 	mov    0x30ad5(%rip),%rax        # 1400330a0 <stUserMathErr>
   1400025cb:	66 0f 14 d3          	unpcklpd %xmm3,%xmm2
   1400025cf:	48 85 c0             	test   %rax,%rax
   1400025d2:	74 25                	je     1400025f9 <__mingw_raise_matherr+0x39>
   1400025d4:	f2 0f 10 84 24 80 00 	movsd  0x80(%rsp),%xmm0
   1400025db:	00 00 
   1400025dd:	89 4c 24 20          	mov    %ecx,0x20(%rsp)
   1400025e1:	48 8d 4c 24 20       	lea    0x20(%rsp),%rcx
   1400025e6:	48 89 54 24 28       	mov    %rdx,0x28(%rsp)
   1400025eb:	0f 11 54 24 30       	movups %xmm2,0x30(%rsp)
   1400025f0:	f2 0f 11 44 24 40    	movsd  %xmm0,0x40(%rsp)
   1400025f6:	ff d0                	call   *%rax
   1400025f8:	90                   	nop
   1400025f9:	48 83 c4 58          	add    $0x58,%rsp
   1400025fd:	c3                   	ret
   1400025fe:	66 90                	xchg   %ax,%ax

0000000140002600 <__mingw_setusermatherr>:
   140002600:	48 89 0d 99 0a 03 00 	mov    %rcx,0x30a99(%rip)        # 1400330a0 <stUserMathErr>
   140002607:	e9 14 0c 00 00       	jmp    140003220 <__setusermatherr>
   14000260c:	90                   	nop
   14000260d:	90                   	nop
   14000260e:	90                   	nop
   14000260f:	90                   	nop

0000000140002610 <_gnu_exception_handler>:
   140002610:	53                   	push   %rbx
   140002611:	48 83 ec 20          	sub    $0x20,%rsp
   140002615:	48 8b 11             	mov    (%rcx),%rdx
   140002618:	8b 02                	mov    (%rdx),%eax
   14000261a:	48 89 cb             	mov    %rcx,%rbx
   14000261d:	89 c1                	mov    %eax,%ecx
   14000261f:	81 e1 ff ff ff 20    	and    $0x20ffffff,%ecx
   140002625:	81 f9 43 43 47 20    	cmp    $0x20474343,%ecx
   14000262b:	0f 84 bf 00 00 00    	je     1400026f0 <_gnu_exception_handler+0xe0>
   140002631:	3d 96 00 00 c0       	cmp    $0xc0000096,%eax
   140002636:	77 47                	ja     14000267f <_gnu_exception_handler+0x6f>
   140002638:	3d 8b 00 00 c0       	cmp    $0xc000008b,%eax
   14000263d:	76 61                	jbe    1400026a0 <_gnu_exception_handler+0x90>
   14000263f:	05 73 ff ff 3f       	add    $0x3fffff73,%eax
   140002644:	83 f8 09             	cmp    $0x9,%eax
   140002647:	0f 87 93 00 00 00    	ja     1400026e0 <_gnu_exception_handler+0xd0>
   14000264d:	48 8d 15 0c 51 02 00 	lea    0x2510c(%rip),%rdx        # 140027760 <.rdata>
   140002654:	48 63 04 82          	movslq (%rdx,%rax,4),%rax
   140002658:	48 01 d0             	add    %rdx,%rax
   14000265b:	ff e0                	jmp    *%rax
   14000265d:	0f 1f 00             	nopl   (%rax)
   140002660:	31 d2                	xor    %edx,%edx
   140002662:	b9 08 00 00 00       	mov    $0x8,%ecx
   140002667:	e8 9c 0b 00 00       	call   140003208 <signal>
   14000266c:	48 83 f8 01          	cmp    $0x1,%rax
   140002670:	0f 84 3e 01 00 00    	je     1400027b4 <_gnu_exception_handler+0x1a4>
   140002676:	48 85 c0             	test   %rax,%rax
   140002679:	0f 85 01 01 00 00    	jne    140002780 <_gnu_exception_handler+0x170>
   14000267f:	48 8b 05 3a 0a 03 00 	mov    0x30a3a(%rip),%rax        # 1400330c0 <__mingw_oldexcpt_handler>
   140002686:	48 85 c0             	test   %rax,%rax
   140002689:	74 75                	je     140002700 <_gnu_exception_handler+0xf0>
   14000268b:	48 89 d9             	mov    %rbx,%rcx
   14000268e:	48 83 c4 20          	add    $0x20,%rsp
   140002692:	5b                   	pop    %rbx
   140002693:	48 ff e0             	rex.W jmp *%rax
   140002696:	66 2e 0f 1f 84 00 00 	cs nopw 0x0(%rax,%rax,1)
   14000269d:	00 00 00 
   1400026a0:	3d 05 00 00 c0       	cmp    $0xc0000005,%eax
   1400026a5:	0f 84 a5 00 00 00    	je     140002750 <_gnu_exception_handler+0x140>
   1400026ab:	76 63                	jbe    140002710 <_gnu_exception_handler+0x100>
   1400026ad:	3d 08 00 00 c0       	cmp    $0xc0000008,%eax
   1400026b2:	74 2c                	je     1400026e0 <_gnu_exception_handler+0xd0>
   1400026b4:	3d 1d 00 00 c0       	cmp    $0xc000001d,%eax
   1400026b9:	75 c4                	jne    14000267f <_gnu_exception_handler+0x6f>
   1400026bb:	31 d2                	xor    %edx,%edx
   1400026bd:	b9 04 00 00 00       	mov    $0x4,%ecx
   1400026c2:	e8 41 0b 00 00       	call   140003208 <signal>
   1400026c7:	48 83 f8 01          	cmp    $0x1,%rax
   1400026cb:	0f 84 cf 00 00 00    	je     1400027a0 <_gnu_exception_handler+0x190>
   1400026d1:	48 85 c0             	test   %rax,%rax
   1400026d4:	74 a9                	je     14000267f <_gnu_exception_handler+0x6f>
   1400026d6:	b9 04 00 00 00       	mov    $0x4,%ecx
   1400026db:	ff d0                	call   *%rax
   1400026dd:	0f 1f 00             	nopl   (%rax)
   1400026e0:	b8 ff ff ff ff       	mov    $0xffffffff,%eax
   1400026e5:	eb 1b                	jmp    140002702 <_gnu_exception_handler+0xf2>
   1400026e7:	66 0f 1f 84 00 00 00 	nopw   0x0(%rax,%rax,1)
   1400026ee:	00 00 
   1400026f0:	f6 42 04 01          	testb  $0x1,0x4(%rdx)
   1400026f4:	0f 85 37 ff ff ff    	jne    140002631 <_gnu_exception_handler+0x21>
   1400026fa:	eb e4                	jmp    1400026e0 <_gnu_exception_handler+0xd0>
   1400026fc:	0f 1f 40 00          	nopl   0x0(%rax)
   140002700:	31 c0                	xor    %eax,%eax
   140002702:	48 83 c4 20          	add    $0x20,%rsp
   140002706:	5b                   	pop    %rbx
   140002707:	c3                   	ret
   140002708:	0f 1f 84 00 00 00 00 	nopl   0x0(%rax,%rax,1)
   14000270f:	00 
   140002710:	3d 02 00 00 80       	cmp    $0x80000002,%eax
   140002715:	0f 85 64 ff ff ff    	jne    14000267f <_gnu_exception_handler+0x6f>
   14000271b:	eb c3                	jmp    1400026e0 <_gnu_exception_handler+0xd0>
   14000271d:	0f 1f 00             	nopl   (%rax)
   140002720:	31 d2                	xor    %edx,%edx
   140002722:	b9 08 00 00 00       	mov    $0x8,%ecx
   140002727:	e8 dc 0a 00 00       	call   140003208 <signal>
   14000272c:	48 83 f8 01          	cmp    $0x1,%rax
   140002730:	0f 85 40 ff ff ff    	jne    140002676 <_gnu_exception_handler+0x66>
   140002736:	ba 01 00 00 00       	mov    $0x1,%edx
   14000273b:	b9 08 00 00 00       	mov    $0x8,%ecx
   140002740:	e8 c3 0a 00 00       	call   140003208 <signal>
   140002745:	eb 99                	jmp    1400026e0 <_gnu_exception_handler+0xd0>
   140002747:	66 0f 1f 84 00 00 00 	nopw   0x0(%rax,%rax,1)
   14000274e:	00 00 
   140002750:	31 d2                	xor    %edx,%edx
   140002752:	b9 0b 00 00 00       	mov    $0xb,%ecx
   140002757:	e8 ac 0a 00 00       	call   140003208 <signal>
   14000275c:	48 83 f8 01          	cmp    $0x1,%rax
   140002760:	74 2a                	je     14000278c <_gnu_exception_handler+0x17c>
   140002762:	48 85 c0             	test   %rax,%rax
   140002765:	0f 84 14 ff ff ff    	je     14000267f <_gnu_exception_handler+0x6f>
   14000276b:	b9 0b 00 00 00       	mov    $0xb,%ecx
   140002770:	ff d0                	call   *%rax
   140002772:	e9 69 ff ff ff       	jmp    1400026e0 <_gnu_exception_handler+0xd0>
   140002777:	66 0f 1f 84 00 00 00 	nopw   0x0(%rax,%rax,1)
   14000277e:	00 00 
   140002780:	b9 08 00 00 00       	mov    $0x8,%ecx
   140002785:	ff d0                	call   *%rax
   140002787:	e9 54 ff ff ff       	jmp    1400026e0 <_gnu_exception_handler+0xd0>
   14000278c:	ba 01 00 00 00       	mov    $0x1,%edx
   140002791:	b9 0b 00 00 00       	mov    $0xb,%ecx
   140002796:	e8 6d 0a 00 00       	call   140003208 <signal>
   14000279b:	e9 40 ff ff ff       	jmp    1400026e0 <_gnu_exception_handler+0xd0>
   1400027a0:	ba 01 00 00 00       	mov    $0x1,%edx
   1400027a5:	b9 04 00 00 00       	mov    $0x4,%ecx
   1400027aa:	e8 59 0a 00 00       	call   140003208 <signal>
   1400027af:	e9 2c ff ff ff       	jmp    1400026e0 <_gnu_exception_handler+0xd0>
   1400027b4:	ba 01 00 00 00       	mov    $0x1,%edx
   1400027b9:	b9 08 00 00 00       	mov    $0x8,%ecx
   1400027be:	e8 45 0a 00 00       	call   140003208 <signal>
   1400027c3:	e8 a8 f8 ff ff       	call   140002070 <_fpreset>
   1400027c8:	e9 13 ff ff ff       	jmp    1400026e0 <_gnu_exception_handler+0xd0>
   1400027cd:	90                   	nop
   1400027ce:	90                   	nop
   1400027cf:	90                   	nop

00000001400027d0 <__mingwthr_run_key_dtors.part.0>:
   1400027d0:	41 54                	push   %r12
   1400027d2:	55                   	push   %rbp
   1400027d3:	57                   	push   %rdi
   1400027d4:	56                   	push   %rsi
   1400027d5:	53                   	push   %rbx
   1400027d6:	48 83 ec 20          	sub    $0x20,%rsp
   1400027da:	4c 8d 25 1f 09 03 00 	lea    0x3091f(%rip),%r12        # 140033100 <__mingwthr_cs>
   1400027e1:	4c 89 e1             	mov    %r12,%rcx
   1400027e4:	ff 15 be 1c 03 00    	call   *0x31cbe(%rip)        # 1400344a8 <__imp_EnterCriticalSection>
   1400027ea:	48 8b 1d ef 08 03 00 	mov    0x308ef(%rip),%rbx        # 1400330e0 <key_dtor_list>
   1400027f1:	48 85 db             	test   %rbx,%rbx
   1400027f4:	74 36                	je     14000282c <__mingwthr_run_key_dtors.part.0+0x5c>
   1400027f6:	48 8b 2d db 1c 03 00 	mov    0x31cdb(%rip),%rbp        # 1400344d8 <__imp_TlsGetValue>
   1400027fd:	48 8b 3d ac 1c 03 00 	mov    0x31cac(%rip),%rdi        # 1400344b0 <__imp_GetLastError>
   140002804:	0f 1f 40 00          	nopl   0x0(%rax)
   140002808:	8b 0b                	mov    (%rbx),%ecx
   14000280a:	ff d5                	call   *%rbp
   14000280c:	48 89 c6             	mov    %rax,%rsi
   14000280f:	ff d7                	call   *%rdi
   140002811:	48 85 f6             	test   %rsi,%rsi
   140002814:	74 0d                	je     140002823 <__mingwthr_run_key_dtors.part.0+0x53>
   140002816:	85 c0                	test   %eax,%eax
   140002818:	75 09                	jne    140002823 <__mingwthr_run_key_dtors.part.0+0x53>
   14000281a:	48 8b 43 08          	mov    0x8(%rbx),%rax
   14000281e:	48 89 f1             	mov    %rsi,%rcx
   140002821:	ff d0                	call   *%rax
   140002823:	48 8b 5b 10          	mov    0x10(%rbx),%rbx
   140002827:	48 85 db             	test   %rbx,%rbx
   14000282a:	75 dc                	jne    140002808 <__mingwthr_run_key_dtors.part.0+0x38>
   14000282c:	4c 89 e1             	mov    %r12,%rcx
   14000282f:	48 83 c4 20          	add    $0x20,%rsp
   140002833:	5b                   	pop    %rbx
   140002834:	5e                   	pop    %rsi
   140002835:	5f                   	pop    %rdi
   140002836:	5d                   	pop    %rbp
   140002837:	41 5c                	pop    %r12
   140002839:	48 ff 25 80 1c 03 00 	rex.W jmp *0x31c80(%rip)        # 1400344c0 <__imp_LeaveCriticalSection>

0000000140002840 <___w64_mingwthr_add_key_dtor>:
   140002840:	57                   	push   %rdi
   140002841:	56                   	push   %rsi
   140002842:	53                   	push   %rbx
   140002843:	48 83 ec 20          	sub    $0x20,%rsp
   140002847:	8b 05 9b 08 03 00    	mov    0x3089b(%rip),%eax        # 1400330e8 <__mingwthr_cs_init>
   14000284d:	89 cf                	mov    %ecx,%edi
   14000284f:	48 89 d6             	mov    %rdx,%rsi
   140002852:	85 c0                	test   %eax,%eax
   140002854:	75 0a                	jne    140002860 <___w64_mingwthr_add_key_dtor+0x20>
   140002856:	31 c0                	xor    %eax,%eax
   140002858:	48 83 c4 20          	add    $0x20,%rsp
   14000285c:	5b                   	pop    %rbx
   14000285d:	5e                   	pop    %rsi
   14000285e:	5f                   	pop    %rdi
   14000285f:	c3                   	ret
   140002860:	ba 18 00 00 00       	mov    $0x18,%edx
   140002865:	b9 01 00 00 00       	mov    $0x1,%ecx
   14000286a:	e8 c9 09 00 00       	call   140003238 <calloc>
   14000286f:	48 89 c3             	mov    %rax,%rbx
   140002872:	48 85 c0             	test   %rax,%rax
   140002875:	74 33                	je     1400028aa <___w64_mingwthr_add_key_dtor+0x6a>
   140002877:	48 89 70 08          	mov    %rsi,0x8(%rax)
   14000287b:	48 8d 35 7e 08 03 00 	lea    0x3087e(%rip),%rsi        # 140033100 <__mingwthr_cs>
   140002882:	89 38                	mov    %edi,(%rax)
   140002884:	48 89 f1             	mov    %rsi,%rcx
   140002887:	ff 15 1b 1c 03 00    	call   *0x31c1b(%rip)        # 1400344a8 <__imp_EnterCriticalSection>
   14000288d:	48 8b 05 4c 08 03 00 	mov    0x3084c(%rip),%rax        # 1400330e0 <key_dtor_list>
   140002894:	48 89 f1             	mov    %rsi,%rcx
   140002897:	48 89 1d 42 08 03 00 	mov    %rbx,0x30842(%rip)        # 1400330e0 <key_dtor_list>
   14000289e:	48 89 43 10          	mov    %rax,0x10(%rbx)
   1400028a2:	ff 15 18 1c 03 00    	call   *0x31c18(%rip)        # 1400344c0 <__imp_LeaveCriticalSection>
   1400028a8:	eb ac                	jmp    140002856 <___w64_mingwthr_add_key_dtor+0x16>
   1400028aa:	83 c8 ff             	or     $0xffffffff,%eax
   1400028ad:	eb a9                	jmp    140002858 <___w64_mingwthr_add_key_dtor+0x18>
   1400028af:	90                   	nop

00000001400028b0 <___w64_mingwthr_remove_key_dtor>:
   1400028b0:	56                   	push   %rsi
   1400028b1:	53                   	push   %rbx
   1400028b2:	48 83 ec 28          	sub    $0x28,%rsp
   1400028b6:	8b 05 2c 08 03 00    	mov    0x3082c(%rip),%eax        # 1400330e8 <__mingwthr_cs_init>
   1400028bc:	89 cb                	mov    %ecx,%ebx
   1400028be:	85 c0                	test   %eax,%eax
   1400028c0:	75 0e                	jne    1400028d0 <___w64_mingwthr_remove_key_dtor+0x20>
   1400028c2:	31 c0                	xor    %eax,%eax
   1400028c4:	48 83 c4 28          	add    $0x28,%rsp
   1400028c8:	5b                   	pop    %rbx
   1400028c9:	5e                   	pop    %rsi
   1400028ca:	c3                   	ret
   1400028cb:	0f 1f 44 00 00       	nopl   0x0(%rax,%rax,1)
   1400028d0:	48 8d 35 29 08 03 00 	lea    0x30829(%rip),%rsi        # 140033100 <__mingwthr_cs>
   1400028d7:	48 89 f1             	mov    %rsi,%rcx
   1400028da:	ff 15 c8 1b 03 00    	call   *0x31bc8(%rip)        # 1400344a8 <__imp_EnterCriticalSection>
   1400028e0:	48 8b 0d f9 07 03 00 	mov    0x307f9(%rip),%rcx        # 1400330e0 <key_dtor_list>
   1400028e7:	48 85 c9             	test   %rcx,%rcx
   1400028ea:	74 27                	je     140002913 <___w64_mingwthr_remove_key_dtor+0x63>
   1400028ec:	31 d2                	xor    %edx,%edx
   1400028ee:	eb 0b                	jmp    1400028fb <___w64_mingwthr_remove_key_dtor+0x4b>
   1400028f0:	48 89 ca             	mov    %rcx,%rdx
   1400028f3:	48 85 c0             	test   %rax,%rax
   1400028f6:	74 1b                	je     140002913 <___w64_mingwthr_remove_key_dtor+0x63>
   1400028f8:	48 89 c1             	mov    %rax,%rcx
   1400028fb:	8b 01                	mov    (%rcx),%eax
   1400028fd:	39 d8                	cmp    %ebx,%eax
   1400028ff:	48 8b 41 10          	mov    0x10(%rcx),%rax
   140002903:	75 eb                	jne    1400028f0 <___w64_mingwthr_remove_key_dtor+0x40>
   140002905:	48 85 d2             	test   %rdx,%rdx
   140002908:	74 1e                	je     140002928 <___w64_mingwthr_remove_key_dtor+0x78>
   14000290a:	48 89 42 10          	mov    %rax,0x10(%rdx)
   14000290e:	e8 2d 09 00 00       	call   140003240 <free>
   140002913:	48 89 f1             	mov    %rsi,%rcx
   140002916:	ff 15 a4 1b 03 00    	call   *0x31ba4(%rip)        # 1400344c0 <__imp_LeaveCriticalSection>
   14000291c:	31 c0                	xor    %eax,%eax
   14000291e:	48 83 c4 28          	add    $0x28,%rsp
   140002922:	5b                   	pop    %rbx
   140002923:	5e                   	pop    %rsi
   140002924:	c3                   	ret
   140002925:	0f 1f 00             	nopl   (%rax)
   140002928:	48 89 05 b1 07 03 00 	mov    %rax,0x307b1(%rip)        # 1400330e0 <key_dtor_list>
   14000292f:	eb dd                	jmp    14000290e <___w64_mingwthr_remove_key_dtor+0x5e>
   140002931:	66 66 2e 0f 1f 84 00 	data16 cs nopw 0x0(%rax,%rax,1)
   140002938:	00 00 00 00 
   14000293c:	0f 1f 40 00          	nopl   0x0(%rax)

0000000140002940 <__mingw_TLScallback>:
   140002940:	53                   	push   %rbx
   140002941:	48 83 ec 20          	sub    $0x20,%rsp
   140002945:	83 fa 02             	cmp    $0x2,%edx
   140002948:	0f 84 b2 00 00 00    	je     140002a00 <__mingw_TLScallback+0xc0>
   14000294e:	77 30                	ja     140002980 <__mingw_TLScallback+0x40>
   140002950:	85 d2                	test   %edx,%edx
   140002952:	74 4c                	je     1400029a0 <__mingw_TLScallback+0x60>
   140002954:	8b 05 8e 07 03 00    	mov    0x3078e(%rip),%eax        # 1400330e8 <__mingwthr_cs_init>
   14000295a:	85 c0                	test   %eax,%eax
   14000295c:	0f 84 be 00 00 00    	je     140002a20 <__mingw_TLScallback+0xe0>
   140002962:	c7 05 7c 07 03 00 01 	movl   $0x1,0x3077c(%rip)        # 1400330e8 <__mingwthr_cs_init>
   140002969:	00 00 00 
   14000296c:	b8 01 00 00 00       	mov    $0x1,%eax
   140002971:	48 83 c4 20          	add    $0x20,%rsp
   140002975:	5b                   	pop    %rbx
   140002976:	c3                   	ret
   140002977:	66 0f 1f 84 00 00 00 	nopw   0x0(%rax,%rax,1)
   14000297e:	00 00 
   140002980:	83 fa 03             	cmp    $0x3,%edx
   140002983:	75 e7                	jne    14000296c <__mingw_TLScallback+0x2c>
   140002985:	8b 05 5d 07 03 00    	mov    0x3075d(%rip),%eax        # 1400330e8 <__mingwthr_cs_init>
   14000298b:	85 c0                	test   %eax,%eax
   14000298d:	74 dd                	je     14000296c <__mingw_TLScallback+0x2c>
   14000298f:	e8 3c fe ff ff       	call   1400027d0 <__mingwthr_run_key_dtors.part.0>
   140002994:	eb d6                	jmp    14000296c <__mingw_TLScallback+0x2c>
   140002996:	66 2e 0f 1f 84 00 00 	cs nopw 0x0(%rax,%rax,1)
   14000299d:	00 00 00 
   1400029a0:	8b 05 42 07 03 00    	mov    0x30742(%rip),%eax        # 1400330e8 <__mingwthr_cs_init>
   1400029a6:	85 c0                	test   %eax,%eax
   1400029a8:	75 66                	jne    140002a10 <__mingw_TLScallback+0xd0>
   1400029aa:	8b 05 38 07 03 00    	mov    0x30738(%rip),%eax        # 1400330e8 <__mingwthr_cs_init>
   1400029b0:	83 f8 01             	cmp    $0x1,%eax
   1400029b3:	75 b7                	jne    14000296c <__mingw_TLScallback+0x2c>
   1400029b5:	48 8b 1d 24 07 03 00 	mov    0x30724(%rip),%rbx        # 1400330e0 <key_dtor_list>
   1400029bc:	48 85 db             	test   %rbx,%rbx
   1400029bf:	74 18                	je     1400029d9 <__mingw_TLScallback+0x99>
   1400029c1:	0f 1f 80 00 00 00 00 	nopl   0x0(%rax)
   1400029c8:	48 89 d9             	mov    %rbx,%rcx
   1400029cb:	48 8b 5b 10          	mov    0x10(%rbx),%rbx
   1400029cf:	e8 6c 08 00 00       	call   140003240 <free>
   1400029d4:	48 85 db             	test   %rbx,%rbx
   1400029d7:	75 ef                	jne    1400029c8 <__mingw_TLScallback+0x88>
   1400029d9:	48 8d 0d 20 07 03 00 	lea    0x30720(%rip),%rcx        # 140033100 <__mingwthr_cs>
   1400029e0:	48 c7 05 f5 06 03 00 	movq   $0x0,0x306f5(%rip)        # 1400330e0 <key_dtor_list>
   1400029e7:	00 00 00 00 
   1400029eb:	c7 05 f3 06 03 00 00 	movl   $0x0,0x306f3(%rip)        # 1400330e8 <__mingwthr_cs_init>
   1400029f2:	00 00 00 
   1400029f5:	ff 15 a5 1a 03 00    	call   *0x31aa5(%rip)        # 1400344a0 <__imp_DeleteCriticalSection>
   1400029fb:	e9 6c ff ff ff       	jmp    14000296c <__mingw_TLScallback+0x2c>
   140002a00:	e8 6b f6 ff ff       	call   140002070 <_fpreset>
   140002a05:	b8 01 00 00 00       	mov    $0x1,%eax
   140002a0a:	48 83 c4 20          	add    $0x20,%rsp
   140002a0e:	5b                   	pop    %rbx
   140002a0f:	c3                   	ret
   140002a10:	e8 bb fd ff ff       	call   1400027d0 <__mingwthr_run_key_dtors.part.0>
   140002a15:	eb 93                	jmp    1400029aa <__mingw_TLScallback+0x6a>
   140002a17:	66 0f 1f 84 00 00 00 	nopw   0x0(%rax,%rax,1)
   140002a1e:	00 00 
   140002a20:	48 8d 0d d9 06 03 00 	lea    0x306d9(%rip),%rcx        # 140033100 <__mingwthr_cs>
   140002a27:	ff 15 8b 1a 03 00    	call   *0x31a8b(%rip)        # 1400344b8 <__imp_InitializeCriticalSection>
   140002a2d:	e9 30 ff ff ff       	jmp    140002962 <__mingw_TLScallback+0x22>
   140002a32:	90                   	nop
   140002a33:	90                   	nop
   140002a34:	90                   	nop
   140002a35:	90                   	nop
   140002a36:	90                   	nop
   140002a37:	90                   	nop
   140002a38:	90                   	nop
   140002a39:	90                   	nop
   140002a3a:	90                   	nop
   140002a3b:	90                   	nop
   140002a3c:	90                   	nop
   140002a3d:	90                   	nop
   140002a3e:	90                   	nop
   140002a3f:	90                   	nop

0000000140002a40 <_ValidateImageBase>:
   140002a40:	31 c0                	xor    %eax,%eax
   140002a42:	66 81 39 4d 5a       	cmpw   $0x5a4d,(%rcx)
   140002a47:	75 0f                	jne    140002a58 <_ValidateImageBase+0x18>
   140002a49:	48 63 51 3c          	movslq 0x3c(%rcx),%rdx
   140002a4d:	48 01 d1             	add    %rdx,%rcx
   140002a50:	81 39 50 45 00 00    	cmpl   $0x4550,(%rcx)
   140002a56:	74 08                	je     140002a60 <_ValidateImageBase+0x20>
   140002a58:	c3                   	ret
   140002a59:	0f 1f 80 00 00 00 00 	nopl   0x0(%rax)
   140002a60:	31 c0                	xor    %eax,%eax
   140002a62:	66 81 79 18 0b 02    	cmpw   $0x20b,0x18(%rcx)
   140002a68:	0f 94 c0             	sete   %al
   140002a6b:	c3                   	ret
   140002a6c:	0f 1f 40 00          	nopl   0x0(%rax)

0000000140002a70 <_FindPESection>:
   140002a70:	48 63 41 3c          	movslq 0x3c(%rcx),%rax
   140002a74:	48 01 c1             	add    %rax,%rcx
   140002a77:	0f b7 41 14          	movzwl 0x14(%rcx),%eax
   140002a7b:	44 0f b7 41 06       	movzwl 0x6(%rcx),%r8d
   140002a80:	48 8d 44 01 18       	lea    0x18(%rcx,%rax,1),%rax
   140002a85:	66 45 85 c0          	test   %r8w,%r8w
   140002a89:	74 32                	je     140002abd <_FindPESection+0x4d>
   140002a8b:	41 8d 48 ff          	lea    -0x1(%r8),%ecx
   140002a8f:	48 8d 0c 89          	lea    (%rcx,%rcx,4),%rcx
   140002a93:	4c 8d 4c c8 28       	lea    0x28(%rax,%rcx,8),%r9
   140002a98:	0f 1f 84 00 00 00 00 	nopl   0x0(%rax,%rax,1)
   140002a9f:	00 
   140002aa0:	44 8b 40 0c          	mov    0xc(%rax),%r8d
   140002aa4:	4c 89 c1             	mov    %r8,%rcx
   140002aa7:	4c 39 c2             	cmp    %r8,%rdx
   140002aaa:	72 08                	jb     140002ab4 <_FindPESection+0x44>
   140002aac:	03 48 08             	add    0x8(%rax),%ecx
   140002aaf:	48 39 ca             	cmp    %rcx,%rdx
   140002ab2:	72 0b                	jb     140002abf <_FindPESection+0x4f>
   140002ab4:	48 83 c0 28          	add    $0x28,%rax
   140002ab8:	4c 39 c8             	cmp    %r9,%rax
   140002abb:	75 e3                	jne    140002aa0 <_FindPESection+0x30>
   140002abd:	31 c0                	xor    %eax,%eax
   140002abf:	c3                   	ret

0000000140002ac0 <_FindPESectionByName>:
   140002ac0:	57                   	push   %rdi
   140002ac1:	56                   	push   %rsi
   140002ac2:	53                   	push   %rbx
   140002ac3:	48 83 ec 20          	sub    $0x20,%rsp
   140002ac7:	48 89 ce             	mov    %rcx,%rsi
   140002aca:	e8 69 06 00 00       	call   140003138 <strlen>
   140002acf:	48 83 f8 08          	cmp    $0x8,%rax
   140002ad3:	77 7b                	ja     140002b50 <_FindPESectionByName+0x90>
   140002ad5:	48 8b 15 74 4d 02 00 	mov    0x24d74(%rip),%rdx        # 140027850 <.refptr.__ImageBase>
   140002adc:	31 db                	xor    %ebx,%ebx
   140002ade:	66 81 3a 4d 5a       	cmpw   $0x5a4d,(%rdx)
   140002ae3:	75 59                	jne    140002b3e <_FindPESectionByName+0x7e>
   140002ae5:	48 63 42 3c          	movslq 0x3c(%rdx),%rax
   140002ae9:	48 01 d0             	add    %rdx,%rax
   140002aec:	81 38 50 45 00 00    	cmpl   $0x4550,(%rax)
   140002af2:	75 4a                	jne    140002b3e <_FindPESectionByName+0x7e>
   140002af4:	66 81 78 18 0b 02    	cmpw   $0x20b,0x18(%rax)
   140002afa:	75 42                	jne    140002b3e <_FindPESectionByName+0x7e>
   140002afc:	0f b7 50 14          	movzwl 0x14(%rax),%edx
   140002b00:	48 8d 5c 10 18       	lea    0x18(%rax,%rdx,1),%rbx
   140002b05:	0f b7 50 06          	movzwl 0x6(%rax),%edx
   140002b09:	66 85 d2             	test   %dx,%dx
   140002b0c:	74 42                	je     140002b50 <_FindPESectionByName+0x90>
   140002b0e:	8d 42 ff             	lea    -0x1(%rdx),%eax
   140002b11:	48 8d 04 80          	lea    (%rax,%rax,4),%rax
   140002b15:	48 8d 7c c3 28       	lea    0x28(%rbx,%rax,8),%rdi
   140002b1a:	eb 0d                	jmp    140002b29 <_FindPESectionByName+0x69>
   140002b1c:	0f 1f 40 00          	nopl   0x0(%rax)
   140002b20:	48 83 c3 28          	add    $0x28,%rbx
   140002b24:	48 39 fb             	cmp    %rdi,%rbx
   140002b27:	74 27                	je     140002b50 <_FindPESectionByName+0x90>
   140002b29:	41 b8 08 00 00 00    	mov    $0x8,%r8d
   140002b2f:	48 89 f2             	mov    %rsi,%rdx
   140002b32:	48 89 d9             	mov    %rbx,%rcx
   140002b35:	e8 06 06 00 00       	call   140003140 <strncmp>
   140002b3a:	85 c0                	test   %eax,%eax
   140002b3c:	75 e2                	jne    140002b20 <_FindPESectionByName+0x60>
   140002b3e:	48 89 d8             	mov    %rbx,%rax
   140002b41:	48 83 c4 20          	add    $0x20,%rsp
   140002b45:	5b                   	pop    %rbx
   140002b46:	5e                   	pop    %rsi
   140002b47:	5f                   	pop    %rdi
   140002b48:	c3                   	ret
   140002b49:	0f 1f 80 00 00 00 00 	nopl   0x0(%rax)
   140002b50:	31 db                	xor    %ebx,%ebx
   140002b52:	48 89 d8             	mov    %rbx,%rax
   140002b55:	48 83 c4 20          	add    $0x20,%rsp
   140002b59:	5b                   	pop    %rbx
   140002b5a:	5e                   	pop    %rsi
   140002b5b:	5f                   	pop    %rdi
   140002b5c:	c3                   	ret
   140002b5d:	0f 1f 00             	nopl   (%rax)

0000000140002b60 <__mingw_GetSectionForAddress>:
   140002b60:	48 8b 15 e9 4c 02 00 	mov    0x24ce9(%rip),%rdx        # 140027850 <.refptr.__ImageBase>
   140002b67:	31 c0                	xor    %eax,%eax
   140002b69:	66 81 3a 4d 5a       	cmpw   $0x5a4d,(%rdx)
   140002b6e:	75 10                	jne    140002b80 <__mingw_GetSectionForAddress+0x20>
   140002b70:	4c 63 42 3c          	movslq 0x3c(%rdx),%r8
   140002b74:	49 01 d0             	add    %rdx,%r8
   140002b77:	41 81 38 50 45 00 00 	cmpl   $0x4550,(%r8)
   140002b7e:	74 08                	je     140002b88 <__mingw_GetSectionForAddress+0x28>
   140002b80:	c3                   	ret
   140002b81:	0f 1f 80 00 00 00 00 	nopl   0x0(%rax)
   140002b88:	66 41 81 78 18 0b 02 	cmpw   $0x20b,0x18(%r8)
   140002b8f:	75 ef                	jne    140002b80 <__mingw_GetSectionForAddress+0x20>
   140002b91:	41 0f b7 40 14       	movzwl 0x14(%r8),%eax
   140002b96:	48 29 d1             	sub    %rdx,%rcx
   140002b99:	49 8d 44 00 18       	lea    0x18(%r8,%rax,1),%rax
   140002b9e:	45 0f b7 40 06       	movzwl 0x6(%r8),%r8d
   140002ba3:	66 45 85 c0          	test   %r8w,%r8w
   140002ba7:	74 34                	je     140002bdd <__mingw_GetSectionForAddress+0x7d>
   140002ba9:	41 8d 50 ff          	lea    -0x1(%r8),%edx
   140002bad:	48 8d 14 92          	lea    (%rdx,%rdx,4),%rdx
   140002bb1:	4c 8d 4c d0 28       	lea    0x28(%rax,%rdx,8),%r9
   140002bb6:	66 2e 0f 1f 84 00 00 	cs nopw 0x0(%rax,%rax,1)
   140002bbd:	00 00 00 
   140002bc0:	44 8b 40 0c          	mov    0xc(%rax),%r8d
   140002bc4:	4c 89 c2             	mov    %r8,%rdx
   140002bc7:	4c 39 c1             	cmp    %r8,%rcx
   140002bca:	72 08                	jb     140002bd4 <__mingw_GetSectionForAddress+0x74>
   140002bcc:	03 50 08             	add    0x8(%rax),%edx
   140002bcf:	48 39 d1             	cmp    %rdx,%rcx
   140002bd2:	72 ac                	jb     140002b80 <__mingw_GetSectionForAddress+0x20>
   140002bd4:	48 83 c0 28          	add    $0x28,%rax
   140002bd8:	4c 39 c8             	cmp    %r9,%rax
   140002bdb:	75 e3                	jne    140002bc0 <__mingw_GetSectionForAddress+0x60>
   140002bdd:	31 c0                	xor    %eax,%eax
   140002bdf:	c3                   	ret

0000000140002be0 <__mingw_GetSectionCount>:
   140002be0:	48 8b 05 69 4c 02 00 	mov    0x24c69(%rip),%rax        # 140027850 <.refptr.__ImageBase>
   140002be7:	31 c9                	xor    %ecx,%ecx
   140002be9:	66 81 38 4d 5a       	cmpw   $0x5a4d,(%rax)
   140002bee:	75 0f                	jne    140002bff <__mingw_GetSectionCount+0x1f>
   140002bf0:	48 63 50 3c          	movslq 0x3c(%rax),%rdx
   140002bf4:	48 01 d0             	add    %rdx,%rax
   140002bf7:	81 38 50 45 00 00    	cmpl   $0x4550,(%rax)
   140002bfd:	74 09                	je     140002c08 <__mingw_GetSectionCount+0x28>
   140002bff:	89 c8                	mov    %ecx,%eax
   140002c01:	c3                   	ret
   140002c02:	66 0f 1f 44 00 00    	nopw   0x0(%rax,%rax,1)
   140002c08:	66 81 78 18 0b 02    	cmpw   $0x20b,0x18(%rax)
   140002c0e:	75 ef                	jne    140002bff <__mingw_GetSectionCount+0x1f>
   140002c10:	0f b7 48 06          	movzwl 0x6(%rax),%ecx
   140002c14:	89 c8                	mov    %ecx,%eax
   140002c16:	c3                   	ret
   140002c17:	66 0f 1f 84 00 00 00 	nopw   0x0(%rax,%rax,1)
   140002c1e:	00 00 

0000000140002c20 <_FindPESectionExec>:
   140002c20:	4c 8b 05 29 4c 02 00 	mov    0x24c29(%rip),%r8        # 140027850 <.refptr.__ImageBase>
   140002c27:	31 c0                	xor    %eax,%eax
   140002c29:	66 41 81 38 4d 5a    	cmpw   $0x5a4d,(%r8)
   140002c2f:	75 0f                	jne    140002c40 <_FindPESectionExec+0x20>
   140002c31:	49 63 50 3c          	movslq 0x3c(%r8),%rdx
   140002c35:	4c 01 c2             	add    %r8,%rdx
   140002c38:	81 3a 50 45 00 00    	cmpl   $0x4550,(%rdx)
   140002c3e:	74 08                	je     140002c48 <_FindPESectionExec+0x28>
   140002c40:	c3                   	ret
   140002c41:	0f 1f 80 00 00 00 00 	nopl   0x0(%rax)
   140002c48:	66 81 7a 18 0b 02    	cmpw   $0x20b,0x18(%rdx)
   140002c4e:	75 f0                	jne    140002c40 <_FindPESectionExec+0x20>
   140002c50:	0f b7 42 14          	movzwl 0x14(%rdx),%eax
   140002c54:	44 0f b7 42 06       	movzwl 0x6(%rdx),%r8d
   140002c59:	48 8d 44 02 18       	lea    0x18(%rdx,%rax,1),%rax
   140002c5e:	66 45 85 c0          	test   %r8w,%r8w
   140002c62:	74 2c                	je     140002c90 <_FindPESectionExec+0x70>
   140002c64:	41 8d 50 ff          	lea    -0x1(%r8),%edx
   140002c68:	48 8d 14 92          	lea    (%rdx,%rdx,4),%rdx
   140002c6c:	48 8d 54 d0 28       	lea    0x28(%rax,%rdx,8),%rdx
   140002c71:	0f 1f 80 00 00 00 00 	nopl   0x0(%rax)
   140002c78:	f6 40 27 20          	testb  $0x20,0x27(%rax)
   140002c7c:	74 09                	je     140002c87 <_FindPESectionExec+0x67>
   140002c7e:	48 85 c9             	test   %rcx,%rcx
   140002c81:	74 bd                	je     140002c40 <_FindPESectionExec+0x20>
   140002c83:	48 83 e9 01          	sub    $0x1,%rcx
   140002c87:	48 83 c0 28          	add    $0x28,%rax
   140002c8b:	48 39 c2             	cmp    %rax,%rdx
   140002c8e:	75 e8                	jne    140002c78 <_FindPESectionExec+0x58>
   140002c90:	31 c0                	xor    %eax,%eax
   140002c92:	c3                   	ret
   140002c93:	66 66 2e 0f 1f 84 00 	data16 cs nopw 0x0(%rax,%rax,1)
   140002c9a:	00 00 00 00 
   140002c9e:	66 90                	xchg   %ax,%ax

0000000140002ca0 <_GetPEImageBase>:
   140002ca0:	48 8b 05 a9 4b 02 00 	mov    0x24ba9(%rip),%rax        # 140027850 <.refptr.__ImageBase>
   140002ca7:	31 d2                	xor    %edx,%edx
   140002ca9:	66 81 38 4d 5a       	cmpw   $0x5a4d,(%rax)
   140002cae:	75 0f                	jne    140002cbf <_GetPEImageBase+0x1f>
   140002cb0:	48 63 48 3c          	movslq 0x3c(%rax),%rcx
   140002cb4:	48 01 c1             	add    %rax,%rcx
   140002cb7:	81 39 50 45 00 00    	cmpl   $0x4550,(%rcx)
   140002cbd:	74 09                	je     140002cc8 <_GetPEImageBase+0x28>
   140002cbf:	48 89 d0             	mov    %rdx,%rax
   140002cc2:	c3                   	ret
   140002cc3:	0f 1f 44 00 00       	nopl   0x0(%rax,%rax,1)
   140002cc8:	66 81 79 18 0b 02    	cmpw   $0x20b,0x18(%rcx)
   140002cce:	48 0f 44 d0          	cmove  %rax,%rdx
   140002cd2:	48 89 d0             	mov    %rdx,%rax
   140002cd5:	c3                   	ret
   140002cd6:	66 2e 0f 1f 84 00 00 	cs nopw 0x0(%rax,%rax,1)
   140002cdd:	00 00 00 

0000000140002ce0 <_IsNonwritableInCurrentImage>:
   140002ce0:	48 8b 15 69 4b 02 00 	mov    0x24b69(%rip),%rdx        # 140027850 <.refptr.__ImageBase>
   140002ce7:	31 c0                	xor    %eax,%eax
   140002ce9:	66 81 3a 4d 5a       	cmpw   $0x5a4d,(%rdx)
   140002cee:	75 10                	jne    140002d00 <_IsNonwritableInCurrentImage+0x20>
   140002cf0:	4c 63 42 3c          	movslq 0x3c(%rdx),%r8
   140002cf4:	49 01 d0             	add    %rdx,%r8
   140002cf7:	41 81 38 50 45 00 00 	cmpl   $0x4550,(%r8)
   140002cfe:	74 08                	je     140002d08 <_IsNonwritableInCurrentImage+0x28>
   140002d00:	c3                   	ret
   140002d01:	0f 1f 80 00 00 00 00 	nopl   0x0(%rax)
   140002d08:	66 41 81 78 18 0b 02 	cmpw   $0x20b,0x18(%r8)
   140002d0f:	75 ef                	jne    140002d00 <_IsNonwritableInCurrentImage+0x20>
   140002d11:	48 29 d1             	sub    %rdx,%rcx
   140002d14:	45 0f b7 48 06       	movzwl 0x6(%r8),%r9d
   140002d19:	41 0f b7 50 14       	movzwl 0x14(%r8),%edx
   140002d1e:	49 8d 54 10 18       	lea    0x18(%r8,%rdx,1),%rdx
   140002d23:	66 45 85 c9          	test   %r9w,%r9w
   140002d27:	74 d7                	je     140002d00 <_IsNonwritableInCurrentImage+0x20>
   140002d29:	41 8d 41 ff          	lea    -0x1(%r9),%eax
   140002d2d:	48 8d 04 80          	lea    (%rax,%rax,4),%rax
   140002d31:	4c 8d 4c c2 28       	lea    0x28(%rdx,%rax,8),%r9
   140002d36:	66 2e 0f 1f 84 00 00 	cs nopw 0x0(%rax,%rax,1)
   140002d3d:	00 00 00 
   140002d40:	44 8b 42 0c          	mov    0xc(%rdx),%r8d
   140002d44:	4c 89 c0             	mov    %r8,%rax
   140002d47:	4c 39 c1             	cmp    %r8,%rcx
   140002d4a:	72 08                	jb     140002d54 <_IsNonwritableInCurrentImage+0x74>
   140002d4c:	03 42 08             	add    0x8(%rdx),%eax
   140002d4f:	48 39 c1             	cmp    %rax,%rcx
   140002d52:	72 0c                	jb     140002d60 <_IsNonwritableInCurrentImage+0x80>
   140002d54:	48 83 c2 28          	add    $0x28,%rdx
   140002d58:	4c 39 ca             	cmp    %r9,%rdx
   140002d5b:	75 e3                	jne    140002d40 <_IsNonwritableInCurrentImage+0x60>
   140002d5d:	31 c0                	xor    %eax,%eax
   140002d5f:	c3                   	ret
   140002d60:	8b 42 24             	mov    0x24(%rdx),%eax
   140002d63:	f7 d0                	not    %eax
   140002d65:	c1 e8 1f             	shr    $0x1f,%eax
   140002d68:	c3                   	ret
   140002d69:	0f 1f 80 00 00 00 00 	nopl   0x0(%rax)

0000000140002d70 <__mingw_enum_import_library_names>:
   140002d70:	4c 8b 1d d9 4a 02 00 	mov    0x24ad9(%rip),%r11        # 140027850 <.refptr.__ImageBase>
   140002d77:	45 31 c9             	xor    %r9d,%r9d
   140002d7a:	66 41 81 3b 4d 5a    	cmpw   $0x5a4d,(%r11)
   140002d80:	75 10                	jne    140002d92 <__mingw_enum_import_library_names+0x22>
   140002d82:	4d 63 43 3c          	movslq 0x3c(%r11),%r8
   140002d86:	4d 01 d8             	add    %r11,%r8
   140002d89:	41 81 38 50 45 00 00 	cmpl   $0x4550,(%r8)
   140002d90:	74 0e                	je     140002da0 <__mingw_enum_import_library_names+0x30>
   140002d92:	4c 89 c8             	mov    %r9,%rax
   140002d95:	c3                   	ret
   140002d96:	66 2e 0f 1f 84 00 00 	cs nopw 0x0(%rax,%rax,1)
   140002d9d:	00 00 00 
   140002da0:	66 41 81 78 18 0b 02 	cmpw   $0x20b,0x18(%r8)
   140002da7:	75 e9                	jne    140002d92 <__mingw_enum_import_library_names+0x22>
   140002da9:	41 8b 80 90 00 00 00 	mov    0x90(%r8),%eax
   140002db0:	85 c0                	test   %eax,%eax
   140002db2:	74 de                	je     140002d92 <__mingw_enum_import_library_names+0x22>
   140002db4:	41 0f b7 50 14       	movzwl 0x14(%r8),%edx
   140002db9:	45 0f b7 50 06       	movzwl 0x6(%r8),%r10d
   140002dbe:	49 8d 54 10 18       	lea    0x18(%r8,%rdx,1),%rdx
   140002dc3:	66 45 85 d2          	test   %r10w,%r10w
   140002dc7:	74 c9                	je     140002d92 <__mingw_enum_import_library_names+0x22>
   140002dc9:	45 8d 42 ff          	lea    -0x1(%r10),%r8d
   140002dcd:	4f 8d 04 80          	lea    (%r8,%r8,4),%r8
   140002dd1:	4e 8d 54 c2 28       	lea    0x28(%rdx,%r8,8),%r10
   140002dd6:	66 2e 0f 1f 84 00 00 	cs nopw 0x0(%rax,%rax,1)
   140002ddd:	00 00 00 
   140002de0:	44 8b 4a 0c          	mov    0xc(%rdx),%r9d
   140002de4:	4d 89 c8             	mov    %r9,%r8
   140002de7:	4c 39 c8             	cmp    %r9,%rax
   140002dea:	72 09                	jb     140002df5 <__mingw_enum_import_library_names+0x85>
   140002dec:	44 03 42 08          	add    0x8(%rdx),%r8d
   140002df0:	4c 39 c0             	cmp    %r8,%rax
   140002df3:	72 13                	jb     140002e08 <__mingw_enum_import_library_names+0x98>
   140002df5:	48 83 c2 28          	add    $0x28,%rdx
   140002df9:	49 39 d2             	cmp    %rdx,%r10
   140002dfc:	75 e2                	jne    140002de0 <__mingw_enum_import_library_names+0x70>
   140002dfe:	45 31 c9             	xor    %r9d,%r9d
   140002e01:	4c 89 c8             	mov    %r9,%rax
   140002e04:	c3                   	ret
   140002e05:	0f 1f 00             	nopl   (%rax)
   140002e08:	4c 01 d8             	add    %r11,%rax
   140002e0b:	eb 0a                	jmp    140002e17 <__mingw_enum_import_library_names+0xa7>
   140002e0d:	0f 1f 00             	nopl   (%rax)
   140002e10:	83 e9 01             	sub    $0x1,%ecx
   140002e13:	48 83 c0 14          	add    $0x14,%rax
   140002e17:	44 8b 40 04          	mov    0x4(%rax),%r8d
   140002e1b:	45 85 c0             	test   %r8d,%r8d
   140002e1e:	75 07                	jne    140002e27 <__mingw_enum_import_library_names+0xb7>
   140002e20:	8b 50 0c             	mov    0xc(%rax),%edx
   140002e23:	85 d2                	test   %edx,%edx
   140002e25:	74 d7                	je     140002dfe <__mingw_enum_import_library_names+0x8e>
   140002e27:	85 c9                	test   %ecx,%ecx
   140002e29:	7f e5                	jg     140002e10 <__mingw_enum_import_library_names+0xa0>
   140002e2b:	44 8b 48 0c          	mov    0xc(%rax),%r9d
   140002e2f:	4d 01 d9             	add    %r11,%r9
   140002e32:	4c 89 c8             	mov    %r9,%rax
   140002e35:	c3                   	ret
   140002e36:	90                   	nop
   140002e37:	90                   	nop
   140002e38:	90                   	nop
   140002e39:	90                   	nop
   140002e3a:	90                   	nop
   140002e3b:	90                   	nop
   140002e3c:	90                   	nop
   140002e3d:	90                   	nop
   140002e3e:	90                   	nop
   140002e3f:	90                   	nop

0000000140002e40 <_Unwind_Resume>:
   140002e40:	ff 25 4a 16 03 00    	jmp    *0x3164a(%rip)        # 140034490 <__IAT_start__>
   140002e46:	90                   	nop
   140002e47:	90                   	nop
   140002e48:	0f 1f 84 00 00 00 00 	nopl   0x0(%rax,%rax,1)
   140002e4f:	00 

0000000140002e50 <___chkstk_ms>:
   140002e50:	51                   	push   %rcx
   140002e51:	50                   	push   %rax
   140002e52:	48 3d 00 10 00 00    	cmp    $0x1000,%rax
   140002e58:	48 8d 4c 24 18       	lea    0x18(%rsp),%rcx
   140002e5d:	72 19                	jb     140002e78 <___chkstk_ms+0x28>
   140002e5f:	48 81 e9 00 10 00 00 	sub    $0x1000,%rcx
   140002e66:	48 83 09 00          	orq    $0x0,(%rcx)
   140002e6a:	48 2d 00 10 00 00    	sub    $0x1000,%rax
   140002e70:	48 3d 00 10 00 00    	cmp    $0x1000,%rax
   140002e76:	77 e7                	ja     140002e5f <___chkstk_ms+0xf>
   140002e78:	48 29 c1             	sub    %rax,%rcx
   140002e7b:	48 83 09 00          	orq    $0x0,(%rcx)
   140002e7f:	58                   	pop    %rax
   140002e80:	59                   	pop    %rcx
   140002e81:	c3                   	ret
   140002e82:	90                   	nop
   140002e83:	90                   	nop
   140002e84:	90                   	nop
   140002e85:	90                   	nop
   140002e86:	90                   	nop
   140002e87:	90                   	nop
   140002e88:	90                   	nop
   140002e89:	90                   	nop
   140002e8a:	90                   	nop
   140002e8b:	90                   	nop
   140002e8c:	90                   	nop
   140002e8d:	90                   	nop
   140002e8e:	90                   	nop
   140002e8f:	90                   	nop

0000000140002e90 <vfprintf>:
   140002e90:	48 83 ec 38          	sub    $0x38,%rsp
   140002e94:	45 31 c9             	xor    %r9d,%r9d
   140002e97:	4c 89 44 24 20       	mov    %r8,0x20(%rsp)
   140002e9c:	49 89 d0             	mov    %rdx,%r8
   140002e9f:	48 89 ca             	mov    %rcx,%rdx
   140002ea2:	31 c9                	xor    %ecx,%ecx
   140002ea4:	e8 bf 02 00 00       	call   140003168 <__stdio_common_vfprintf>
   140002ea9:	48 83 c4 38          	add    $0x38,%rsp
   140002ead:	c3                   	ret
   140002eae:	90                   	nop
   140002eaf:	90                   	nop

0000000140002eb0 <fprintf>:
   140002eb0:	48 83 ec 48          	sub    $0x48,%rsp
   140002eb4:	48 8d 44 24 60       	lea    0x60(%rsp),%rax
   140002eb9:	4c 89 44 24 60       	mov    %r8,0x60(%rsp)
   140002ebe:	49 89 d0             	mov    %rdx,%r8
   140002ec1:	48 89 ca             	mov    %rcx,%rdx
   140002ec4:	48 89 44 24 20       	mov    %rax,0x20(%rsp)
   140002ec9:	31 c9                	xor    %ecx,%ecx
   140002ecb:	4c 89 4c 24 68       	mov    %r9,0x68(%rsp)
   140002ed0:	45 31 c9             	xor    %r9d,%r9d
   140002ed3:	48 89 44 24 38       	mov    %rax,0x38(%rsp)
   140002ed8:	e8 8b 02 00 00       	call   140003168 <__stdio_common_vfprintf>
   140002edd:	48 83 c4 48          	add    $0x48,%rsp
   140002ee1:	c3                   	ret
   140002ee2:	90                   	nop
   140002ee3:	90                   	nop
   140002ee4:	90                   	nop
   140002ee5:	90                   	nop
   140002ee6:	90                   	nop
   140002ee7:	90                   	nop
   140002ee8:	90                   	nop
   140002ee9:	90                   	nop
   140002eea:	90                   	nop
   140002eeb:	90                   	nop
   140002eec:	90                   	nop
   140002eed:	90                   	nop
   140002eee:	90                   	nop
   140002eef:	90                   	nop

0000000140002ef0 <_get_output_format>:
   140002ef0:	31 c0                	xor    %eax,%eax
   140002ef2:	c3                   	ret
   140002ef3:	66 66 2e 0f 1f 84 00 	data16 cs nopw 0x0(%rax,%rax,1)
   140002efa:	00 00 00 00 
   140002efe:	66 90                	xchg   %ax,%ax

0000000140002f00 <__getmainargs>:
   140002f00:	41 54                	push   %r12
   140002f02:	55                   	push   %rbp
   140002f03:	57                   	push   %rdi
   140002f04:	56                   	push   %rsi
   140002f05:	53                   	push   %rbx
   140002f06:	48 83 ec 20          	sub    $0x20,%rsp
   140002f0a:	4c 8b 64 24 70       	mov    0x70(%rsp),%r12
   140002f0f:	44 89 cd             	mov    %r9d,%ebp
   140002f12:	48 89 d6             	mov    %rdx,%rsi
   140002f15:	4c 89 c3             	mov    %r8,%rbx
   140002f18:	48 89 cf             	mov    %rcx,%rdi
   140002f1b:	e8 b0 02 00 00       	call   1400031d0 <_initialize_narrow_environment>
   140002f20:	83 fd 01             	cmp    $0x1,%ebp
   140002f23:	b9 01 00 00 00       	mov    $0x1,%ecx
   140002f28:	83 d9 ff             	sbb    $0xffffffff,%ecx
   140002f2b:	e8 78 02 00 00       	call   1400031a8 <_configure_narrow_argv>
   140002f30:	e8 4b 02 00 00       	call   140003180 <__p___argc>
   140002f35:	8b 00                	mov    (%rax),%eax
   140002f37:	89 07                	mov    %eax,(%rdi)
   140002f39:	e8 4a 02 00 00       	call   140003188 <__p___argv>
   140002f3e:	48 8b 00             	mov    (%rax),%rax
   140002f41:	48 89 06             	mov    %rax,(%rsi)
   140002f44:	e8 07 03 00 00       	call   140003250 <__p__environ>
   140002f49:	48 8b 00             	mov    (%rax),%rax
   140002f4c:	48 89 03             	mov    %rax,(%rbx)
   140002f4f:	4d 85 e4             	test   %r12,%r12
   140002f52:	74 09                	je     140002f5d <__getmainargs+0x5d>
   140002f54:	41 8b 0c 24          	mov    (%r12),%ecx
   140002f58:	e8 d3 02 00 00       	call   140003230 <_set_new_mode>
   140002f5d:	31 c0                	xor    %eax,%eax
   140002f5f:	48 83 c4 20          	add    $0x20,%rsp
   140002f63:	5b                   	pop    %rbx
   140002f64:	5e                   	pop    %rsi
   140002f65:	5f                   	pop    %rdi
   140002f66:	5d                   	pop    %rbp
   140002f67:	41 5c                	pop    %r12
   140002f69:	c3                   	ret
   140002f6a:	66 0f 1f 44 00 00    	nopw   0x0(%rax,%rax,1)

0000000140002f70 <__wgetmainargs>:
   140002f70:	41 54                	push   %r12
   140002f72:	55                   	push   %rbp
   140002f73:	57                   	push   %rdi
   140002f74:	56                   	push   %rsi
   140002f75:	53                   	push   %rbx
   140002f76:	48 83 ec 20          	sub    $0x20,%rsp
   140002f7a:	4c 8b 64 24 70       	mov    0x70(%rsp),%r12
   140002f7f:	44 89 cd             	mov    %r9d,%ebp
   140002f82:	48 89 d6             	mov    %rdx,%rsi
   140002f85:	4c 89 c3             	mov    %r8,%rbx
   140002f88:	48 89 cf             	mov    %rcx,%rdi
   140002f8b:	e8 48 02 00 00       	call   1400031d8 <_initialize_wide_environment>
   140002f90:	83 fd 01             	cmp    $0x1,%ebp
   140002f93:	b9 01 00 00 00       	mov    $0x1,%ecx
   140002f98:	83 d9 ff             	sbb    $0xffffffff,%ecx
   140002f9b:	e8 10 02 00 00       	call   1400031b0 <_configure_wide_argv>
   140002fa0:	e8 db 01 00 00       	call   140003180 <__p___argc>
   140002fa5:	8b 00                	mov    (%rax),%eax
   140002fa7:	89 07                	mov    %eax,(%rdi)
   140002fa9:	e8 e2 01 00 00       	call   140003190 <__p___wargv>
   140002fae:	48 8b 00             	mov    (%rax),%rax
   140002fb1:	48 89 06             	mov    %rax,(%rsi)
   140002fb4:	e8 9f 02 00 00       	call   140003258 <__p__wenviron>
   140002fb9:	48 8b 00             	mov    (%rax),%rax
   140002fbc:	48 89 03             	mov    %rax,(%rbx)
   140002fbf:	4d 85 e4             	test   %r12,%r12
   140002fc2:	74 09                	je     140002fcd <__wgetmainargs+0x5d>
   140002fc4:	41 8b 0c 24          	mov    (%r12),%ecx
   140002fc8:	e8 63 02 00 00       	call   140003230 <_set_new_mode>
   140002fcd:	31 c0                	xor    %eax,%eax
   140002fcf:	48 83 c4 20          	add    $0x20,%rsp
   140002fd3:	5b                   	pop    %rbx
   140002fd4:	5e                   	pop    %rsi
   140002fd5:	5f                   	pop    %rdi
   140002fd6:	5d                   	pop    %rbp
   140002fd7:	41 5c                	pop    %r12
   140002fd9:	c3                   	ret
   140002fda:	66 0f 1f 44 00 00    	nopw   0x0(%rax,%rax,1)

0000000140002fe0 <_onexit>:
   140002fe0:	53                   	push   %rbx
   140002fe1:	48 83 ec 20          	sub    $0x20,%rsp
   140002fe5:	48 89 cb             	mov    %rcx,%rbx
   140002fe8:	e8 d3 01 00 00       	call   1400031c0 <_crt_atexit>
   140002fed:	85 c0                	test   %eax,%eax
   140002fef:	b8 00 00 00 00       	mov    $0x0,%eax
   140002ff4:	48 0f 44 c3          	cmove  %rbx,%rax
   140002ff8:	48 83 c4 20          	add    $0x20,%rsp
   140002ffc:	5b                   	pop    %rbx
   140002ffd:	c3                   	ret
   140002ffe:	66 90                	xchg   %ax,%ax

0000000140003000 <at_quick_exit>:
   140003000:	48 8b 05 e9 48 02 00 	mov    0x248e9(%rip),%rax        # 1400278f0 <.refptr.__mingw_module_is_dll>
   140003007:	80 38 00             	cmpb   $0x0,(%rax)
   14000300a:	74 04                	je     140003010 <at_quick_exit+0x10>
   14000300c:	31 c0                	xor    %eax,%eax
   14000300e:	c3                   	ret
   14000300f:	90                   	nop
   140003010:	e9 a3 01 00 00       	jmp    1400031b8 <_crt_at_quick_exit>
   140003015:	66 66 2e 0f 1f 84 00 	data16 cs nopw 0x0(%rax,%rax,1)
   14000301c:	00 00 00 00 

0000000140003020 <_amsg_exit>:
   140003020:	53                   	push   %rbx
   140003021:	48 83 ec 20          	sub    $0x20,%rsp
   140003025:	89 cb                	mov    %ecx,%ebx
   140003027:	b9 02 00 00 00       	mov    $0x2,%ecx
   14000302c:	e8 1f 01 00 00       	call   140003150 <__acrt_iob_func>
   140003031:	41 89 d8             	mov    %ebx,%r8d
   140003034:	48 8d 15 55 47 02 00 	lea    0x24755(%rip),%rdx        # 140027790 <.rdata>
   14000303b:	48 89 c1             	mov    %rax,%rcx
   14000303e:	e8 6d fe ff ff       	call   140002eb0 <fprintf>
   140003043:	b9 ff 00 00 00       	mov    $0xff,%ecx
   140003048:	e8 7b 01 00 00       	call   1400031c8 <_exit>
   14000304d:	90                   	nop
   14000304e:	66 90                	xchg   %ax,%ax

0000000140003050 <__ms_fwprintf>:
   140003050:	48 83 ec 48          	sub    $0x48,%rsp
   140003054:	48 8d 44 24 60       	lea    0x60(%rsp),%rax
   140003059:	4c 89 44 24 60       	mov    %r8,0x60(%rsp)
   14000305e:	49 89 d0             	mov    %rdx,%r8
   140003061:	48 89 ca             	mov    %rcx,%rdx
   140003064:	48 89 44 24 20       	mov    %rax,0x20(%rsp)
   140003069:	b9 04 00 00 00       	mov    $0x4,%ecx
   14000306e:	4c 89 4c 24 68       	mov    %r9,0x68(%rsp)
   140003073:	45 31 c9             	xor    %r9d,%r9d
   140003076:	48 89 44 24 38       	mov    %rax,0x38(%rsp)
   14000307b:	e8 f0 00 00 00       	call   140003170 <__stdio_common_vfwprintf>
   140003080:	48 83 c4 48          	add    $0x48,%rsp
   140003084:	c3                   	ret
   140003085:	66 66 2e 0f 1f 84 00 	data16 cs nopw 0x0(%rax,%rax,1)
   14000308c:	00 00 00 00 

0000000140003090 <tzset>:
   140003090:	48 83 ec 28          	sub    $0x28,%rsp
   140003094:	48 8b 05 05 48 02 00 	mov    0x24805(%rip),%rax        # 1400278a0 <.refptr.__imp__tzset>
   14000309b:	ff 10                	call   *(%rax)
   14000309d:	e8 7e 00 00 00       	call   140003120 <__tzname>
   1400030a2:	48 89 05 17 20 02 00 	mov    %rax,0x22017(%rip)        # 1400250c0 <__imp_tzname>
   1400030a9:	e8 6a 00 00 00       	call   140003118 <__timezone>
   1400030ae:	48 89 05 03 20 02 00 	mov    %rax,0x22003(%rip)        # 1400250b8 <__imp_timezone>
   1400030b5:	e8 56 00 00 00       	call   140003110 <__daylight>
   1400030ba:	48 89 05 ef 1f 02 00 	mov    %rax,0x21fef(%rip)        # 1400250b0 <__imp_daylight>
   1400030c1:	48 83 c4 28          	add    $0x28,%rsp
   1400030c5:	c3                   	ret
   1400030c6:	66 2e 0f 1f 84 00 00 	cs nopw 0x0(%rax,%rax,1)
   1400030cd:	00 00 00 

00000001400030d0 <_tzset>:
   1400030d0:	48 83 ec 28          	sub    $0x28,%rsp
   1400030d4:	48 8b 05 c5 47 02 00 	mov    0x247c5(%rip),%rax        # 1400278a0 <.refptr.__imp__tzset>
   1400030db:	ff 10                	call   *(%rax)
   1400030dd:	e8 3e 00 00 00       	call   140003120 <__tzname>
   1400030e2:	48 89 05 d7 1f 02 00 	mov    %rax,0x21fd7(%rip)        # 1400250c0 <__imp_tzname>
   1400030e9:	e8 2a 00 00 00       	call   140003118 <__timezone>
   1400030ee:	48 89 05 c3 1f 02 00 	mov    %rax,0x21fc3(%rip)        # 1400250b8 <__imp_timezone>
   1400030f5:	e8 16 00 00 00       	call   140003110 <__daylight>
   1400030fa:	48 89 05 af 1f 02 00 	mov    %rax,0x21faf(%rip)        # 1400250b0 <__imp_daylight>
   140003101:	48 83 c4 28          	add    $0x28,%rsp
   140003105:	c3                   	ret
   140003106:	90                   	nop
   140003107:	90                   	nop
   140003108:	90                   	nop
   140003109:	90                   	nop
   14000310a:	90                   	nop
   14000310b:	90                   	nop
   14000310c:	90                   	nop
   14000310d:	90                   	nop
   14000310e:	90                   	nop
   14000310f:	90                   	nop

0000000140003110 <__daylight>:
   140003110:	ff 25 3a 15 03 00    	jmp    *0x3153a(%rip)        # 140034650 <__imp___daylight>
   140003116:	90                   	nop
   140003117:	90                   	nop

0000000140003118 <__timezone>:
   140003118:	ff 25 3a 15 03 00    	jmp    *0x3153a(%rip)        # 140034658 <__imp___timezone>
   14000311e:	90                   	nop
   14000311f:	90                   	nop

0000000140003120 <__tzname>:
   140003120:	ff 25 3a 15 03 00    	jmp    *0x3153a(%rip)        # 140034660 <__imp___tzname>
   140003126:	90                   	nop
   140003127:	90                   	nop

0000000140003128 <.text>:
   140003128:	0f 1f 84 00 00 00 00 	nopl   0x0(%rax,%rax,1)
   14000312f:	00 

0000000140003130 <memset>:
   140003130:	ff 25 fa 14 03 00    	jmp    *0x314fa(%rip)        # 140034630 <__imp_memset>
   140003136:	90                   	nop
   140003137:	90                   	nop

0000000140003138 <strlen>:
   140003138:	ff 25 fa 14 03 00    	jmp    *0x314fa(%rip)        # 140034638 <__imp_strlen>
   14000313e:	90                   	nop
   14000313f:	90                   	nop

0000000140003140 <strncmp>:
   140003140:	ff 25 fa 14 03 00    	jmp    *0x314fa(%rip)        # 140034640 <__imp_strncmp>
   140003146:	90                   	nop
   140003147:	90                   	nop
   140003148:	0f 1f 84 00 00 00 00 	nopl   0x0(%rax,%rax,1)
   14000314f:	00 

0000000140003150 <__acrt_iob_func>:
   140003150:	ff 25 a2 14 03 00    	jmp    *0x314a2(%rip)        # 1400345f8 <__imp___acrt_iob_func>
   140003156:	90                   	nop
   140003157:	90                   	nop

0000000140003158 <__p__commode>:
   140003158:	ff 25 a2 14 03 00    	jmp    *0x314a2(%rip)        # 140034600 <__imp___p__commode>
   14000315e:	90                   	nop
   14000315f:	90                   	nop

0000000140003160 <__p__fmode>:
   140003160:	ff 25 a2 14 03 00    	jmp    *0x314a2(%rip)        # 140034608 <__imp___p__fmode>
   140003166:	90                   	nop
   140003167:	90                   	nop

0000000140003168 <__stdio_common_vfprintf>:
   140003168:	ff 25 a2 14 03 00    	jmp    *0x314a2(%rip)        # 140034610 <__imp___stdio_common_vfprintf>
   14000316e:	90                   	nop
   14000316f:	90                   	nop

0000000140003170 <__stdio_common_vfwprintf>:
   140003170:	ff 25 a2 14 03 00    	jmp    *0x314a2(%rip)        # 140034618 <__imp___stdio_common_vfwprintf>
   140003176:	90                   	nop
   140003177:	90                   	nop

0000000140003178 <fwrite>:
   140003178:	ff 25 a2 14 03 00    	jmp    *0x314a2(%rip)        # 140034620 <__imp_fwrite>
   14000317e:	90                   	nop
   14000317f:	90                   	nop

0000000140003180 <__p___argc>:
   140003180:	ff 25 da 13 03 00    	jmp    *0x313da(%rip)        # 140034560 <__imp___p___argc>
   140003186:	90                   	nop
   140003187:	90                   	nop

0000000140003188 <__p___argv>:
   140003188:	ff 25 da 13 03 00    	jmp    *0x313da(%rip)        # 140034568 <__imp___p___argv>
   14000318e:	90                   	nop
   14000318f:	90                   	nop

0000000140003190 <__p___wargv>:
   140003190:	ff 25 da 13 03 00    	jmp    *0x313da(%rip)        # 140034570 <__imp___p___wargv>
   140003196:	90                   	nop
   140003197:	90                   	nop

0000000140003198 <_assert>:
   140003198:	ff 25 da 13 03 00    	jmp    *0x313da(%rip)        # 140034578 <__imp__assert>
   14000319e:	90                   	nop
   14000319f:	90                   	nop

00000001400031a0 <_cexit>:
   1400031a0:	ff 25 da 13 03 00    	jmp    *0x313da(%rip)        # 140034580 <__imp__cexit>
   1400031a6:	90                   	nop
   1400031a7:	90                   	nop

00000001400031a8 <_configure_narrow_argv>:
   1400031a8:	ff 25 da 13 03 00    	jmp    *0x313da(%rip)        # 140034588 <__imp__configure_narrow_argv>
   1400031ae:	90                   	nop
   1400031af:	90                   	nop

00000001400031b0 <_configure_wide_argv>:
   1400031b0:	ff 25 da 13 03 00    	jmp    *0x313da(%rip)        # 140034590 <__imp__configure_wide_argv>
   1400031b6:	90                   	nop
   1400031b7:	90                   	nop

00000001400031b8 <_crt_at_quick_exit>:
   1400031b8:	ff 25 da 13 03 00    	jmp    *0x313da(%rip)        # 140034598 <__imp__crt_at_quick_exit>
   1400031be:	90                   	nop
   1400031bf:	90                   	nop

00000001400031c0 <_crt_atexit>:
   1400031c0:	ff 25 da 13 03 00    	jmp    *0x313da(%rip)        # 1400345a0 <__imp__crt_atexit>
   1400031c6:	90                   	nop
   1400031c7:	90                   	nop

00000001400031c8 <_exit>:
   1400031c8:	ff 25 da 13 03 00    	jmp    *0x313da(%rip)        # 1400345a8 <__imp__exit>
   1400031ce:	90                   	nop
   1400031cf:	90                   	nop

00000001400031d0 <_initialize_narrow_environment>:
   1400031d0:	ff 25 da 13 03 00    	jmp    *0x313da(%rip)        # 1400345b0 <__imp__initialize_narrow_environment>
   1400031d6:	90                   	nop
   1400031d7:	90                   	nop

00000001400031d8 <_initialize_wide_environment>:
   1400031d8:	ff 25 da 13 03 00    	jmp    *0x313da(%rip)        # 1400345b8 <__imp__initialize_wide_environment>
   1400031de:	90                   	nop
   1400031df:	90                   	nop

00000001400031e0 <_initterm>:
   1400031e0:	ff 25 da 13 03 00    	jmp    *0x313da(%rip)        # 1400345c0 <__imp__initterm>
   1400031e6:	90                   	nop
   1400031e7:	90                   	nop

00000001400031e8 <__set_app_type>:
   1400031e8:	ff 25 da 13 03 00    	jmp    *0x313da(%rip)        # 1400345c8 <__imp___set_app_type>
   1400031ee:	90                   	nop
   1400031ef:	90                   	nop

00000001400031f0 <_set_invalid_parameter_handler>:
   1400031f0:	ff 25 da 13 03 00    	jmp    *0x313da(%rip)        # 1400345d0 <__imp__set_invalid_parameter_handler>
   1400031f6:	90                   	nop
   1400031f7:	90                   	nop

00000001400031f8 <abort>:
   1400031f8:	ff 25 da 13 03 00    	jmp    *0x313da(%rip)        # 1400345d8 <__imp_abort>
   1400031fe:	90                   	nop
   1400031ff:	90                   	nop

0000000140003200 <exit>:
   140003200:	ff 25 da 13 03 00    	jmp    *0x313da(%rip)        # 1400345e0 <__imp_exit>
   140003206:	90                   	nop
   140003207:	90                   	nop

0000000140003208 <signal>:
   140003208:	ff 25 da 13 03 00    	jmp    *0x313da(%rip)        # 1400345e8 <__imp_signal>
   14000320e:	90                   	nop
   14000320f:	90                   	nop

0000000140003210 <__C_specific_handler>:
   140003210:	ff 25 32 13 03 00    	jmp    *0x31332(%rip)        # 140034548 <__imp___C_specific_handler>
   140003216:	90                   	nop
   140003217:	90                   	nop

0000000140003218 <memcpy>:
   140003218:	ff 25 32 13 03 00    	jmp    *0x31332(%rip)        # 140034550 <__imp_memcpy>
   14000321e:	90                   	nop
   14000321f:	90                   	nop

0000000140003220 <__setusermatherr>:
   140003220:	ff 25 12 13 03 00    	jmp    *0x31312(%rip)        # 140034538 <__imp___setusermatherr>
   140003226:	90                   	nop
   140003227:	90                   	nop
   140003228:	0f 1f 84 00 00 00 00 	nopl   0x0(%rax,%rax,1)
   14000322f:	00 

0000000140003230 <_set_new_mode>:
   140003230:	ff 25 da 12 03 00    	jmp    *0x312da(%rip)        # 140034510 <__imp__set_new_mode>
   140003236:	90                   	nop
   140003237:	90                   	nop

0000000140003238 <calloc>:
   140003238:	ff 25 da 12 03 00    	jmp    *0x312da(%rip)        # 140034518 <__imp_calloc>
   14000323e:	90                   	nop
   14000323f:	90                   	nop

0000000140003240 <free>:
   140003240:	ff 25 da 12 03 00    	jmp    *0x312da(%rip)        # 140034520 <__imp_free>
   140003246:	90                   	nop
   140003247:	90                   	nop

0000000140003248 <malloc>:
   140003248:	ff 25 da 12 03 00    	jmp    *0x312da(%rip)        # 140034528 <__imp_malloc>
   14000324e:	90                   	nop
   14000324f:	90                   	nop

0000000140003250 <__p__environ>:
   140003250:	ff 25 a2 12 03 00    	jmp    *0x312a2(%rip)        # 1400344f8 <__imp___p__environ>
   140003256:	90                   	nop
   140003257:	90                   	nop

0000000140003258 <__p__wenviron>:
   140003258:	ff 25 a2 12 03 00    	jmp    *0x312a2(%rip)        # 140034500 <__imp___p__wenviron>
   14000325e:	90                   	nop
   14000325f:	90                   	nop

0000000140003260 <VirtualQuery>:
   140003260:	ff 25 82 12 03 00    	jmp    *0x31282(%rip)        # 1400344e8 <__imp_VirtualQuery>
   140003266:	90                   	nop
   140003267:	90                   	nop

0000000140003268 <VirtualProtect>:
   140003268:	ff 25 72 12 03 00    	jmp    *0x31272(%rip)        # 1400344e0 <__imp_VirtualProtect>
   14000326e:	90                   	nop
   14000326f:	90                   	nop

0000000140003270 <TlsGetValue>:
   140003270:	ff 25 62 12 03 00    	jmp    *0x31262(%rip)        # 1400344d8 <__imp_TlsGetValue>
   140003276:	90                   	nop
   140003277:	90                   	nop

0000000140003278 <Sleep>:
   140003278:	ff 25 52 12 03 00    	jmp    *0x31252(%rip)        # 1400344d0 <__imp_Sleep>
   14000327e:	90                   	nop
   14000327f:	90                   	nop

0000000140003280 <SetUnhandledExceptionFilter>:
   140003280:	ff 25 42 12 03 00    	jmp    *0x31242(%rip)        # 1400344c8 <__imp_SetUnhandledExceptionFilter>
   140003286:	90                   	nop
   140003287:	90                   	nop

0000000140003288 <LeaveCriticalSection>:
   140003288:	ff 25 32 12 03 00    	jmp    *0x31232(%rip)        # 1400344c0 <__imp_LeaveCriticalSection>
   14000328e:	90                   	nop
   14000328f:	90                   	nop

0000000140003290 <InitializeCriticalSection>:
   140003290:	ff 25 22 12 03 00    	jmp    *0x31222(%rip)        # 1400344b8 <__imp_InitializeCriticalSection>
   140003296:	90                   	nop
   140003297:	90                   	nop

0000000140003298 <GetLastError>:
   140003298:	ff 25 12 12 03 00    	jmp    *0x31212(%rip)        # 1400344b0 <__imp_GetLastError>
   14000329e:	90                   	nop
   14000329f:	90                   	nop

00000001400032a0 <EnterCriticalSection>:
   1400032a0:	ff 25 02 12 03 00    	jmp    *0x31202(%rip)        # 1400344a8 <__imp_EnterCriticalSection>
   1400032a6:	90                   	nop
   1400032a7:	90                   	nop

00000001400032a8 <DeleteCriticalSection>:
   1400032a8:	ff 25 f2 11 03 00    	jmp    *0x311f2(%rip)        # 1400344a0 <__imp_DeleteCriticalSection>
   1400032ae:	90                   	nop
   1400032af:	90                   	nop

00000001400032b0 <_ZN5Eigen10MatrixBaseINS_3MapINS_6MatrixIdLin1ELi1ELi0ELin1ELi1EEELi0ENS_6StrideILi0ELi0EEEEEEmIINS_13CwiseBinaryOpINS_8internal17scalar_product_opIddEEKNS_14CwiseNullaryOpINSA_18scalar_constant_opIdEEKS3_EEKNS_5BlockIKNSJ_IKNS1_IKNS2_IdLin1ELin1ELi0ELin1ELin1EEELi0ENS_11OuterStrideILin1EEEEELin1ELi1ELb1EEELin1ELi1ELb0EEEEEEERS6_RKNS0_IT_EE>:
   1400032b0:	55                   	push   %rbp
   1400032b1:	53                   	push   %rbx
   1400032b2:	48 83 ec 38          	sub    $0x38,%rsp
   1400032b6:	48 8d 6c 24 30       	lea    0x30(%rsp),%rbp
   1400032bb:	48 89 4d 20          	mov    %rcx,0x20(%rbp)
   1400032bf:	48 89 55 28          	mov    %rdx,0x28(%rbp)
   1400032c3:	48 8b 45 28          	mov    0x28(%rbp),%rax
   1400032c7:	48 89 c1             	mov    %rax,%rcx
   1400032ca:	e8 c1 cd 01 00       	call   140020090 <_ZNK5Eigen9EigenBaseINS_13CwiseBinaryOpINS_8internal17scalar_product_opIddEEKNS_14CwiseNullaryOpINS2_18scalar_constant_opIdEEKNS_6MatrixIdLin1ELi1ELi0ELin1ELi1EEEEEKNS_5BlockIKNSD_IKNS_3MapIKNS8_IdLin1ELin1ELi0ELin1ELin1EEELi0ENS_11OuterStrideILin1EEEEELin1ELi1ELb1EEELin1ELi1ELb0EEEEEE7derivedEv>
   1400032cf:	48 89 c3             	mov    %rax,%rbx
   1400032d2:	48 8b 45 20          	mov    0x20(%rbp),%rax
   1400032d6:	48 89 c1             	mov    %rax,%rcx
   1400032d9:	e8 02 65 01 00       	call   1400197e0 <_ZN5Eigen9EigenBaseINS_3MapINS_6MatrixIdLin1ELi1ELi0ELin1ELi1EEELi0ENS_6StrideILi0ELi0EEEEEE7derivedEv>
   1400032de:	48 8d 55 ff          	lea    -0x1(%rbp),%rdx
   1400032e2:	41 b9 00 00 00 00    	mov    $0x0,%r9d
   1400032e8:	49 89 d0             	mov    %rdx,%r8
   1400032eb:	48 89 da             	mov    %rbx,%rdx
   1400032ee:	48 89 c1             	mov    %rax,%rcx
   1400032f1:	e8 5a 88 00 00       	call   14000bb50 <_ZN5Eigen8internal15call_assignmentINS_3MapINS_6MatrixIdLin1ELi1ELi0ELin1ELi1EEELi0ENS_6StrideILi0ELi0EEEEENS_13CwiseBinaryOpINS0_17scalar_product_opIddEEKNS_14CwiseNullaryOpINS0_18scalar_constant_opIdEEKS4_EEKNS_5BlockIKNSH_IKNS2_IKNS3_IdLin1ELin1ELi0ELin1ELin1EEELi0ENS_11OuterStrideILin1EEEEELin1ELi1ELb1EEELin1ELi1ELb0EEEEENS0_13sub_assign_opIddEEEEvRT_RKT0_RKT1_NSt9enable_ifIXntsrNS0_25evaluator_assume_aliasingISX_NS0_16evaluator_traitsISX_E5ShapeEEE5valueEPvE4typeE>
   1400032f6:	48 8b 45 20          	mov    0x20(%rbp),%rax
   1400032fa:	48 89 c1             	mov    %rax,%rcx
   1400032fd:	e8 de 64 01 00       	call   1400197e0 <_ZN5Eigen9EigenBaseINS_3MapINS_6MatrixIdLin1ELi1ELi0ELin1ELi1EEELi0ENS_6StrideILi0ELi0EEEEEE7derivedEv>
   140003302:	48 83 c4 38          	add    $0x38,%rsp
   140003306:	5b                   	pop    %rbx
   140003307:	5d                   	pop    %rbp
   140003308:	c3                   	ret
   140003309:	90                   	nop
   14000330a:	90                   	nop
   14000330b:	90                   	nop
   14000330c:	90                   	nop
   14000330d:	90                   	nop
   14000330e:	90                   	nop
   14000330f:	90                   	nop

0000000140003310 <_ZN5Eigen10MatrixBaseINS_3MapINS_6MatrixIdLin1ELi1ELi0ELin1ELi1EEELi16ENS_6StrideILi0ELi0EEEEEEaSINS_5BlockIS3_Lin1ELi1ELb0EEEEERS6_RKNS_9DenseBaseIT_EE>:
   140003310:	55                   	push   %rbp
   140003311:	53                   	push   %rbx
   140003312:	48 83 ec 28          	sub    $0x28,%rsp
   140003316:	48 8d 6c 24 20       	lea    0x20(%rsp),%rbp
   14000331b:	48 89 4d 20          	mov    %rcx,0x20(%rbp)
   14000331f:	48 89 55 28          	mov    %rdx,0x28(%rbp)
   140003323:	48 8b 45 28          	mov    0x28(%rbp),%rax
   140003327:	48 89 c1             	mov    %rax,%rcx
   14000332a:	e8 21 d5 01 00       	call   140020850 <_ZNK5Eigen9EigenBaseINS_5BlockINS_6MatrixIdLin1ELi1ELi0ELin1ELi1EEELin1ELi1ELb0EEEE7derivedEv>
   14000332f:	48 89 c3             	mov    %rax,%rbx
   140003332:	48 8b 45 20          	mov    0x20(%rbp),%rax
   140003336:	48 89 c1             	mov    %rax,%rcx
   140003339:	e8 b2 64 01 00       	call   1400197f0 <_ZN5Eigen9EigenBaseINS_3MapINS_6MatrixIdLin1ELi1ELi0ELin1ELi1EEELi16ENS_6StrideILi0ELi0EEEEEE7derivedEv>
   14000333e:	48 89 da             	mov    %rbx,%rdx
   140003341:	48 89 c1             	mov    %rax,%rcx
   140003344:	e8 47 88 00 00       	call   14000bb90 <_ZN5Eigen8internal15call_assignmentINS_3MapINS_6MatrixIdLin1ELi1ELi0ELin1ELi1EEELi16ENS_6StrideILi0ELi0EEEEENS_5BlockIS4_Lin1ELi1ELb0EEEEEvRT_RKT0_>
   140003349:	48 8b 45 20          	mov    0x20(%rbp),%rax
   14000334d:	48 89 c1             	mov    %rax,%rcx
   140003350:	e8 9b 64 01 00       	call   1400197f0 <_ZN5Eigen9EigenBaseINS_3MapINS_6MatrixIdLin1ELi1ELi0ELin1ELi1EEELi16ENS_6StrideILi0ELi0EEEEEE7derivedEv>
   140003355:	48 83 c4 28          	add    $0x28,%rsp
   140003359:	5b                   	pop    %rbx
   14000335a:	5d                   	pop    %rbp
   14000335b:	c3                   	ret
   14000335c:	90                   	nop
   14000335d:	90                   	nop
   14000335e:	90                   	nop
   14000335f:	90                   	nop

0000000140003360 <_ZN5Eigen10MatrixBaseINS_5BlockINS1_INS_6MatrixIdLin1ELin1ELi0ELin1ELin1EEELin1ELin1ELb0EEELin1ELi1ELb1EEEEmIINS_13CwiseBinaryOpINS_8internal17scalar_product_opIddEEKNS_14CwiseNullaryOpINS9_18scalar_constant_opIdEEKNS2_IdLin1ELi1ELi0ELin1ELi1EEEEEKNS1_INS1_IS3_Lin1ELi1ELb1EEELin1ELi1ELb0EEEEEEERS5_RKNS0_IT_EE>:
   140003360:	55                   	push   %rbp
   140003361:	53                   	push   %rbx
   140003362:	48 83 ec 38          	sub    $0x38,%rsp
   140003366:	48 8d 6c 24 30       	lea    0x30(%rsp),%rbp
   14000336b:	48 89 4d 20          	mov    %rcx,0x20(%rbp)
   14000336f:	48 89 55 28          	mov    %rdx,0x28(%rbp)
   140003373:	48 8b 45 28          	mov    0x28(%rbp),%rax
   140003377:	48 89 c1             	mov    %rax,%rcx
   14000337a:	e8 21 cd 01 00       	call   1400200a0 <_ZNK5Eigen9EigenBaseINS_13CwiseBinaryOpINS_8internal17scalar_product_opIddEEKNS_14CwiseNullaryOpINS2_18scalar_constant_opIdEEKNS_6MatrixIdLin1ELi1ELi0ELin1ELi1EEEEEKNS_5BlockINSD_INS8_IdLin1ELin1ELi0ELin1ELin1EEELin1ELi1ELb1EEELin1ELi1ELb0EEEEEE7derivedEv>
   14000337f:	48 89 c3             	mov    %rax,%rbx
   140003382:	48 8b 45 20          	mov    0x20(%rbp),%rax
   140003386:	48 89 c1             	mov    %rax,%rcx
   140003389:	e8 82 64 01 00       	call   140019810 <_ZN5Eigen9EigenBaseINS_5BlockINS1_INS_6MatrixIdLin1ELin1ELi0ELin1ELin1EEELin1ELin1ELb0EEELin1ELi1ELb1EEEE7derivedEv>
   14000338e:	48 8d 55 ff          	lea    -0x1(%rbp),%rdx
   140003392:	41 b9 00 00 00 00    	mov    $0x0,%r9d
   140003398:	49 89 d0             	mov    %rdx,%r8
   14000339b:	48 89 da             	mov    %rbx,%rdx
   14000339e:	48 89 c1             	mov    %rax,%rcx
   1400033a1:	e8 aa 88 00 00       	call   14000bc50 <_ZN5Eigen8internal15call_assignmentINS_5BlockINS2_INS_6MatrixIdLin1ELin1ELi0ELin1ELin1EEELin1ELin1ELb0EEELin1ELi1ELb1EEENS_13CwiseBinaryOpINS0_17scalar_product_opIddEEKNS_14CwiseNullaryOpINS0_18scalar_constant_opIdEEKNS3_IdLin1ELi1ELi0ELin1ELi1EEEEEKNS2_INS2_IS4_Lin1ELi1ELb1EEELin1ELi1ELb0EEEEENS0_13sub_assign_opIddEEEEvRT_RKT0_RKT1_NSt9enable_ifIXntsrNS0_25evaluator_assume_aliasingISP_NS0_16evaluator_traitsISP_E5ShapeEEE5valueEPvE4typeE>
   1400033a6:	48 8b 45 20          	mov    0x20(%rbp),%rax
   1400033aa:	48 89 c1             	mov    %rax,%rcx
   1400033ad:	e8 5e 64 01 00       	call   140019810 <_ZN5Eigen9EigenBaseINS_5BlockINS1_INS_6MatrixIdLin1ELin1ELi0ELin1ELin1EEELin1ELin1ELb0EEELin1ELi1ELb1EEEE7derivedEv>
   1400033b2:	48 83 c4 38          	add    $0x38,%rsp
   1400033b6:	5b                   	pop    %rbx
   1400033b7:	5d                   	pop    %rbp
   1400033b8:	c3                   	ret
   1400033b9:	90                   	nop
   1400033ba:	90                   	nop
   1400033bb:	90                   	nop
   1400033bc:	90                   	nop
   1400033bd:	90                   	nop
   1400033be:	90                   	nop
   1400033bf:	90                   	nop

00000001400033c0 <_ZN5Eigen10MatrixBaseINS_5BlockINS_6MatrixIdLin1ELi1ELi0ELin1ELi1EEELi1ELi1ELb0EEEEaSERKS5_>:
   1400033c0:	55                   	push   %rbp
   1400033c1:	53                   	push   %rbx
   1400033c2:	48 83 ec 28          	sub    $0x28,%rsp
   1400033c6:	48 8d 6c 24 20       	lea    0x20(%rsp),%rbp
   1400033cb:	48 89 4d 20          	mov    %rcx,0x20(%rbp)
   1400033cf:	48 89 55 28          	mov    %rdx,0x28(%rbp)
   1400033d3:	48 8b 45 28          	mov    0x28(%rbp),%rax
   1400033d7:	48 89 c1             	mov    %rax,%rcx
   1400033da:	e8 b1 d3 01 00       	call   140020790 <_ZNK5Eigen9EigenBaseINS_5BlockINS_6MatrixIdLin1ELi1ELi0ELin1ELi1EEELi1ELi1ELb0EEEE7derivedEv>
   1400033df:	48 89 c3             	mov    %rax,%rbx
   1400033e2:	48 8b 45 20          	mov    0x20(%rbp),%rax
   1400033e6:	48 89 c1             	mov    %rax,%rcx
   1400033e9:	e8 32 64 01 00       	call   140019820 <_ZN5Eigen9EigenBaseINS_5BlockINS_6MatrixIdLin1ELi1ELi0ELin1ELi1EEELi1ELi1ELb0EEEE7derivedEv>
   1400033ee:	48 89 da             	mov    %rbx,%rdx
   1400033f1:	48 89 c1             	mov    %rax,%rcx
   1400033f4:	e8 97 89 00 00       	call   14000bd90 <_ZN5Eigen8internal15call_assignmentINS_5BlockINS_6MatrixIdLin1ELi1ELi0ELin1ELi1EEELi1ELi1ELb0EEES5_EEvRT_RKT0_>
   1400033f9:	48 8b 45 20          	mov    0x20(%rbp),%rax
   1400033fd:	48 89 c1             	mov    %rax,%rcx
   140003400:	e8 1b 64 01 00       	call   140019820 <_ZN5Eigen9EigenBaseINS_5BlockINS_6MatrixIdLin1ELi1ELi0ELin1ELi1EEELi1ELi1ELb0EEEE7derivedEv>
   140003405:	48 83 c4 28          	add    $0x28,%rsp
   140003409:	5b                   	pop    %rbx
   14000340a:	5d                   	pop    %rbp
   14000340b:	c3                   	ret
   14000340c:	90                   	nop
   14000340d:	90                   	nop
   14000340e:	90                   	nop
   14000340f:	90                   	nop

0000000140003410 <_ZN5Eigen10MatrixBaseINS_5BlockINS_6MatrixIdLin1ELi1ELi0ELin1ELi1EEELi1ELi1ELb0EEEEaSINS1_IKS3_Li1ELi1ELb0EEEEERS4_RKNS_9DenseBaseIT_EE>:
   140003410:	55                   	push   %rbp
   140003411:	53                   	push   %rbx
   140003412:	48 83 ec 28          	sub    $0x28,%rsp
   140003416:	48 8d 6c 24 20       	lea    0x20(%rsp),%rbp
   14000341b:	48 89 4d 20          	mov    %rcx,0x20(%rbp)
   14000341f:	48 89 55 28          	mov    %rdx,0x28(%rbp)
   140003423:	48 8b 45 28          	mov    0x28(%rbp),%rax
   140003427:	48 89 c1             	mov    %rax,%rcx
   14000342a:	e8 41 d1 01 00       	call   140020570 <_ZNK5Eigen9EigenBaseINS_5BlockIKNS_6MatrixIdLin1ELi1ELi0ELin1ELi1EEELi1ELi1ELb0EEEE7derivedEv>
   14000342f:	48 89 c3             	mov    %rax,%rbx
   140003432:	48 8b 45 20          	mov    0x20(%rbp),%rax
   140003436:	48 89 c1             	mov    %rax,%rcx
   140003439:	e8 e2 63 01 00       	call   140019820 <_ZN5Eigen9EigenBaseINS_5BlockINS_6MatrixIdLin1ELi1ELi0ELin1ELi1EEELi1ELi1ELb0EEEE7derivedEv>
   14000343e:	48 89 da             	mov    %rbx,%rdx
   140003441:	48 89 c1             	mov    %rax,%rcx
   140003444:	e8 47 88 00 00       	call   14000bc90 <_ZN5Eigen8internal15call_assignmentINS_5BlockINS_6MatrixIdLin1ELi1ELi0ELin1ELi1EEELi1ELi1ELb0EEENS2_IKS4_Li1ELi1ELb0EEEEEvRT_RKT0_>
   140003449:	48 8b 45 20          	mov    0x20(%rbp),%rax
   14000344d:	48 89 c1             	mov    %rax,%rcx
   140003450:	e8 cb 63 01 00       	call   140019820 <_ZN5Eigen9EigenBaseINS_5BlockINS_6MatrixIdLin1ELi1ELi0ELin1ELi1EEELi1ELi1ELb0EEEE7derivedEv>
   140003455:	48 83 c4 28          	add    $0x28,%rsp
   140003459:	5b                   	pop    %rbx
   14000345a:	5d                   	pop    %rbp
   14000345b:	c3                   	ret
   14000345c:	90                   	nop
   14000345d:	90                   	nop
   14000345e:	90                   	nop
   14000345f:	90                   	nop

0000000140003460 <_ZN5Eigen10MatrixBaseINS_5BlockINS_6MatrixIdLin1ELi1ELi0ELin1ELi1EEELi1ELi1ELb0EEEEaSINS_14CwiseNullaryOpINS_8internal18scalar_constant_opIdEENS2_IdLi1ELi1ELi0ELi1ELi1EEEEEEERS4_RKNS_9DenseBaseIT_EE>:
   140003460:	55                   	push   %rbp
   140003461:	53                   	push   %rbx
   140003462:	48 83 ec 28          	sub    $0x28,%rsp
   140003466:	48 8d 6c 24 20       	lea    0x20(%rsp),%rbp
   14000346b:	48 89 4d 20          	mov    %rcx,0x20(%rbp)
   14000346f:	48 89 55 28          	mov    %rdx,0x28(%rbp)
   140003473:	48 8b 45 28          	mov    0x28(%rbp),%rax
   140003477:	48 89 c1             	mov    %rax,%rcx
   14000347a:	e8 41 cc 01 00       	call   1400200c0 <_ZNK5Eigen9EigenBaseINS_14CwiseNullaryOpINS_8internal18scalar_constant_opIdEENS_6MatrixIdLi1ELi1ELi0ELi1ELi1EEEEEE7derivedEv>
   14000347f:	48 89 c3             	mov    %rax,%rbx
   140003482:	48 8b 45 20          	mov    0x20(%rbp),%rax
   140003486:	48 89 c1             	mov    %rax,%rcx
   140003489:	e8 92 63 01 00       	call   140019820 <_ZN5Eigen9EigenBaseINS_5BlockINS_6MatrixIdLin1ELi1ELi0ELin1ELi1EEELi1ELi1ELb0EEEE7derivedEv>
   14000348e:	48 89 da             	mov    %rbx,%rdx
   140003491:	48 89 c1             	mov    %rax,%rcx
   140003494:	e8 77 88 00 00       	call   14000bd10 <_ZN5Eigen8internal15call_assignmentINS_5BlockINS_6MatrixIdLin1ELi1ELi0ELin1ELi1EEELi1ELi1ELb0EEENS_14CwiseNullaryOpINS0_18scalar_constant_opIdEENS3_IdLi1ELi1ELi0ELi1ELi1EEEEEEEvRT_RKT0_>
   140003499:	48 8b 45 20          	mov    0x20(%rbp),%rax
   14000349d:	48 89 c1             	mov    %rax,%rcx
   1400034a0:	e8 7b 63 01 00       	call   140019820 <_ZN5Eigen9EigenBaseINS_5BlockINS_6MatrixIdLin1ELi1ELi0ELin1ELi1EEELi1ELi1ELb0EEEE7derivedEv>
   1400034a5:	48 83 c4 28          	add    $0x28,%rsp
   1400034a9:	5b                   	pop    %rbx
   1400034aa:	5d                   	pop    %rbp
   1400034ab:	c3                   	ret
   1400034ac:	90                   	nop
   1400034ad:	90                   	nop
   1400034ae:	90                   	nop
   1400034af:	90                   	nop

00000001400034b0 <_ZN5Eigen10MatrixBaseINS_5BlockINS_6MatrixIdLin1ELi1ELi0ELin1ELi1EEELin1ELi1ELb0EEEEaSINS_3MapIS3_Li16ENS_6StrideILi0ELi0EEEEEEERS4_RKNS_9DenseBaseIT_EE>:
   1400034b0:	55                   	push   %rbp
   1400034b1:	53                   	push   %rbx
   1400034b2:	48 83 ec 28          	sub    $0x28,%rsp
   1400034b6:	48 8d 6c 24 20       	lea    0x20(%rsp),%rbp
   1400034bb:	48 89 4d 20          	mov    %rcx,0x20(%rbp)
   1400034bf:	48 89 55 28          	mov    %rdx,0x28(%rbp)
   1400034c3:	48 8b 45 28          	mov    0x28(%rbp),%rax
   1400034c7:	48 89 c1             	mov    %rax,%rcx
   1400034ca:	e8 61 ce 01 00       	call   140020330 <_ZNK5Eigen9EigenBaseINS_3MapINS_6MatrixIdLin1ELi1ELi0ELin1ELi1EEELi16ENS_6StrideILi0ELi0EEEEEE7derivedEv>
   1400034cf:	48 89 c3             	mov    %rax,%rbx
   1400034d2:	48 8b 45 20          	mov    0x20(%rbp),%rax
   1400034d6:	48 89 c1             	mov    %rax,%rcx
   1400034d9:	e8 52 63 01 00       	call   140019830 <_ZN5Eigen9EigenBaseINS_5BlockINS_6MatrixIdLin1ELi1ELi0ELin1ELi1EEELin1ELi1ELb0EEEE7derivedEv>
   1400034de:	48 89 da             	mov    %rbx,%rdx
   1400034e1:	48 89 c1             	mov    %rax,%rcx
   1400034e4:	e8 67 89 00 00       	call   14000be50 <_ZN5Eigen8internal15call_assignmentINS_5BlockINS_6MatrixIdLin1ELi1ELi0ELin1ELi1EEELin1ELi1ELb0EEENS_3MapIS4_Li16ENS_6StrideILi0ELi0EEEEEEEvRT_RKT0_>
   1400034e9:	48 8b 45 20          	mov    0x20(%rbp),%rax
   1400034ed:	48 89 c1             	mov    %rax,%rcx
   1400034f0:	e8 3b 63 01 00       	call   140019830 <_ZN5Eigen9EigenBaseINS_5BlockINS_6MatrixIdLin1ELi1ELi0ELin1ELi1EEELin1ELi1ELb0EEEE7derivedEv>
   1400034f5:	48 83 c4 28          	add    $0x28,%rsp
   1400034f9:	5b                   	pop    %rbx
   1400034fa:	5d                   	pop    %rbp
   1400034fb:	c3                   	ret
   1400034fc:	90                   	nop
   1400034fd:	90                   	nop
   1400034fe:	90                   	nop
   1400034ff:	90                   	nop

0000000140003500 <_ZN5Eigen10MatrixBaseINS_5BlockINS_6MatrixIdLin1ELi1ELi0ELin1ELi1EEELin1ELi1ELb0EEEEmIINS_7ProductINS1_IKNS2_IdLin1ELin1ELi0ELin1ELin1EEELin1ELin1ELb0EEES4_Li0EEEEERS4_RKNS0_IT_EE>:
   140003500:	55                   	push   %rbp
   140003501:	53                   	push   %rbx
   140003502:	48 83 ec 38          	sub    $0x38,%rsp
   140003506:	48 8d 6c 24 30       	lea    0x30(%rsp),%rbp
   14000350b:	48 89 4d 20          	mov    %rcx,0x20(%rbp)
   14000350f:	48 89 55 28          	mov    %rdx,0x28(%rbp)
   140003513:	48 8b 45 28          	mov    0x28(%rbp),%rax
   140003517:	48 89 c1             	mov    %rax,%rcx
   14000351a:	e8 c1 d7 01 00       	call   140020ce0 <_ZNK5Eigen9EigenBaseINS_7ProductINS_5BlockIKNS_6MatrixIdLin1ELin1ELi0ELin1ELin1EEELin1ELin1ELb0EEENS2_INS3_IdLin1ELi1ELi0ELin1ELi1EEELin1ELi1ELb0EEELi0EEEE7derivedEv>
   14000351f:	48 89 c3             	mov    %rax,%rbx
   140003522:	48 8b 45 20          	mov    0x20(%rbp),%rax
   140003526:	48 89 c1             	mov    %rax,%rcx
   140003529:	e8 02 63 01 00       	call   140019830 <_ZN5Eigen9EigenBaseINS_5BlockINS_6MatrixIdLin1ELi1ELi0ELin1ELi1EEELin1ELi1ELb0EEEE7derivedEv>
   14000352e:	48 8d 55 ff          	lea    -0x1(%rbp),%rdx
   140003532:	41 b9 00 00 00 00    	mov    $0x0,%r9d
   140003538:	49 89 d0             	mov    %rdx,%r8
   14000353b:	48 89 da             	mov    %rbx,%rdx
   14000353e:	48 89 c1             	mov    %rax,%rcx
   140003541:	e8 8a 89 00 00       	call   14000bed0 <_ZN5Eigen8internal15call_assignmentINS_5BlockINS_6MatrixIdLin1ELi1ELi0ELin1ELi1EEELin1ELi1ELb0EEENS_7ProductINS2_IKNS3_IdLin1ELin1ELi0ELin1ELin1EEELin1ELin1ELb0EEES5_Li0EEENS0_13sub_assign_opIddEEEEvRT_RKT0_RKT1_NSt9enable_ifIXsrNS0_25evaluator_assume_aliasingISF_NS0_16evaluator_traitsISF_E5ShapeEEE5valueEPvE4typeE>
   140003546:	48 8b 45 20          	mov    0x20(%rbp),%rax
   14000354a:	48 89 c1             	mov    %rax,%rcx
   14000354d:	e8 de 62 01 00       	call   140019830 <_ZN5Eigen9EigenBaseINS_5BlockINS_6MatrixIdLin1ELi1ELi0ELin1ELi1EEELin1ELi1ELb0EEEE7derivedEv>
   140003552:	48 83 c4 38          	add    $0x38,%rsp
   140003556:	5b                   	pop    %rbx
   140003557:	5d                   	pop    %rbp
   140003558:	c3                   	ret
   140003559:	90                   	nop
   14000355a:	90                   	nop
   14000355b:	90                   	nop
   14000355c:	90                   	nop
   14000355d:	90                   	nop
   14000355e:	90                   	nop
   14000355f:	90                   	nop

0000000140003560 <_ZN5Eigen10MatrixBaseINS_5BlockINS_6MatrixIdLin1ELin1ELi0ELin1ELin1EEELin1ELin1ELb0EEEE7noaliasEv>:
   140003560:	55                   	push   %rbp
   140003561:	48 89 e5             	mov    %rsp,%rbp
   140003564:	48 83 ec 30          	sub    $0x30,%rsp
   140003568:	48 89 4d 10          	mov    %rcx,0x10(%rbp)
   14000356c:	48 8b 45 10          	mov    0x10(%rbp),%rax
   140003570:	48 89 c1             	mov    %rax,%rcx
   140003573:	e8 e8 62 01 00       	call   140019860 <_ZN5Eigen9EigenBaseINS_5BlockINS_6MatrixIdLin1ELin1ELi0ELin1ELin1EEELin1ELin1ELb0EEEE7derivedEv>
   140003578:	48 89 c2             	mov    %rax,%rdx
   14000357b:	48 8d 45 f8          	lea    -0x8(%rbp),%rax
   14000357f:	48 89 c1             	mov    %rax,%rcx
   140003582:	e8 d9 42 00 00       	call   140007860 <_ZN5Eigen7NoAliasINS_5BlockINS_6MatrixIdLin1ELin1ELi0ELin1ELin1EEELin1ELin1ELb0EEENS_10MatrixBaseEEC1ERS4_>
   140003587:	48 8b 45 f8          	mov    -0x8(%rbp),%rax
   14000358b:	48 83 c4 30          	add    $0x30,%rsp
   14000358f:	5d                   	pop    %rbp
   140003590:	c3                   	ret
   140003591:	90                   	nop
   140003592:	90                   	nop
   140003593:	90                   	nop
   140003594:	90                   	nop
   140003595:	90                   	nop
   140003596:	90                   	nop
   140003597:	90                   	nop
   140003598:	90                   	nop
   140003599:	90                   	nop
   14000359a:	90                   	nop
   14000359b:	90                   	nop
   14000359c:	90                   	nop
   14000359d:	90                   	nop
   14000359e:	90                   	nop
   14000359f:	90                   	nop

00000001400035a0 <_ZN5Eigen10SolverBaseINS_9FullPivLUINS_6MatrixIdLin1ELin1ELi0ELin1ELin1EEEiEEEC2Ev>:
   1400035a0:	55                   	push   %rbp
   1400035a1:	48 89 e5             	mov    %rsp,%rbp
   1400035a4:	48 89 4d 10          	mov    %rcx,0x10(%rbp)
   1400035a8:	90                   	nop
   1400035a9:	5d                   	pop    %rbp
   1400035aa:	c3                   	ret
   1400035ab:	90                   	nop
   1400035ac:	90                   	nop
   1400035ad:	90                   	nop
   1400035ae:	90                   	nop
   1400035af:	90                   	nop

00000001400035b0 <_ZN5Eigen10SolverBaseINS_9FullPivLUINS_6MatrixIdLin1ELin1ELi0ELin1ELin1EEEiEEED2Ev>:
   1400035b0:	55                   	push   %rbp
   1400035b1:	48 89 e5             	mov    %rsp,%rbp
   1400035b4:	48 89 4d 10          	mov    %rcx,0x10(%rbp)
   1400035b8:	90                   	nop
   1400035b9:	5d                   	pop    %rbp
   1400035ba:	c3                   	ret
   1400035bb:	90                   	nop
   1400035bc:	90                   	nop
   1400035bd:	90                   	nop
   1400035be:	90                   	nop
   1400035bf:	90                   	nop

00000001400035c0 <_ZN5Eigen11OuterStrideILin1EEC1ERKS1_>:
   1400035c0:	55                   	push   %rbp
   1400035c1:	48 89 e5             	mov    %rsp,%rbp
   1400035c4:	48 83 ec 20          	sub    $0x20,%rsp
   1400035c8:	48 89 4d 10          	mov    %rcx,0x10(%rbp)
   1400035cc:	48 89 55 18          	mov    %rdx,0x18(%rbp)
   1400035d0:	48 8b 45 10          	mov    0x10(%rbp),%rax
   1400035d4:	48 8b 55 18          	mov    0x18(%rbp),%rdx
   1400035d8:	48 89 c1             	mov    %rax,%rcx
   1400035db:	e8 20 32 00 00       	call   140006800 <_ZN5Eigen6StrideILin1ELi0EEC2ERKS1_>
   1400035e0:	90                   	nop
   1400035e1:	48 83 c4 20          	add    $0x20,%rsp
   1400035e5:	5d                   	pop    %rbp
   1400035e6:	c3                   	ret
   1400035e7:	90                   	nop
   1400035e8:	90                   	nop
   1400035e9:	90                   	nop
   1400035ea:	90                   	nop
   1400035eb:	90                   	nop
   1400035ec:	90                   	nop
   1400035ed:	90                   	nop
   1400035ee:	90                   	nop
   1400035ef:	90                   	nop

00000001400035f0 <_ZN5Eigen11OuterStrideILin1EEC1Ex>:
   1400035f0:	55                   	push   %rbp
   1400035f1:	48 89 e5             	mov    %rsp,%rbp
   1400035f4:	48 83 ec 20          	sub    $0x20,%rsp
   1400035f8:	48 89 4d 10          	mov    %rcx,0x10(%rbp)
   1400035fc:	48 89 55 18          	mov    %rdx,0x18(%rbp)
   140003600:	48 8b 45 10          	mov    0x10(%rbp),%rax
   140003604:	48 8b 55 18          	mov    0x18(%rbp),%rdx
   140003608:	41 b8 00 00 00 00    	mov    $0x0,%r8d
   14000360e:	48 89 c1             	mov    %rax,%rcx
   140003611:	e8 4a 32 00 00       	call   140006860 <_ZN5Eigen6StrideILin1ELi0EEC2Exx>
   140003616:	90                   	nop
   140003617:	48 83 c4 20          	add    $0x20,%rsp
   14000361b:	5d                   	pop    %rbp
   14000361c:	c3                   	ret
   14000361d:	90                   	nop
   14000361e:	90                   	nop
   14000361f:	90                   	nop

0000000140003620 <_ZN5Eigen11VectorBlockIKNS_5BlockIKNS_3MapIKNS_6MatrixIdLin1ELin1ELi0ELin1ELin1EEELi0ENS_11OuterStrideILin1EEEEELin1ELi1ELb1EEELin1EEC1ERSB_xx>:
   140003620:	55                   	push   %rbp
   140003621:	48 89 e5             	mov    %rsp,%rbp
   140003624:	48 83 ec 30          	sub    $0x30,%rsp
   140003628:	48 89 4d 10          	mov    %rcx,0x10(%rbp)
   14000362c:	48 89 55 18          	mov    %rdx,0x18(%rbp)
   140003630:	4c 89 45 20          	mov    %r8,0x20(%rbp)
   140003634:	4c 89 4d 28          	mov    %r9,0x28(%rbp)
   140003638:	48 8b 45 10          	mov    0x10(%rbp),%rax
   14000363c:	4c 8b 45 20          	mov    0x20(%rbp),%r8
   140003640:	48 8b 55 18          	mov    0x18(%rbp),%rdx
   140003644:	48 c7 44 24 28 01 00 	movq   $0x1,0x28(%rsp)
   14000364b:	00 00 
   14000364d:	48 8b 4d 28          	mov    0x28(%rbp),%rcx
   140003651:	48 89 4c 24 20       	mov    %rcx,0x20(%rsp)
   140003656:	41 b9 00 00 00 00    	mov    $0x0,%r9d
   14000365c:	48 89 c1             	mov    %rax,%rcx
   14000365f:	e8 fc 22 00 00       	call   140005960 <_ZN5Eigen5BlockIKNS0_IKNS_3MapIKNS_6MatrixIdLin1ELin1ELi0ELin1ELin1EEELi0ENS_11OuterStrideILin1EEEEELin1ELi1ELb1EEELin1ELi1ELb0EEC2ERSA_xxxx>
   140003664:	90                   	nop
   140003665:	48 83 c4 30          	add    $0x30,%rsp
   140003669:	5d                   	pop    %rbp
   14000366a:	c3                   	ret
   14000366b:	90                   	nop
   14000366c:	90                   	nop
   14000366d:	90                   	nop
   14000366e:	90                   	nop
   14000366f:	90                   	nop

0000000140003670 <_ZN5Eigen11VectorBlockINS_5BlockINS_6MatrixIdLin1ELin1ELi0ELin1ELin1EEELi1ELin1ELb0EEELin1EEC1ERS4_xx>:
   140003670:	55                   	push   %rbp
   140003671:	48 89 e5             	mov    %rsp,%rbp
   140003674:	48 83 ec 30          	sub    $0x30,%rsp
   140003678:	48 89 4d 10          	mov    %rcx,0x10(%rbp)
   14000367c:	48 89 55 18          	mov    %rdx,0x18(%rbp)
   140003680:	4c 89 45 20          	mov    %r8,0x20(%rbp)
   140003684:	4c 89 4d 28          	mov    %r9,0x28(%rbp)
   140003688:	48 8b 45 10          	mov    0x10(%rbp),%rax
   14000368c:	4c 8b 45 20          	mov    0x20(%rbp),%r8
   140003690:	48 8b 55 18          	mov    0x18(%rbp),%rdx
   140003694:	48 8b 4d 28          	mov    0x28(%rbp),%rcx
   140003698:	48 89 4c 24 28       	mov    %rcx,0x28(%rsp)
   14000369d:	48 c7 44 24 20 01 00 	movq   $0x1,0x20(%rsp)
   1400036a4:	00 00 
   1400036a6:	4d 89 c1             	mov    %r8,%r9
   1400036a9:	41 b8 00 00 00 00    	mov    $0x0,%r8d
   1400036af:	48 89 c1             	mov    %rax,%rcx
   1400036b2:	e8 a9 26 00 00       	call   140005d60 <_ZN5Eigen5BlockINS0_INS_6MatrixIdLin1ELin1ELi0ELin1ELin1EEELi1ELin1ELb0EEELi1ELin1ELb0EEC2ERS3_xxxx>
   1400036b7:	90                   	nop
   1400036b8:	48 83 c4 30          	add    $0x30,%rsp
   1400036bc:	5d                   	pop    %rbp
   1400036bd:	c3                   	ret
   1400036be:	90                   	nop
   1400036bf:	90                   	nop

00000001400036c0 <_ZN5Eigen11VectorBlockINS_5BlockINS_6MatrixIdLin1ELin1ELi0ELin1ELin1EEELin1ELi1ELb1EEELin1EEC1ERS4_xx>:
   1400036c0:	55                   	push   %rbp
   1400036c1:	48 89 e5             	mov    %rsp,%rbp
   1400036c4:	48 83 ec 30          	sub    $0x30,%rsp
   1400036c8:	48 89 4d 10          	mov    %rcx,0x10(%rbp)
   1400036cc:	48 89 55 18          	mov    %rdx,0x18(%rbp)
   1400036d0:	4c 89 45 20          	mov    %r8,0x20(%rbp)
   1400036d4:	4c 89 4d 28          	mov    %r9,0x28(%rbp)
   1400036d8:	48 8b 45 10          	mov    0x10(%rbp),%rax
   1400036dc:	4c 8b 45 20          	mov    0x20(%rbp),%r8
   1400036e0:	48 8b 55 18          	mov    0x18(%rbp),%rdx
   1400036e4:	48 c7 44 24 28 01 00 	movq   $0x1,0x28(%rsp)
   1400036eb:	00 00 
   1400036ed:	48 8b 4d 28          	mov    0x28(%rbp),%rcx
   1400036f1:	48 89 4c 24 20       	mov    %rcx,0x20(%rsp)
   1400036f6:	41 b9 00 00 00 00    	mov    $0x0,%r9d
   1400036fc:	48 89 c1             	mov    %rax,%rcx
   1400036ff:	e8 3c 27 00 00       	call   140005e40 <_ZN5Eigen5BlockINS0_INS_6MatrixIdLin1ELin1ELi0ELin1ELin1EEELin1ELi1ELb1EEELin1ELi1ELb0EEC2ERS3_xxxx>
   140003704:	90                   	nop
   140003705:	48 83 c4 30          	add    $0x30,%rsp
   140003709:	5d                   	pop    %rbp
   14000370a:	c3                   	ret
   14000370b:	90                   	nop
   14000370c:	90                   	nop
   14000370d:	90                   	nop
   14000370e:	90                   	nop
   14000370f:	90                   	nop

0000000140003710 <_ZN5Eigen12CwiseUnaryOpINS_8internal13scalar_abs_opIdEEKNS_6MatrixIdLin1ELin1ELi0ELin1ELin1EEEEC1ERS6_RKS3_>:
   140003710:	55                   	push   %rbp
   140003711:	48 89 e5             	mov    %rsp,%rbp
   140003714:	48 89 4d 10          	mov    %rcx,0x10(%rbp)
   140003718:	48 89 55 18          	mov    %rdx,0x18(%rbp)
   14000371c:	4c 89 45 20          	mov    %r8,0x20(%rbp)
   140003720:	48 8b 45 10          	mov    0x10(%rbp),%rax
   140003724:	48 8b 55 18          	mov    0x18(%rbp),%rdx
   140003728:	48 89 10             	mov    %rdx,(%rax)
   14000372b:	90                   	nop
   14000372c:	5d                   	pop    %rbp
   14000372d:	c3                   	ret
   14000372e:	90                   	nop
   14000372f:	90                   	nop

0000000140003730 <_ZN5Eigen12CwiseUnaryOpINS_8internal21scalar_score_coeff_opIdEEKNS_5BlockINS_6MatrixIdLin1ELin1ELi0ELin1ELin1EEELin1ELin1ELb0EEEEC1ERS8_RKS3_>:
   140003730:	55                   	push   %rbp
   140003731:	53                   	push   %rbx
   140003732:	48 8d 2c 24          	lea    (%rsp),%rbp
   140003736:	48 89 4d 18          	mov    %rcx,0x18(%rbp)
   14000373a:	48 89 55 20          	mov    %rdx,0x20(%rbp)
   14000373e:	4c 89 45 28          	mov    %r8,0x28(%rbp)
   140003742:	48 8b 45 18          	mov    0x18(%rbp),%rax
   140003746:	48 8b 55 20          	mov    0x20(%rbp),%rdx
   14000374a:	48 8b 0a             	mov    (%rdx),%rcx
   14000374d:	48 8b 5a 08          	mov    0x8(%rdx),%rbx
   140003751:	48 89 08             	mov    %rcx,(%rax)
   140003754:	48 89 58 08          	mov    %rbx,0x8(%rax)
   140003758:	48 8b 4a 10          	mov    0x10(%rdx),%rcx
   14000375c:	48 8b 5a 18          	mov    0x18(%rdx),%rbx
   140003760:	48 89 48 10          	mov    %rcx,0x10(%rax)
   140003764:	48 89 58 18          	mov    %rbx,0x18(%rax)
   140003768:	48 8b 4a 20          	mov    0x20(%rdx),%rcx
   14000376c:	48 8b 5a 28          	mov    0x28(%rdx),%rbx
   140003770:	48 89 48 20          	mov    %rcx,0x20(%rax)
   140003774:	48 89 58 28          	mov    %rbx,0x28(%rax)
   140003778:	48 8b 52 30          	mov    0x30(%rdx),%rdx
   14000377c:	48 89 50 30          	mov    %rdx,0x30(%rax)
   140003780:	90                   	nop
   140003781:	5b                   	pop    %rbx
   140003782:	5d                   	pop    %rbp
   140003783:	c3                   	ret
   140003784:	90                   	nop
   140003785:	90                   	nop
   140003786:	90                   	nop
   140003787:	90                   	nop
   140003788:	90                   	nop
   140003789:	90                   	nop
   14000378a:	90                   	nop
   14000378b:	90                   	nop
   14000378c:	90                   	nop
   14000378d:	90                   	nop
   14000378e:	90                   	nop
   14000378f:	90                   	nop

0000000140003790 <_ZN5Eigen12DenseStorageIbLin1ELin1ELi1ELi0EE4colsEv>:
   140003790:	55                   	push   %rbp
   140003791:	48 89 e5             	mov    %rsp,%rbp
   140003794:	b8 01 00 00 00       	mov    $0x1,%eax
   140003799:	5d                   	pop    %rbp
   14000379a:	c3                   	ret
   14000379b:	90                   	nop
   14000379c:	90                   	nop
   14000379d:	90                   	nop
   14000379e:	90                   	nop
   14000379f:	90                   	nop

00000001400037a0 <_ZN5Eigen12DenseStorageIbLin1ELin1ELi1ELi0EE4dataEv>:
   1400037a0:	55                   	push   %rbp
   1400037a1:	48 89 e5             	mov    %rsp,%rbp
   1400037a4:	48 89 4d 10          	mov    %rcx,0x10(%rbp)
   1400037a8:	48 8b 45 10          	mov    0x10(%rbp),%rax
   1400037ac:	48 8b 00             	mov    (%rax),%rax
   1400037af:	5d                   	pop    %rbp
   1400037b0:	c3                   	ret
   1400037b1:	90                   	nop
   1400037b2:	90                   	nop
   1400037b3:	90                   	nop
   1400037b4:	90                   	nop
   1400037b5:	90                   	nop
   1400037b6:	90                   	nop
   1400037b7:	90                   	nop
   1400037b8:	90                   	nop
   1400037b9:	90                   	nop
   1400037ba:	90                   	nop
   1400037bb:	90                   	nop
   1400037bc:	90                   	nop
   1400037bd:	90                   	nop
   1400037be:	90                   	nop
   1400037bf:	90                   	nop

00000001400037c0 <_ZN5Eigen12DenseStorageIbLin1ELin1ELi1ELi0EE6resizeExxx>:
   1400037c0:	55                   	push   %rbp
   1400037c1:	48 89 e5             	mov    %rsp,%rbp
   1400037c4:	48 83 ec 20          	sub    $0x20,%rsp
   1400037c8:	48 89 4d 10          	mov    %rcx,0x10(%rbp)
   1400037cc:	48 89 55 18          	mov    %rdx,0x18(%rbp)
   1400037d0:	4c 89 45 20          	mov    %r8,0x20(%rbp)
   1400037d4:	4c 89 4d 28          	mov    %r9,0x28(%rbp)
   1400037d8:	48 8b 45 10          	mov    0x10(%rbp),%rax
   1400037dc:	48 8b 40 08          	mov    0x8(%rax),%rax
   1400037e0:	48 39 45 18          	cmp    %rax,0x18(%rbp)
   1400037e4:	74 41                	je     140003827 <_ZN5Eigen12DenseStorageIbLin1ELin1ELi1ELi0EE6resizeExxx+0x67>
   1400037e6:	48 8b 45 10          	mov    0x10(%rbp),%rax
   1400037ea:	48 8b 40 08          	mov    0x8(%rax),%rax
   1400037ee:	48 89 c2             	mov    %rax,%rdx
   1400037f1:	48 8b 45 10          	mov    0x10(%rbp),%rax
   1400037f5:	48 8b 00             	mov    (%rax),%rax
   1400037f8:	48 89 c1             	mov    %rax,%rcx
   1400037fb:	e8 90 29 01 00       	call   140016190 <_ZN5Eigen8internal31conditional_aligned_delete_autoIbLb1EEEvPT_y>
   140003800:	48 83 7d 18 00       	cmpq   $0x0,0x18(%rbp)
   140003805:	7e 15                	jle    14000381c <_ZN5Eigen12DenseStorageIbLin1ELin1ELi1ELi0EE6resizeExxx+0x5c>
   140003807:	48 8b 45 18          	mov    0x18(%rbp),%rax
   14000380b:	48 89 c1             	mov    %rax,%rcx
   14000380e:	e8 2d e8 00 00       	call   140012040 <_ZN5Eigen8internal28conditional_aligned_new_autoIbLb1EEEPT_y>
   140003813:	48 8b 55 10          	mov    0x10(%rbp),%rdx
   140003817:	48 89 02             	mov    %rax,(%rdx)
   14000381a:	eb 0b                	jmp    140003827 <_ZN5Eigen12DenseStorageIbLin1ELin1ELi1ELi0EE6resizeExxx+0x67>
   14000381c:	48 8b 45 10          	mov    0x10(%rbp),%rax
   140003820:	48 c7 00 00 00 00 00 	movq   $0x0,(%rax)
   140003827:	48 8b 45 10          	mov    0x10(%rbp),%rax
   14000382b:	48 8b 55 20          	mov    0x20(%rbp),%rdx
   14000382f:	48 89 50 08          	mov    %rdx,0x8(%rax)
   140003833:	90                   	nop
   140003834:	48 83 c4 20          	add    $0x20,%rsp
   140003838:	5d                   	pop    %rbp
   140003839:	c3                   	ret
   14000383a:	90                   	nop
   14000383b:	90                   	nop
   14000383c:	90                   	nop
   14000383d:	90                   	nop
   14000383e:	90                   	nop
   14000383f:	90                   	nop

0000000140003840 <_ZN5Eigen12DenseStorageIbLin1ELin1ELi1ELi0EEC1Ev>:
   140003840:	55                   	push   %rbp
   140003841:	48 89 e5             	mov    %rsp,%rbp
   140003844:	48 89 4d 10          	mov    %rcx,0x10(%rbp)
   140003848:	48 8b 45 10          	mov    0x10(%rbp),%rax
   14000384c:	48 c7 00 00 00 00 00 	movq   $0x0,(%rax)
   140003853:	48 8b 45 10          	mov    0x10(%rbp),%rax
   140003857:	48 c7 40 08 00 00 00 	movq   $0x0,0x8(%rax)
   14000385e:	00 
   14000385f:	90                   	nop
   140003860:	5d                   	pop    %rbp
   140003861:	c3                   	ret
   140003862:	90                   	nop
   140003863:	90                   	nop
   140003864:	90                   	nop
   140003865:	90                   	nop
   140003866:	90                   	nop
   140003867:	90                   	nop
   140003868:	90                   	nop
   140003869:	90                   	nop
   14000386a:	90                   	nop
   14000386b:	90                   	nop
   14000386c:	90                   	nop
   14000386d:	90                   	nop
   14000386e:	90                   	nop
   14000386f:	90                   	nop

0000000140003870 <_ZN5Eigen12DenseStorageIbLin1ELin1ELi1ELi0EED1Ev>:
   140003870:	55                   	push   %rbp
   140003871:	48 89 e5             	mov    %rsp,%rbp
   140003874:	48 83 ec 20          	sub    $0x20,%rsp
   140003878:	48 89 4d 10          	mov    %rcx,0x10(%rbp)
   14000387c:	48 8b 45 10          	mov    0x10(%rbp),%rax
   140003880:	48 8b 40 08          	mov    0x8(%rax),%rax
   140003884:	48 89 c2             	mov    %rax,%rdx
   140003887:	48 8b 45 10          	mov    0x10(%rbp),%rax
   14000388b:	48 8b 00             	mov    (%rax),%rax
   14000388e:	48 89 c1             	mov    %rax,%rcx
   140003891:	e8 fa 28 01 00       	call   140016190 <_ZN5Eigen8internal31conditional_aligned_delete_autoIbLb1EEEvPT_y>
   140003896:	90                   	nop
   140003897:	48 83 c4 20          	add    $0x20,%rsp
   14000389b:	5d                   	pop    %rbp
   14000389c:	c3                   	ret
   14000389d:	90                   	nop
   14000389e:	90                   	nop
   14000389f:	90                   	nop

00000001400038a0 <_ZN5Eigen12DenseStorageIdLin1ELin1ELi1ELi0EE4colsEv>:
   1400038a0:	55                   	push   %rbp
   1400038a1:	48 89 e5             	mov    %rsp,%rbp
   1400038a4:	b8 01 00 00 00       	mov    $0x1,%eax
   1400038a9:	5d                   	pop    %rbp
   1400038aa:	c3                   	ret
   1400038ab:	90                   	nop
   1400038ac:	90                   	nop
   1400038ad:	90                   	nop
   1400038ae:	90                   	nop
   1400038af:	90                   	nop

00000001400038b0 <_ZN5Eigen12DenseStorageIdLin1ELin1ELi1ELi0EE4dataEv>:
   1400038b0:	55                   	push   %rbp
   1400038b1:	48 89 e5             	mov    %rsp,%rbp
   1400038b4:	48 89 4d 10          	mov    %rcx,0x10(%rbp)
   1400038b8:	48 8b 45 10          	mov    0x10(%rbp),%rax
   1400038bc:	48 8b 00             	mov    (%rax),%rax
   1400038bf:	5d                   	pop    %rbp
   1400038c0:	c3                   	ret
   1400038c1:	90                   	nop
   1400038c2:	90                   	nop
   1400038c3:	90                   	nop
   1400038c4:	90                   	nop
   1400038c5:	90                   	nop
   1400038c6:	90                   	nop
   1400038c7:	90                   	nop
   1400038c8:	90                   	nop
   1400038c9:	90                   	nop
   1400038ca:	90                   	nop
   1400038cb:	90                   	nop
   1400038cc:	90                   	nop
   1400038cd:	90                   	nop
   1400038ce:	90                   	nop
   1400038cf:	90                   	nop

00000001400038d0 <_ZN5Eigen12DenseStorageIdLin1ELin1ELi1ELi0EE6resizeExxx>:
   1400038d0:	55                   	push   %rbp
   1400038d1:	48 89 e5             	mov    %rsp,%rbp
   1400038d4:	48 83 ec 20          	sub    $0x20,%rsp
   1400038d8:	48 89 4d 10          	mov    %rcx,0x10(%rbp)
   1400038dc:	48 89 55 18          	mov    %rdx,0x18(%rbp)
   1400038e0:	4c 89 45 20          	mov    %r8,0x20(%rbp)
   1400038e4:	4c 89 4d 28          	mov    %r9,0x28(%rbp)
   1400038e8:	48 8b 45 10          	mov    0x10(%rbp),%rax
   1400038ec:	48 8b 40 08          	mov    0x8(%rax),%rax
   1400038f0:	48 39 45 18          	cmp    %rax,0x18(%rbp)
   1400038f4:	74 41                	je     140003937 <_ZN5Eigen12DenseStorageIdLin1ELin1ELi1ELi0EE6resizeExxx+0x67>
   1400038f6:	48 8b 45 10          	mov    0x10(%rbp),%rax
   1400038fa:	48 8b 40 08          	mov    0x8(%rax),%rax
   1400038fe:	48 89 c2             	mov    %rax,%rdx
   140003901:	48 8b 45 10          	mov    0x10(%rbp),%rax
   140003905:	48 8b 00             	mov    (%rax),%rax
   140003908:	48 89 c1             	mov    %rax,%rcx
   14000390b:	e8 b0 28 01 00       	call   1400161c0 <_ZN5Eigen8internal31conditional_aligned_delete_autoIdLb1EEEvPT_y>
   140003910:	48 83 7d 18 00       	cmpq   $0x0,0x18(%rbp)
   140003915:	7e 15                	jle    14000392c <_ZN5Eigen12DenseStorageIdLin1ELin1ELi1ELi0EE6resizeExxx+0x5c>
   140003917:	48 8b 45 18          	mov    0x18(%rbp),%rax
   14000391b:	48 89 c1             	mov    %rax,%rcx
   14000391e:	e8 5d e7 00 00       	call   140012080 <_ZN5Eigen8internal28conditional_aligned_new_autoIdLb1EEEPT_y>
   140003923:	48 8b 55 10          	mov    0x10(%rbp),%rdx
   140003927:	48 89 02             	mov    %rax,(%rdx)
   14000392a:	eb 0b                	jmp    140003937 <_ZN5Eigen12DenseStorageIdLin1ELin1ELi1ELi0EE6resizeExxx+0x67>
   14000392c:	48 8b 45 10          	mov    0x10(%rbp),%rax
   140003930:	48 c7 00 00 00 00 00 	movq   $0x0,(%rax)
   140003937:	48 8b 45 10          	mov    0x10(%rbp),%rax
   14000393b:	48 8b 55 20          	mov    0x20(%rbp),%rdx
   14000393f:	48 89 50 08          	mov    %rdx,0x8(%rax)
   140003943:	90                   	nop
   140003944:	48 83 c4 20          	add    $0x20,%rsp
   140003948:	5d                   	pop    %rbp
   140003949:	c3                   	ret
   14000394a:	90                   	nop
   14000394b:	90                   	nop
   14000394c:	90                   	nop
   14000394d:	90                   	nop
   14000394e:	90                   	nop
   14000394f:	90                   	nop

0000000140003950 <_ZN5Eigen12DenseStorageIdLin1ELin1ELi1ELi0EEC1Ev>:
   140003950:	55                   	push   %rbp
   140003951:	48 89 e5             	mov    %rsp,%rbp
   140003954:	48 89 4d 10          	mov    %rcx,0x10(%rbp)
   140003958:	48 8b 45 10          	mov    0x10(%rbp),%rax
   14000395c:	48 c7 00 00 00 00 00 	movq   $0x0,(%rax)
   140003963:	48 8b 45 10          	mov    0x10(%rbp),%rax
   140003967:	48 c7 40 08 00 00 00 	movq   $0x0,0x8(%rax)
   14000396e:	00 
   14000396f:	90                   	nop
   140003970:	5d                   	pop    %rbp
   140003971:	c3                   	ret
   140003972:	90                   	nop
   140003973:	90                   	nop
   140003974:	90                   	nop
   140003975:	90                   	nop
   140003976:	90                   	nop
   140003977:	90                   	nop
   140003978:	90                   	nop
   140003979:	90                   	nop
   14000397a:	90                   	nop
   14000397b:	90                   	nop
   14000397c:	90                   	nop
   14000397d:	90                   	nop
   14000397e:	90                   	nop
   14000397f:	90                   	nop

0000000140003980 <_ZN5Eigen12DenseStorageIdLin1ELin1ELi1ELi0EED1Ev>:
   140003980:	55                   	push   %rbp
   140003981:	48 89 e5             	mov    %rsp,%rbp
   140003984:	48 83 ec 20          	sub    $0x20,%rsp
   140003988:	48 89 4d 10          	mov    %rcx,0x10(%rbp)
   14000398c:	48 8b 45 10          	mov    0x10(%rbp),%rax
   140003990:	48 8b 40 08          	mov    0x8(%rax),%rax
   140003994:	48 89 c2             	mov    %rax,%rdx
   140003997:	48 8b 45 10          	mov    0x10(%rbp),%rax
   14000399b:	48 8b 00             	mov    (%rax),%rax
   14000399e:	48 89 c1             	mov    %rax,%rcx
   1400039a1:	e8 1a 28 01 00       	call   1400161c0 <_ZN5Eigen8internal31conditional_aligned_delete_autoIdLb1EEEvPT_y>
   1400039a6:	90                   	nop
   1400039a7:	48 83 c4 20          	add    $0x20,%rsp
   1400039ab:	5d                   	pop    %rbp
   1400039ac:	c3                   	ret
   1400039ad:	90                   	nop
   1400039ae:	90                   	nop
   1400039af:	90                   	nop

00000001400039b0 <_ZN5Eigen12DenseStorageIdLin1ELin1ELin1ELi0EE4dataEv>:
   1400039b0:	55                   	push   %rbp
   1400039b1:	48 89 e5             	mov    %rsp,%rbp
   1400039b4:	48 89 4d 10          	mov    %rcx,0x10(%rbp)
   1400039b8:	48 8b 45 10          	mov    0x10(%rbp),%rax
   1400039bc:	48 8b 00             	mov    (%rax),%rax
   1400039bf:	5d                   	pop    %rbp
   1400039c0:	c3                   	ret
   1400039c1:	90                   	nop
   1400039c2:	90                   	nop
   1400039c3:	90                   	nop
   1400039c4:	90                   	nop
   1400039c5:	90                   	nop
   1400039c6:	90                   	nop
   1400039c7:	90                   	nop
   1400039c8:	90                   	nop
   1400039c9:	90                   	nop
   1400039ca:	90                   	nop
   1400039cb:	90                   	nop
   1400039cc:	90                   	nop
   1400039cd:	90                   	nop
   1400039ce:	90                   	nop
   1400039cf:	90                   	nop

00000001400039d0 <_ZN5Eigen12DenseStorageIdLin1ELin1ELin1ELi0EE6resizeExxx>:
   1400039d0:	55                   	push   %rbp
   1400039d1:	48 89 e5             	mov    %rsp,%rbp
   1400039d4:	48 83 ec 20          	sub    $0x20,%rsp
   1400039d8:	48 89 4d 10          	mov    %rcx,0x10(%rbp)
   1400039dc:	48 89 55 18          	mov    %rdx,0x18(%rbp)
   1400039e0:	4c 89 45 20          	mov    %r8,0x20(%rbp)
   1400039e4:	4c 89 4d 28          	mov    %r9,0x28(%rbp)
   1400039e8:	48 8b 45 10          	mov    0x10(%rbp),%rax
   1400039ec:	48 8b 50 08          	mov    0x8(%rax),%rdx
   1400039f0:	48 8b 45 10          	mov    0x10(%rbp),%rax
   1400039f4:	48 8b 40 10          	mov    0x10(%rax),%rax
   1400039f8:	48 0f af c2          	imul   %rdx,%rax
   1400039fc:	48 39 45 18          	cmp    %rax,0x18(%rbp)
   140003a00:	74 4d                	je     140003a4f <_ZN5Eigen12DenseStorageIdLin1ELin1ELin1ELi0EE6resizeExxx+0x7f>
   140003a02:	48 8b 45 10          	mov    0x10(%rbp),%rax
   140003a06:	48 8b 50 08          	mov    0x8(%rax),%rdx
   140003a0a:	48 8b 45 10          	mov    0x10(%rbp),%rax
   140003a0e:	48 8b 40 10          	mov    0x10(%rax),%rax
   140003a12:	48 0f af c2          	imul   %rdx,%rax
   140003a16:	48 89 c2             	mov    %rax,%rdx
   140003a19:	48 8b 45 10          	mov    0x10(%rbp),%rax
   140003a1d:	48 8b 00             	mov    (%rax),%rax
   140003a20:	48 89 c1             	mov    %rax,%rcx
   140003a23:	e8 98 27 01 00       	call   1400161c0 <_ZN5Eigen8internal31conditional_aligned_delete_autoIdLb1EEEvPT_y>
   140003a28:	48 83 7d 18 00       	cmpq   $0x0,0x18(%rbp)
   140003a2d:	7e 15                	jle    140003a44 <_ZN5Eigen12DenseStorageIdLin1ELin1ELin1ELi0EE6resizeExxx+0x74>
   140003a2f:	48 8b 45 18          	mov    0x18(%rbp),%rax
   140003a33:	48 89 c1             	mov    %rax,%rcx
   140003a36:	e8 45 e6 00 00       	call   140012080 <_ZN5Eigen8internal28conditional_aligned_new_autoIdLb1EEEPT_y>
   140003a3b:	48 8b 55 10          	mov    0x10(%rbp),%rdx
   140003a3f:	48 89 02             	mov    %rax,(%rdx)
   140003a42:	eb 0b                	jmp    140003a4f <_ZN5Eigen12DenseStorageIdLin1ELin1ELin1ELi0EE6resizeExxx+0x7f>
   140003a44:	48 8b 45 10          	mov    0x10(%rbp),%rax
   140003a48:	48 c7 00 00 00 00 00 	movq   $0x0,(%rax)
   140003a4f:	48 8b 45 10          	mov    0x10(%rbp),%rax
   140003a53:	48 8b 55 20          	mov    0x20(%rbp),%rdx
   140003a57:	48 89 50 08          	mov    %rdx,0x8(%rax)
   140003a5b:	48 8b 45 10          	mov    0x10(%rbp),%rax
   140003a5f:	48 8b 55 28          	mov    0x28(%rbp),%rdx
   140003a63:	48 89 50 10          	mov    %rdx,0x10(%rax)
   140003a67:	90                   	nop
   140003a68:	48 83 c4 20          	add    $0x20,%rsp
   140003a6c:	5d                   	pop    %rbp
   140003a6d:	c3                   	ret
   140003a6e:	90                   	nop
   140003a6f:	90                   	nop

0000000140003a70 <_ZN5Eigen12DenseStorageIdLin1ELin1ELin1ELi0EEC1Ev>:
   140003a70:	55                   	push   %rbp
   140003a71:	48 89 e5             	mov    %rsp,%rbp
   140003a74:	48 89 4d 10          	mov    %rcx,0x10(%rbp)
   140003a78:	48 8b 45 10          	mov    0x10(%rbp),%rax
   140003a7c:	48 c7 00 00 00 00 00 	movq   $0x0,(%rax)
   140003a83:	48 8b 45 10          	mov    0x10(%rbp),%rax
   140003a87:	48 c7 40 08 00 00 00 	movq   $0x0,0x8(%rax)
   140003a8e:	00 
   140003a8f:	48 8b 45 10          	mov    0x10(%rbp),%rax
   140003a93:	48 c7 40 10 00 00 00 	movq   $0x0,0x10(%rax)
   140003a9a:	00 
   140003a9b:	90                   	nop
   140003a9c:	5d                   	pop    %rbp
   140003a9d:	c3                   	ret
   140003a9e:	90                   	nop
   140003a9f:	90                   	nop

0000000140003aa0 <_ZN5Eigen12DenseStorageIdLin1ELin1ELin1ELi0EED1Ev>:
   140003aa0:	55                   	push   %rbp
   140003aa1:	48 89 e5             	mov    %rsp,%rbp
   140003aa4:	48 83 ec 20          	sub    $0x20,%rsp
   140003aa8:	48 89 4d 10          	mov    %rcx,0x10(%rbp)
   140003aac:	48 8b 45 10          	mov    0x10(%rbp),%rax
   140003ab0:	48 8b 50 08          	mov    0x8(%rax),%rdx
   140003ab4:	48 8b 45 10          	mov    0x10(%rbp),%rax
   140003ab8:	48 8b 40 10          	mov    0x10(%rax),%rax
   140003abc:	48 0f af c2          	imul   %rdx,%rax
   140003ac0:	48 89 c2             	mov    %rax,%rdx
   140003ac3:	48 8b 45 10          	mov    0x10(%rbp),%rax
   140003ac7:	48 8b 00             	mov    (%rax),%rax
   140003aca:	48 89 c1             	mov    %rax,%rcx
   140003acd:	e8 ee 26 01 00       	call   1400161c0 <_ZN5Eigen8internal31conditional_aligned_delete_autoIdLb1EEEvPT_y>
   140003ad2:	90                   	nop
   140003ad3:	48 83 c4 20          	add    $0x20,%rsp
   140003ad7:	5d                   	pop    %rbp
   140003ad8:	c3                   	ret
   140003ad9:	90                   	nop
   140003ada:	90                   	nop
   140003adb:	90                   	nop
   140003adc:	90                   	nop
   140003add:	90                   	nop
   140003ade:	90                   	nop
   140003adf:	90                   	nop

0000000140003ae0 <_ZN5Eigen12DenseStorageIiLin1ELi1ELin1ELi1EE4dataEv>:
   140003ae0:	55                   	push   %rbp
   140003ae1:	48 89 e5             	mov    %rsp,%rbp
   140003ae4:	48 89 4d 10          	mov    %rcx,0x10(%rbp)
   140003ae8:	48 8b 45 10          	mov    0x10(%rbp),%rax
   140003aec:	48 8b 00             	mov    (%rax),%rax
   140003aef:	5d                   	pop    %rbp
   140003af0:	c3                   	ret
   140003af1:	90                   	nop
   140003af2:	90                   	nop
   140003af3:	90                   	nop
   140003af4:	90                   	nop
   140003af5:	90                   	nop
   140003af6:	90                   	nop
   140003af7:	90                   	nop
   140003af8:	90                   	nop
   140003af9:	90                   	nop
   140003afa:	90                   	nop
   140003afb:	90                   	nop
   140003afc:	90                   	nop
   140003afd:	90                   	nop
   140003afe:	90                   	nop
   140003aff:	90                   	nop

0000000140003b00 <_ZN5Eigen12DenseStorageIiLin1ELi1ELin1ELi1EE6resizeExxx>:
   140003b00:	55                   	push   %rbp
   140003b01:	48 89 e5             	mov    %rsp,%rbp
   140003b04:	48 83 ec 20          	sub    $0x20,%rsp
   140003b08:	48 89 4d 10          	mov    %rcx,0x10(%rbp)
   140003b0c:	48 89 55 18          	mov    %rdx,0x18(%rbp)
   140003b10:	4c 89 45 20          	mov    %r8,0x20(%rbp)
   140003b14:	4c 89 4d 28          	mov    %r9,0x28(%rbp)
   140003b18:	48 8b 45 10          	mov    0x10(%rbp),%rax
   140003b1c:	48 8b 40 08          	mov    0x8(%rax),%rax
   140003b20:	48 39 45 18          	cmp    %rax,0x18(%rbp)
   140003b24:	74 41                	je     140003b67 <_ZN5Eigen12DenseStorageIiLin1ELi1ELin1ELi1EE6resizeExxx+0x67>
   140003b26:	48 8b 45 10          	mov    0x10(%rbp),%rax
   140003b2a:	48 8b 40 08          	mov    0x8(%rax),%rax
   140003b2e:	48 89 c2             	mov    %rax,%rdx
   140003b31:	48 8b 45 10          	mov    0x10(%rbp),%rax
   140003b35:	48 8b 00             	mov    (%rax),%rax
   140003b38:	48 89 c1             	mov    %rax,%rcx
   140003b3b:	e8 b0 26 01 00       	call   1400161f0 <_ZN5Eigen8internal31conditional_aligned_delete_autoIiLb1EEEvPT_y>
   140003b40:	48 83 7d 18 00       	cmpq   $0x0,0x18(%rbp)
   140003b45:	7e 15                	jle    140003b5c <_ZN5Eigen12DenseStorageIiLin1ELi1ELin1ELi1EE6resizeExxx+0x5c>
   140003b47:	48 8b 45 18          	mov    0x18(%rbp),%rax
   140003b4b:	48 89 c1             	mov    %rax,%rcx
   140003b4e:	e8 8d e5 00 00       	call   1400120e0 <_ZN5Eigen8internal28conditional_aligned_new_autoIiLb1EEEPT_y>
   140003b53:	48 8b 55 10          	mov    0x10(%rbp),%rdx
   140003b57:	48 89 02             	mov    %rax,(%rdx)
   140003b5a:	eb 0b                	jmp    140003b67 <_ZN5Eigen12DenseStorageIiLin1ELi1ELin1ELi1EE6resizeExxx+0x67>
   140003b5c:	48 8b 45 10          	mov    0x10(%rbp),%rax
   140003b60:	48 c7 00 00 00 00 00 	movq   $0x0,(%rax)
   140003b67:	48 8b 45 10          	mov    0x10(%rbp),%rax
   140003b6b:	48 8b 55 28          	mov    0x28(%rbp),%rdx
   140003b6f:	48 89 50 08          	mov    %rdx,0x8(%rax)
   140003b73:	90                   	nop
   140003b74:	48 83 c4 20          	add    $0x20,%rsp
   140003b78:	5d                   	pop    %rbp
   140003b79:	c3                   	ret
   140003b7a:	90                   	nop
   140003b7b:	90                   	nop
   140003b7c:	90                   	nop
   140003b7d:	90                   	nop
   140003b7e:	90                   	nop
   140003b7f:	90                   	nop

0000000140003b80 <_ZN5Eigen12DenseStorageIiLin1ELi1ELin1ELi1EEC1Ev>:
   140003b80:	55                   	push   %rbp
   140003b81:	48 89 e5             	mov    %rsp,%rbp
   140003b84:	48 89 4d 10          	mov    %rcx,0x10(%rbp)
   140003b88:	48 8b 45 10          	mov    0x10(%rbp),%rax
   140003b8c:	48 c7 00 00 00 00 00 	movq   $0x0,(%rax)
   140003b93:	48 8b 45 10          	mov    0x10(%rbp),%rax
   140003b97:	48 c7 40 08 00 00 00 	movq   $0x0,0x8(%rax)
   140003b9e:	00 
   140003b9f:	90                   	nop
   140003ba0:	5d                   	pop    %rbp
   140003ba1:	c3                   	ret
   140003ba2:	90                   	nop
   140003ba3:	90                   	nop
   140003ba4:	90                   	nop
   140003ba5:	90                   	nop
   140003ba6:	90                   	nop
   140003ba7:	90                   	nop
   140003ba8:	90                   	nop
   140003ba9:	90                   	nop
   140003baa:	90                   	nop
   140003bab:	90                   	nop
   140003bac:	90                   	nop
   140003bad:	90                   	nop
   140003bae:	90                   	nop
   140003baf:	90                   	nop

0000000140003bb0 <_ZN5Eigen12DenseStorageIiLin1ELi1ELin1ELi1EED1Ev>:
   140003bb0:	55                   	push   %rbp
   140003bb1:	48 89 e5             	mov    %rsp,%rbp
   140003bb4:	48 83 ec 20          	sub    $0x20,%rsp
   140003bb8:	48 89 4d 10          	mov    %rcx,0x10(%rbp)
   140003bbc:	48 8b 45 10          	mov    0x10(%rbp),%rax
   140003bc0:	48 8b 40 08          	mov    0x8(%rax),%rax
   140003bc4:	48 89 c2             	mov    %rax,%rdx
   140003bc7:	48 8b 45 10          	mov    0x10(%rbp),%rax
   140003bcb:	48 8b 00             	mov    (%rax),%rax
   140003bce:	48 89 c1             	mov    %rax,%rcx
   140003bd1:	e8 1a 26 01 00       	call   1400161f0 <_ZN5Eigen8internal31conditional_aligned_delete_autoIiLb1EEEvPT_y>
   140003bd6:	90                   	nop
   140003bd7:	48 83 c4 20          	add    $0x20,%rsp
   140003bdb:	5d                   	pop    %rbp
   140003bdc:	c3                   	ret
   140003bdd:	90                   	nop
   140003bde:	90                   	nop
   140003bdf:	90                   	nop

0000000140003be0 <_ZN5Eigen12DenseStorageIiLin1ELin1ELi1ELi0EE4colsEv>:
   140003be0:	55                   	push   %rbp
   140003be1:	48 89 e5             	mov    %rsp,%rbp
   140003be4:	b8 01 00 00 00       	mov    $0x1,%eax
   140003be9:	5d                   	pop    %rbp
   140003bea:	c3                   	ret
   140003beb:	90                   	nop
   140003bec:	90                   	nop
   140003bed:	90                   	nop
   140003bee:	90                   	nop
   140003bef:	90                   	nop

0000000140003bf0 <_ZN5Eigen12DenseStorageIiLin1ELin1ELi1ELi0EE4dataEv>:
   140003bf0:	55                   	push   %rbp
   140003bf1:	48 89 e5             	mov    %rsp,%rbp
   140003bf4:	48 89 4d 10          	mov    %rcx,0x10(%rbp)
   140003bf8:	48 8b 45 10          	mov    0x10(%rbp),%rax
   140003bfc:	48 8b 00             	mov    (%rax),%rax
   140003bff:	5d                   	pop    %rbp
   140003c00:	c3                   	ret
   140003c01:	90                   	nop
   140003c02:	90                   	nop
   140003c03:	90                   	nop
   140003c04:	90                   	nop
   140003c05:	90                   	nop
   140003c06:	90                   	nop
   140003c07:	90                   	nop
   140003c08:	90                   	nop
   140003c09:	90                   	nop
   140003c0a:	90                   	nop
   140003c0b:	90                   	nop
   140003c0c:	90                   	nop
   140003c0d:	90                   	nop
   140003c0e:	90                   	nop
   140003c0f:	90                   	nop

0000000140003c10 <_ZN5Eigen12DenseStorageIiLin1ELin1ELi1ELi0EE6resizeExxx>:
   140003c10:	55                   	push   %rbp
   140003c11:	48 89 e5             	mov    %rsp,%rbp
   140003c14:	48 83 ec 20          	sub    $0x20,%rsp
   140003c18:	48 89 4d 10          	mov    %rcx,0x10(%rbp)
   140003c1c:	48 89 55 18          	mov    %rdx,0x18(%rbp)
   140003c20:	4c 89 45 20          	mov    %r8,0x20(%rbp)
   140003c24:	4c 89 4d 28          	mov    %r9,0x28(%rbp)
   140003c28:	48 8b 45 10          	mov    0x10(%rbp),%rax
   140003c2c:	48 8b 40 08          	mov    0x8(%rax),%rax
   140003c30:	48 39 45 18          	cmp    %rax,0x18(%rbp)
   140003c34:	74 41                	je     140003c77 <_ZN5Eigen12DenseStorageIiLin1ELin1ELi1ELi0EE6resizeExxx+0x67>
   140003c36:	48 8b 45 10          	mov    0x10(%rbp),%rax
   140003c3a:	48 8b 40 08          	mov    0x8(%rax),%rax
   140003c3e:	48 89 c2             	mov    %rax,%rdx
   140003c41:	48 8b 45 10          	mov    0x10(%rbp),%rax
   140003c45:	48 8b 00             	mov    (%rax),%rax
   140003c48:	48 89 c1             	mov    %rax,%rcx
   140003c4b:	e8 a0 25 01 00       	call   1400161f0 <_ZN5Eigen8internal31conditional_aligned_delete_autoIiLb1EEEvPT_y>
   140003c50:	48 83 7d 18 00       	cmpq   $0x0,0x18(%rbp)
   140003c55:	7e 15                	jle    140003c6c <_ZN5Eigen12DenseStorageIiLin1ELin1ELi1ELi0EE6resizeExxx+0x5c>
   140003c57:	48 8b 45 18          	mov    0x18(%rbp),%rax
   140003c5b:	48 89 c1             	mov    %rax,%rcx
   140003c5e:	e8 7d e4 00 00       	call   1400120e0 <_ZN5Eigen8internal28conditional_aligned_new_autoIiLb1EEEPT_y>
   140003c63:	48 8b 55 10          	mov    0x10(%rbp),%rdx
   140003c67:	48 89 02             	mov    %rax,(%rdx)
   140003c6a:	eb 0b                	jmp    140003c77 <_ZN5Eigen12DenseStorageIiLin1ELin1ELi1ELi0EE6resizeExxx+0x67>
   140003c6c:	48 8b 45 10          	mov    0x10(%rbp),%rax
   140003c70:	48 c7 00 00 00 00 00 	movq   $0x0,(%rax)
   140003c77:	48 8b 45 10          	mov    0x10(%rbp),%rax
   140003c7b:	48 8b 55 20          	mov    0x20(%rbp),%rdx
   140003c7f:	48 89 50 08          	mov    %rdx,0x8(%rax)
   140003c83:	90                   	nop
   140003c84:	48 83 c4 20          	add    $0x20,%rsp
   140003c88:	5d                   	pop    %rbp
   140003c89:	c3                   	ret
   140003c8a:	90                   	nop
   140003c8b:	90                   	nop
   140003c8c:	90                   	nop
   140003c8d:	90                   	nop
   140003c8e:	90                   	nop
   140003c8f:	90                   	nop

0000000140003c90 <_ZN5Eigen12DenseStorageIiLin1ELin1ELi1ELi0EEC1Ev>:
   140003c90:	55                   	push   %rbp
   140003c91:	48 89 e5             	mov    %rsp,%rbp
   140003c94:	48 89 4d 10          	mov    %rcx,0x10(%rbp)
   140003c98:	48 8b 45 10          	mov    0x10(%rbp),%rax
   140003c9c:	48 c7 00 00 00 00 00 	movq   $0x0,(%rax)
   140003ca3:	48 8b 45 10          	mov    0x10(%rbp),%rax
   140003ca7:	48 c7 40 08 00 00 00 	movq   $0x0,0x8(%rax)
   140003cae:	00 
   140003caf:	90                   	nop
   140003cb0:	5d                   	pop    %rbp
   140003cb1:	c3                   	ret
   140003cb2:	90                   	nop
   140003cb3:	90                   	nop
   140003cb4:	90                   	nop
   140003cb5:	90                   	nop
   140003cb6:	90                   	nop
   140003cb7:	90                   	nop
   140003cb8:	90                   	nop
   140003cb9:	90                   	nop
   140003cba:	90                   	nop
   140003cbb:	90                   	nop
   140003cbc:	90                   	nop
   140003cbd:	90                   	nop
   140003cbe:	90                   	nop
   140003cbf:	90                   	nop

0000000140003cc0 <_ZN5Eigen12DenseStorageIiLin1ELin1ELi1ELi0EED1Ev>:
   140003cc0:	55                   	push   %rbp
   140003cc1:	48 89 e5             	mov    %rsp,%rbp
   140003cc4:	48 83 ec 20          	sub    $0x20,%rsp
   140003cc8:	48 89 4d 10          	mov    %rcx,0x10(%rbp)
   140003ccc:	48 8b 45 10          	mov    0x10(%rbp),%rax
   140003cd0:	48 8b 40 08          	mov    0x8(%rax),%rax
   140003cd4:	48 89 c2             	mov    %rax,%rdx
   140003cd7:	48 8b 45 10          	mov    0x10(%rbp),%rax
   140003cdb:	48 8b 00             	mov    (%rax),%rax
   140003cde:	48 89 c1             	mov    %rax,%rcx
   140003ce1:	e8 0a 25 01 00       	call   1400161f0 <_ZN5Eigen8internal31conditional_aligned_delete_autoIiLb1EEEvPT_y>
   140003ce6:	90                   	nop
   140003ce7:	48 83 c4 20          	add    $0x20,%rsp
   140003ceb:	5d                   	pop    %rbp
   140003cec:	c3                   	ret
   140003ced:	90                   	nop
   140003cee:	90                   	nop
   140003cef:	90                   	nop

0000000140003cf0 <_ZN5Eigen12VectorwiseOpIKNS_12CwiseUnaryOpINS_8internal13scalar_abs_opIdEEKNS_6MatrixIdLin1ELin1ELi0ELin1ELin1EEEEELi0EEC1ERS9_>:
   140003cf0:	55                   	push   %rbp
   140003cf1:	48 89 e5             	mov    %rsp,%rbp
   140003cf4:	48 89 4d 10          	mov    %rcx,0x10(%rbp)
   140003cf8:	48 89 55 18          	mov    %rdx,0x18(%rbp)
   140003cfc:	48 8b 4d 10          	mov    0x10(%rbp),%rcx
   140003d00:	48 8b 45 18          	mov    0x18(%rbp),%rax
   140003d04:	48 8b 50 08          	mov    0x8(%rax),%rdx
   140003d08:	48 8b 00             	mov    (%rax),%rax
   140003d0b:	48 89 01             	mov    %rax,(%rcx)
   140003d0e:	48 89 51 08          	mov    %rdx,0x8(%rcx)
   140003d12:	90                   	nop
   140003d13:	5d                   	pop    %rbp
   140003d14:	c3                   	ret
   140003d15:	90                   	nop
   140003d16:	90                   	nop
   140003d17:	90                   	nop
   140003d18:	90                   	nop
   140003d19:	90                   	nop
   140003d1a:	90                   	nop
   140003d1b:	90                   	nop
   140003d1c:	90                   	nop
   140003d1d:	90                   	nop
   140003d1e:	90                   	nop
   140003d1f:	90                   	nop

0000000140003d20 <_ZN5Eigen13CwiseBinaryOpINS_8internal17scalar_product_opIddEEKNS_14CwiseNullaryOpINS1_18scalar_constant_opIdEEKNS_6MatrixIdLin1ELi1ELi0ELin1ELi1EEEEEKNS_5BlockIKNSC_IKNS_3MapIKNS7_IdLin1ELin1ELi0ELin1ELin1EEELi0ENS_11OuterStrideILin1EEEEELin1ELi1ELb1EEELin1ELi1ELb0EEEEC1ERSB_RSN_RKS3_>:
   140003d20:	55                   	push   %rbp
   140003d21:	53                   	push   %rbx
   140003d22:	48 83 ec 28          	sub    $0x28,%rsp
   140003d26:	48 8d 6c 24 20       	lea    0x20(%rsp),%rbp
   140003d2b:	48 89 4d 20          	mov    %rcx,0x20(%rbp)
   140003d2f:	48 89 55 28          	mov    %rdx,0x28(%rbp)
   140003d33:	4c 89 45 30          	mov    %r8,0x30(%rbp)
   140003d37:	4c 89 4d 38          	mov    %r9,0x38(%rbp)
   140003d3b:	48 8b 45 20          	mov    0x20(%rbp),%rax
   140003d3f:	48 8d 48 08          	lea    0x8(%rax),%rcx
   140003d43:	48 8b 45 28          	mov    0x28(%rbp),%rax
   140003d47:	48 89 c2             	mov    %rax,%rdx
   140003d4a:	e8 21 02 00 00       	call   140003f70 <_ZN5Eigen14CwiseNullaryOpINS_8internal18scalar_constant_opIdEEKNS_6MatrixIdLin1ELi1ELi0ELin1ELi1EEEEC1ERKS7_>
   140003d4f:	48 8b 45 20          	mov    0x20(%rbp),%rax
   140003d53:	48 8d 48 20          	lea    0x20(%rax),%rcx
   140003d57:	48 8b 45 30          	mov    0x30(%rbp),%rax
   140003d5b:	48 89 c2             	mov    %rax,%rdx
   140003d5e:	e8 cd 1b 00 00       	call   140005930 <_ZN5Eigen5BlockIKNS0_IKNS_3MapIKNS_6MatrixIdLin1ELin1ELi0ELin1ELin1EEELi0ENS_11OuterStrideILin1EEEEELin1ELi1ELb1EEELin1ELi1ELb0EEC1ERKSB_>
   140003d63:	48 8b 45 28          	mov    0x28(%rbp),%rax
   140003d67:	48 89 c1             	mov    %rax,%rcx
   140003d6a:	e8 d1 80 01 00       	call   14001be40 <_ZNK5Eigen14CwiseNullaryOpINS_8internal18scalar_constant_opIdEEKNS_6MatrixIdLin1ELi1ELi0ELin1ELi1EEEE4rowsEv>
   140003d6f:	48 89 c3             	mov    %rax,%rbx
   140003d72:	48 8b 45 30          	mov    0x30(%rbp),%rax
   140003d76:	48 89 c1             	mov    %rax,%rcx
   140003d79:	e8 42 90 01 00       	call   14001cdc0 <_ZNK5Eigen7MapBaseINS_5BlockIKNS1_IKNS_3MapIKNS_6MatrixIdLin1ELin1ELi0ELin1ELin1EEELi0ENS_11OuterStrideILin1EEEEELin1ELi1ELb1EEELin1ELi1ELb0EEELi0EE4rowsEv>
   140003d7e:	48 39 c3             	cmp    %rax,%rbx
   140003d81:	75 20                	jne    140003da3 <_ZN5Eigen13CwiseBinaryOpINS_8internal17scalar_product_opIddEEKNS_14CwiseNullaryOpINS1_18scalar_constant_opIdEEKNS_6MatrixIdLin1ELi1ELi0ELin1ELi1EEEEEKNS_5BlockIKNSC_IKNS_3MapIKNS7_IdLin1ELin1ELi0ELin1ELin1EEELi0ENS_11OuterStrideILin1EEEEELin1ELi1ELb1EEELin1ELi1ELb0EEEEC1ERSB_RSN_RKS3_+0x83>
   140003d83:	48 8b 45 28          	mov    0x28(%rbp),%rax
   140003d87:	48 89 c1             	mov    %rax,%rcx
   140003d8a:	e8 91 80 01 00       	call   14001be20 <_ZNK5Eigen14CwiseNullaryOpINS_8internal18scalar_constant_opIdEEKNS_6MatrixIdLin1ELi1ELi0ELin1ELi1EEEE4colsEv>
   140003d8f:	48 89 c3             	mov    %rax,%rbx
   140003d92:	48 8b 45 30          	mov    0x30(%rbp),%rax
   140003d96:	48 89 c1             	mov    %rax,%rcx
   140003d99:	e8 e2 8f 01 00       	call   14001cd80 <_ZNK5Eigen7MapBaseINS_5BlockIKNS1_IKNS_3MapIKNS_6MatrixIdLin1ELin1ELi0ELin1ELin1EEELi0ENS_11OuterStrideILin1EEEEELin1ELi1ELb1EEELin1ELi1ELb0EEELi0EE4colsEv>
   140003d9e:	48 39 c3             	cmp    %rax,%rbx
   140003da1:	74 23                	je     140003dc6 <_ZN5Eigen13CwiseBinaryOpINS_8internal17scalar_product_opIddEEKNS_14CwiseNullaryOpINS1_18scalar_constant_opIdEEKNS_6MatrixIdLin1ELi1ELi0ELin1ELi1EEEEEKNS_5BlockIKNSC_IKNS_3MapIKNS7_IdLin1ELin1ELi0ELin1ELin1EEELi0ENS_11OuterStrideILin1EEEEELin1ELi1ELb1EEELin1ELi1ELb0EEEEC1ERSB_RSN_RKS3_+0xa6>
   140003da3:	41 b8 6c 00 00 00    	mov    $0x6c,%r8d
   140003da9:	48 8d 05 c0 33 02 00 	lea    0x233c0(%rip),%rax        # 140027170 <_ZN5Eigen8internalL18defaultL3CacheSizeE+0x1008>
   140003db0:	48 89 c2             	mov    %rax,%rdx
   140003db3:	48 8d 05 ee 33 02 00 	lea    0x233ee(%rip),%rax        # 1400271a8 <_ZN5Eigen8internalL18defaultL3CacheSizeE+0x1040>
   140003dba:	48 89 c1             	mov    %rax,%rcx
   140003dbd:	48 8b 05 b4 07 03 00 	mov    0x307b4(%rip),%rax        # 140034578 <__imp__assert>
   140003dc4:	ff d0                	call   *%rax
   140003dc6:	90                   	nop
   140003dc7:	48 83 c4 28          	add    $0x28,%rsp
   140003dcb:	5b                   	pop    %rbx
   140003dcc:	5d                   	pop    %rbp
   140003dcd:	c3                   	ret
   140003dce:	90                   	nop
   140003dcf:	90                   	nop

0000000140003dd0 <_ZN5Eigen13CwiseBinaryOpINS_8internal17scalar_product_opIddEEKNS_14CwiseNullaryOpINS1_18scalar_constant_opIdEEKNS_6MatrixIdLin1ELi1ELi0ELin1ELi1EEEEEKNS_5BlockINSC_INS7_IdLin1ELin1ELi0ELin1ELin1EEELin1ELi1ELb1EEELin1ELi1ELb0EEEEC1ERSB_RSG_RKS3_>:
   140003dd0:	55                   	push   %rbp
   140003dd1:	53                   	push   %rbx
   140003dd2:	48 83 ec 28          	sub    $0x28,%rsp
   140003dd6:	48 8d 6c 24 20       	lea    0x20(%rsp),%rbp
   140003ddb:	48 89 4d 20          	mov    %rcx,0x20(%rbp)
   140003ddf:	48 89 55 28          	mov    %rdx,0x28(%rbp)
   140003de3:	4c 89 45 30          	mov    %r8,0x30(%rbp)
   140003de7:	4c 89 4d 38          	mov    %r9,0x38(%rbp)
   140003deb:	48 8b 45 20          	mov    0x20(%rbp),%rax
   140003def:	48 8d 48 08          	lea    0x8(%rax),%rcx
   140003df3:	48 8b 45 28          	mov    0x28(%rbp),%rax
   140003df7:	48 89 c2             	mov    %rax,%rdx
   140003dfa:	e8 71 01 00 00       	call   140003f70 <_ZN5Eigen14CwiseNullaryOpINS_8internal18scalar_constant_opIdEEKNS_6MatrixIdLin1ELi1ELi0ELin1ELi1EEEEC1ERKS7_>
   140003dff:	48 8b 45 20          	mov    0x20(%rbp),%rax
   140003e03:	48 8d 50 20          	lea    0x20(%rax),%rdx
   140003e07:	48 8b 45 30          	mov    0x30(%rbp),%rax
   140003e0b:	48 8b 08             	mov    (%rax),%rcx
   140003e0e:	48 8b 58 08          	mov    0x8(%rax),%rbx
   140003e12:	48 89 0a             	mov    %rcx,(%rdx)
   140003e15:	48 89 5a 08          	mov    %rbx,0x8(%rdx)
   140003e19:	48 8b 48 10          	mov    0x10(%rax),%rcx
   140003e1d:	48 8b 58 18          	mov    0x18(%rax),%rbx
   140003e21:	48 89 4a 10          	mov    %rcx,0x10(%rdx)
   140003e25:	48 89 5a 18          	mov    %rbx,0x18(%rdx)
   140003e29:	48 8b 48 20          	mov    0x20(%rax),%rcx
   140003e2d:	48 8b 58 28          	mov    0x28(%rax),%rbx
   140003e31:	48 89 4a 20          	mov    %rcx,0x20(%rdx)
   140003e35:	48 89 5a 28          	mov    %rbx,0x28(%rdx)
   140003e39:	48 8b 48 30          	mov    0x30(%rax),%rcx
   140003e3d:	48 8b 58 38          	mov    0x38(%rax),%rbx
   140003e41:	48 89 4a 30          	mov    %rcx,0x30(%rdx)
   140003e45:	48 89 5a 38          	mov    %rbx,0x38(%rdx)
   140003e49:	48 8b 48 40          	mov    0x40(%rax),%rcx
   140003e4d:	48 8b 58 48          	mov    0x48(%rax),%rbx
   140003e51:	48 89 4a 40          	mov    %rcx,0x40(%rdx)
   140003e55:	48 89 5a 48          	mov    %rbx,0x48(%rdx)
   140003e59:	48 8b 48 50          	mov    0x50(%rax),%rcx
   140003e5d:	48 8b 58 58          	mov    0x58(%rax),%rbx
   140003e61:	48 89 4a 50          	mov    %rcx,0x50(%rdx)
   140003e65:	48 89 5a 58          	mov    %rbx,0x58(%rdx)
   140003e69:	48 8b 40 60          	mov    0x60(%rax),%rax
   140003e6d:	48 89 42 60          	mov    %rax,0x60(%rdx)
   140003e71:	48 8b 45 28          	mov    0x28(%rbp),%rax
   140003e75:	48 89 c1             	mov    %rax,%rcx
   140003e78:	e8 c3 7f 01 00       	call   14001be40 <_ZNK5Eigen14CwiseNullaryOpINS_8internal18scalar_constant_opIdEEKNS_6MatrixIdLin1ELi1ELi0ELin1ELi1EEEE4rowsEv>
   140003e7d:	48 89 c3             	mov    %rax,%rbx
   140003e80:	48 8b 45 30          	mov    0x30(%rbp),%rax
   140003e84:	48 89 c1             	mov    %rax,%rcx
   140003e87:	e8 54 94 01 00       	call   14001d2e0 <_ZNK5Eigen7MapBaseINS_5BlockINS1_INS_6MatrixIdLin1ELin1ELi0ELin1ELin1EEELin1ELi1ELb1EEELin1ELi1ELb0EEELi0EE4rowsEv>
   140003e8c:	48 39 c3             	cmp    %rax,%rbx
   140003e8f:	75 20                	jne    140003eb1 <_ZN5Eigen13CwiseBinaryOpINS_8internal17scalar_product_opIddEEKNS_14CwiseNullaryOpINS1_18scalar_constant_opIdEEKNS_6MatrixIdLin1ELi1ELi0ELin1ELi1EEEEEKNS_5BlockINSC_INS7_IdLin1ELin1ELi0ELin1ELin1EEELin1ELi1ELb1EEELin1ELi1ELb0EEEEC1ERSB_RSG_RKS3_+0xe1>
   140003e91:	48 8b 45 28          	mov    0x28(%rbp),%rax
   140003e95:	48 89 c1             	mov    %rax,%rcx
   140003e98:	e8 83 7f 01 00       	call   14001be20 <_ZNK5Eigen14CwiseNullaryOpINS_8internal18scalar_constant_opIdEEKNS_6MatrixIdLin1ELi1ELi0ELin1ELi1EEEE4colsEv>
   140003e9d:	48 89 c3             	mov    %rax,%rbx
   140003ea0:	48 8b 45 30          	mov    0x30(%rbp),%rax
   140003ea4:	48 89 c1             	mov    %rax,%rcx
   140003ea7:	e8 14 94 01 00       	call   14001d2c0 <_ZNK5Eigen7MapBaseINS_5BlockINS1_INS_6MatrixIdLin1ELin1ELi0ELin1ELin1EEELin1ELi1ELb1EEELin1ELi1ELb0EEELi0EE4colsEv>
   140003eac:	48 39 c3             	cmp    %rax,%rbx
   140003eaf:	74 23                	je     140003ed4 <_ZN5Eigen13CwiseBinaryOpINS_8internal17scalar_product_opIddEEKNS_14CwiseNullaryOpINS1_18scalar_constant_opIdEEKNS_6MatrixIdLin1ELi1ELi0ELin1ELi1EEEEEKNS_5BlockINSC_INS7_IdLin1ELin1ELi0ELin1ELin1EEELin1ELi1ELb1EEELin1ELi1ELb0EEEEC1ERSB_RSG_RKS3_+0x104>
   140003eb1:	41 b8 6c 00 00 00    	mov    $0x6c,%r8d
   140003eb7:	48 8d 05 b2 32 02 00 	lea    0x232b2(%rip),%rax        # 140027170 <_ZN5Eigen8internalL18defaultL3CacheSizeE+0x1008>
   140003ebe:	48 89 c2             	mov    %rax,%rdx
   140003ec1:	48 8d 05 e0 32 02 00 	lea    0x232e0(%rip),%rax        # 1400271a8 <_ZN5Eigen8internalL18defaultL3CacheSizeE+0x1040>
   140003ec8:	48 89 c1             	mov    %rax,%rcx
   140003ecb:	48 8b 05 a6 06 03 00 	mov    0x306a6(%rip),%rax        # 140034578 <__imp__assert>
   140003ed2:	ff d0                	call   *%rax
   140003ed4:	90                   	nop
   140003ed5:	48 83 c4 28          	add    $0x28,%rsp
   140003ed9:	5b                   	pop    %rbx
   140003eda:	5d                   	pop    %rbp
   140003edb:	c3                   	ret
   140003edc:	90                   	nop
   140003edd:	90                   	nop
   140003ede:	90                   	nop
   140003edf:	90                   	nop

0000000140003ee0 <_ZN5Eigen14CwiseNullaryOpINS_8internal18scalar_constant_opIbEENS_6MatrixIbLin1ELi1ELi0ELin1ELi1EEEEC1ExxRKS3_>:
   140003ee0:	55                   	push   %rbp
   140003ee1:	48 89 e5             	mov    %rsp,%rbp
   140003ee4:	48 83 ec 20          	sub    $0x20,%rsp
   140003ee8:	48 89 4d 10          	mov    %rcx,0x10(%rbp)
   140003eec:	48 89 55 18          	mov    %rdx,0x18(%rbp)
   140003ef0:	4c 89 45 20          	mov    %r8,0x20(%rbp)
   140003ef4:	4c 89 4d 28          	mov    %r9,0x28(%rbp)
   140003ef8:	48 8b 45 10          	mov    0x10(%rbp),%rax
   140003efc:	48 8b 55 18          	mov    0x18(%rbp),%rdx
   140003f00:	48 89 c1             	mov    %rax,%rcx
   140003f03:	e8 48 aa 00 00       	call   14000e950 <_ZN5Eigen8internal19variable_if_dynamicIxLin1EEC1Ex>
   140003f08:	48 8b 45 10          	mov    0x10(%rbp),%rax
   140003f0c:	48 8d 48 08          	lea    0x8(%rax),%rcx
   140003f10:	48 8b 45 20          	mov    0x20(%rbp),%rax
   140003f14:	48 89 c2             	mov    %rax,%rdx
   140003f17:	e8 e4 a9 00 00       	call   14000e900 <_ZN5Eigen8internal19variable_if_dynamicIxLi1EEC1Ex>
   140003f1c:	48 8b 45 10          	mov    0x10(%rbp),%rax
   140003f20:	48 8d 48 09          	lea    0x9(%rax),%rcx
   140003f24:	48 8b 45 28          	mov    0x28(%rbp),%rax
   140003f28:	48 89 c2             	mov    %rax,%rdx
   140003f2b:	e8 90 a5 00 00       	call   14000e4c0 <_ZN5Eigen8internal18scalar_constant_opIbEC1ERKS2_>
   140003f30:	48 83 7d 18 00       	cmpq   $0x0,0x18(%rbp)
   140003f35:	78 0e                	js     140003f45 <_ZN5Eigen14CwiseNullaryOpINS_8internal18scalar_constant_opIbEENS_6MatrixIbLin1ELi1ELi0ELin1ELi1EEEEC1ExxRKS3_+0x65>
   140003f37:	48 83 7d 20 00       	cmpq   $0x0,0x20(%rbp)
   140003f3c:	78 07                	js     140003f45 <_ZN5Eigen14CwiseNullaryOpINS_8internal18scalar_constant_opIbEENS_6MatrixIbLin1ELi1ELi0ELin1ELi1EEEEC1ExxRKS3_+0x65>
   140003f3e:	48 83 7d 20 01       	cmpq   $0x1,0x20(%rbp)
   140003f43:	74 23                	je     140003f68 <_ZN5Eigen14CwiseNullaryOpINS_8internal18scalar_constant_opIbEENS_6MatrixIbLin1ELi1ELi0ELin1ELi1EEEEC1ExxRKS3_+0x88>
   140003f45:	41 b8 47 00 00 00    	mov    $0x47,%r8d
   140003f4b:	48 8d 05 d6 25 02 00 	lea    0x225d6(%rip),%rax        # 140026528 <_ZN5Eigen8internalL18defaultL3CacheSizeE+0x3c0>
   140003f52:	48 89 c2             	mov    %rax,%rdx
   140003f55:	48 8d 05 04 26 02 00 	lea    0x22604(%rip),%rax        # 140026560 <_ZN5Eigen8internalL18defaultL3CacheSizeE+0x3f8>
   140003f5c:	48 89 c1             	mov    %rax,%rcx
   140003f5f:	48 8b 05 12 06 03 00 	mov    0x30612(%rip),%rax        # 140034578 <__imp__assert>
   140003f66:	ff d0                	call   *%rax
   140003f68:	90                   	nop
   140003f69:	48 83 c4 20          	add    $0x20,%rsp
   140003f6d:	5d                   	pop    %rbp
   140003f6e:	c3                   	ret
   140003f6f:	90                   	nop

0000000140003f70 <_ZN5Eigen14CwiseNullaryOpINS_8internal18scalar_constant_opIdEEKNS_6MatrixIdLin1ELi1ELi0ELin1ELi1EEEEC1ERKS7_>:
   140003f70:	55                   	push   %rbp
   140003f71:	48 89 e5             	mov    %rsp,%rbp
   140003f74:	48 83 ec 20          	sub    $0x20,%rsp
   140003f78:	48 89 4d 10          	mov    %rcx,0x10(%rbp)
   140003f7c:	48 89 55 18          	mov    %rdx,0x18(%rbp)
   140003f80:	48 8b 45 10          	mov    0x10(%rbp),%rax
   140003f84:	48 8b 55 18          	mov    0x18(%rbp),%rdx
   140003f88:	48 8b 12             	mov    (%rdx),%rdx
   140003f8b:	48 89 10             	mov    %rdx,(%rax)
   140003f8e:	48 8b 45 10          	mov    0x10(%rbp),%rax
   140003f92:	48 83 c0 10          	add    $0x10,%rax
   140003f96:	48 8b 55 18          	mov    0x18(%rbp),%rdx
   140003f9a:	48 83 c2 10          	add    $0x10,%rdx
   140003f9e:	48 89 c1             	mov    %rax,%rcx
   140003fa1:	e8 5a a5 00 00       	call   14000e500 <_ZN5Eigen8internal18scalar_constant_opIdEC1ERKS2_>
   140003fa6:	90                   	nop
   140003fa7:	48 83 c4 20          	add    $0x20,%rsp
   140003fab:	5d                   	pop    %rbp
   140003fac:	c3                   	ret
   140003fad:	90                   	nop
   140003fae:	90                   	nop
   140003faf:	90                   	nop

0000000140003fb0 <_ZN5Eigen14CwiseNullaryOpINS_8internal18scalar_constant_opIdEEKNS_6MatrixIdLin1ELi1ELi0ELin1ELi1EEEEC1ExxRKS3_>:
   140003fb0:	55                   	push   %rbp
   140003fb1:	48 89 e5             	mov    %rsp,%rbp
   140003fb4:	48 83 ec 20          	sub    $0x20,%rsp
   140003fb8:	48 89 4d 10          	mov    %rcx,0x10(%rbp)
   140003fbc:	48 89 55 18          	mov    %rdx,0x18(%rbp)
   140003fc0:	4c 89 45 20          	mov    %r8,0x20(%rbp)
   140003fc4:	4c 89 4d 28          	mov    %r9,0x28(%rbp)
   140003fc8:	48 8b 45 10          	mov    0x10(%rbp),%rax
   140003fcc:	48 8b 55 18          	mov    0x18(%rbp),%rdx
   140003fd0:	48 89 c1             	mov    %rax,%rcx
   140003fd3:	e8 78 a9 00 00       	call   14000e950 <_ZN5Eigen8internal19variable_if_dynamicIxLin1EEC1Ex>
   140003fd8:	48 8b 45 10          	mov    0x10(%rbp),%rax
   140003fdc:	48 8d 48 08          	lea    0x8(%rax),%rcx
   140003fe0:	48 8b 45 20          	mov    0x20(%rbp),%rax
   140003fe4:	48 89 c2             	mov    %rax,%rdx
   140003fe7:	e8 14 a9 00 00       	call   14000e900 <_ZN5Eigen8internal19variable_if_dynamicIxLi1EEC1Ex>
   140003fec:	48 8b 45 10          	mov    0x10(%rbp),%rax
   140003ff0:	48 8d 48 10          	lea    0x10(%rax),%rcx
   140003ff4:	48 8b 45 28          	mov    0x28(%rbp),%rax
   140003ff8:	48 89 c2             	mov    %rax,%rdx
   140003ffb:	e8 00 a5 00 00       	call   14000e500 <_ZN5Eigen8internal18scalar_constant_opIdEC1ERKS2_>
   140004000:	48 83 7d 18 00       	cmpq   $0x0,0x18(%rbp)
   140004005:	78 0e                	js     140004015 <_ZN5Eigen14CwiseNullaryOpINS_8internal18scalar_constant_opIdEEKNS_6MatrixIdLin1ELi1ELi0ELin1ELi1EEEEC1ExxRKS3_+0x65>
   140004007:	48 83 7d 20 00       	cmpq   $0x0,0x20(%rbp)
   14000400c:	78 07                	js     140004015 <_ZN5Eigen14CwiseNullaryOpINS_8internal18scalar_constant_opIdEEKNS_6MatrixIdLin1ELi1ELi0ELin1ELi1EEEEC1ExxRKS3_+0x65>
   14000400e:	48 83 7d 20 01       	cmpq   $0x1,0x20(%rbp)
   140004013:	74 23                	je     140004038 <_ZN5Eigen14CwiseNullaryOpINS_8internal18scalar_constant_opIdEEKNS_6MatrixIdLin1ELi1ELi0ELin1ELi1EEEEC1ExxRKS3_+0x88>
   140004015:	41 b8 47 00 00 00    	mov    $0x47,%r8d
   14000401b:	48 8d 05 06 25 02 00 	lea    0x22506(%rip),%rax        # 140026528 <_ZN5Eigen8internalL18defaultL3CacheSizeE+0x3c0>
   140004022:	48 89 c2             	mov    %rax,%rdx
   140004025:	48 8d 05 34 25 02 00 	lea    0x22534(%rip),%rax        # 140026560 <_ZN5Eigen8internalL18defaultL3CacheSizeE+0x3f8>
   14000402c:	48 89 c1             	mov    %rax,%rcx
   14000402f:	48 8b 05 42 05 03 00 	mov    0x30542(%rip),%rax        # 140034578 <__imp__assert>
   140004036:	ff d0                	call   *%rax
   140004038:	90                   	nop
   140004039:	48 83 c4 20          	add    $0x20,%rsp
   14000403d:	5d                   	pop    %rbp
   14000403e:	c3                   	ret
   14000403f:	90                   	nop

0000000140004040 <_ZN5Eigen14CwiseNullaryOpINS_8internal18scalar_constant_opIdEENS_6MatrixIdLi1ELi1ELi0ELi1ELi1EEEEC1ExxRKS3_>:
   140004040:	55                   	push   %rbp
   140004041:	48 89 e5             	mov    %rsp,%rbp
   140004044:	48 83 ec 20          	sub    $0x20,%rsp
   140004048:	48 89 4d 10          	mov    %rcx,0x10(%rbp)
   14000404c:	48 89 55 18          	mov    %rdx,0x18(%rbp)
   140004050:	4c 89 45 20          	mov    %r8,0x20(%rbp)
   140004054:	4c 89 4d 28          	mov    %r9,0x28(%rbp)
   140004058:	48 8b 45 10          	mov    0x10(%rbp),%rax
   14000405c:	48 8b 55 18          	mov    0x18(%rbp),%rdx
   140004060:	48 89 c1             	mov    %rax,%rcx
   140004063:	e8 98 a8 00 00       	call   14000e900 <_ZN5Eigen8internal19variable_if_dynamicIxLi1EEC1Ex>
